ccollections
OrderedDict
p1
((lp2
(lp3
V090035
p4
a(dp5
S'sell'
p6
F27
sS'diff'
p7
F0.10000000000000001
sS'buy'
p8
F26.949999999999999
sS'count'
p9
F1
sS'deal'
p10
F27
saa(lp11
V090055
p12
a(dp13
g6
F27
sg7
F0.10000000000000001
sg8
F26.949999999999999
sg9
F2
sg10
F27
saa(lp14
V090100
p15
a(dp16
g6
F27.050000000000001
sg7
F0.050000000000000003
sg8
F26.949999999999999
sg9
F1
sg10
F26.949999999999999
saa(lp17
V090155
p18
a(dp19
g6
F27.050000000000001
sg7
F0.14999999999999999
sg8
F27
sg9
F2
sg10
F27.050000000000001
saa(lp20
V090210
p21
a(dp22
g6
F27.050000000000001
sg7
F0.14999999999999999
sg8
F27
sg9
F1
sg10
F27.050000000000001
saa(lp23
V090255
p24
a(dp25
g6
F27.050000000000001
sg7
F0.14999999999999999
sg8
F27
sg9
F5
sg10
F27.050000000000001
saa(lp26
V090310
p27
a(dp28
g6
F27.050000000000001
sg7
F0.14999999999999999
sg8
F27
sg9
F6
sg10
F27.050000000000001
saa(lp29
V090335
p30
a(dp31
g6
F27.100000000000001
sg7
F0.14999999999999999
sg8
F27.050000000000001
sg9
F1
sg10
F27.050000000000001
saa(lp32
V090340
p33
a(dp34
g6
F27.100000000000001
sg7
F0.14999999999999999
sg8
F27.050000000000001
sg9
F1
sg10
F27.050000000000001
saa(lp35
V090345
p36
a(dp37
g6
F27.100000000000001
sg7
F0.14999999999999999
sg8
F27.050000000000001
sg9
F4
sg10
F27.050000000000001
saa(lp38
V090350
p39
a(dp40
g6
F27.050000000000001
sg7
F0.10000000000000001
sg8
F27
sg9
F2
sg10
F27
saa(lp41
V090355
p42
a(dp43
g6
F27.050000000000001
sg7
F0.10000000000000001
sg8
F27
sg9
F2
sg10
F27
saa(lp44
V090400
p45
a(dp46
g6
F27.050000000000001
sg7
F0.10000000000000001
sg8
F27
sg9
F5
sg10
F27
saa(lp47
V090410
p48
a(dp49
g6
F27.050000000000001
sg7
F0.14999999999999999
sg8
F27
sg9
F1
sg10
F27.050000000000001
saa(lp50
V090626
p51
a(dp52
g6
F27.050000000000001
sg7
F0.14999999999999999
sg8
F27
sg9
F3
sg10
F27.050000000000001
saa(lp53
V090636
p54
a(dp55
g6
F27.050000000000001
sg7
F0.14999999999999999
sg8
F27
sg9
F1
sg10
F27.050000000000001
saa(lp56
V090656
p57
a(dp58
g6
F27.050000000000001
sg7
F0.14999999999999999
sg8
F27
sg9
F4
sg10
F27.050000000000001
saa(lp59
V090706
p60
a(dp61
g6
F27.100000000000001
sg7
F0.14999999999999999
sg8
F27.050000000000001
sg9
F2
sg10
F27.050000000000001
saa(lp62
V090716
p63
a(dp64
g6
F27.100000000000001
sg7
F0.14999999999999999
sg8
F27.050000000000001
sg9
F1
sg10
F27.050000000000001
saa(lp65
V090726
p66
a(dp67
g6
F27.100000000000001
sg7
F0.14999999999999999
sg8
F27.050000000000001
sg9
F1
sg10
F27.050000000000001
saa(lp68
V090816
p69
a(dp70
g6
F27.050000000000001
sg7
F0.14999999999999999
sg8
F27
sg9
F1
sg10
F27.050000000000001
saa(lp71
V090952
p72
a(dp73
g6
F27.050000000000001
sg7
F0.14999999999999999
sg8
F27
sg9
F1
sg10
F27.050000000000001
saa(lp74
V091012
p75
a(dp76
g6
F27.050000000000001
sg7
F0.14999999999999999
sg8
F27
sg9
F5
sg10
F27.050000000000001
saa(lp77
V091027
p78
a(dp79
g6
F27.050000000000001
sg7
F0.14999999999999999
sg8
F27
sg9
F1
sg10
F27.050000000000001
saa(lp80
V091032
p81
a(dp82
g6
F27.050000000000001
sg7
F0.10000000000000001
sg8
F27
sg9
F2
sg10
F27
saa(lp83
V091042
p84
a(dp85
g6
F27.050000000000001
sg7
F0.14999999999999999
sg8
F27
sg9
F1
sg10
F27.050000000000001
saa(lp86
V091107
p87
a(dp88
g6
F27.050000000000001
sg7
F0.10000000000000001
sg8
F27
sg9
F1
sg10
F27
saa(lp89
V091203
p90
a(dp91
g6
F27.050000000000001
sg7
F0.10000000000000001
sg8
F27
sg9
F1
sg10
F27
saa(lp92
V091233
p93
a(dp94
g6
F27.050000000000001
sg7
F0.10000000000000001
sg8
F27
sg9
F6
sg10
F27
saa(lp95
V091238
p96
a(dp97
g6
F27.050000000000001
sg7
F0.10000000000000001
sg8
F27
sg9
F1
sg10
F27
saa(lp98
V091303
p99
a(dp100
g6
F27.050000000000001
sg7
F0.10000000000000001
sg8
F27
sg9
F2
sg10
F27
saa(lp101
V091338
p102
a(dp103
g6
F27.050000000000001
sg7
F0.10000000000000001
sg8
F27
sg9
F24
sg10
F27
saa(lp104
V091343
p105
a(dp106
g6
F27.050000000000001
sg7
F0.10000000000000001
sg8
F27
sg9
F4
sg10
F27
saa(lp107
V091348
p108
a(dp109
g6
F27.050000000000001
sg7
F0.10000000000000001
sg8
F27
sg9
F2
sg10
F27
saa(lp110
V091353
p111
a(dp112
g6
F27.050000000000001
sg7
F0.10000000000000001
sg8
F27
sg9
F13
sg10
F27
saa(lp113
V091418
p114
a(dp115
g6
F27
sg7
F0.10000000000000001
sg8
F26.949999999999999
sg9
F1
sg10
F27
saa(lp116
V091423
p117
a(dp118
g6
F27
sg7
F0.10000000000000001
sg8
F26.949999999999999
sg9
F5
sg10
F27
saa(lp119
V091428
p120
a(dp121
g6
F27
sg7
F0.10000000000000001
sg8
F26.949999999999999
sg9
F4
sg10
F27
saa(lp122
V091438
p123
a(dp124
g6
F27
sg7
F0.10000000000000001
sg8
F26.949999999999999
sg9
F10
sg10
F27
saa(lp125
V091458
p126
a(dp127
g6
F27
sg7
F0.10000000000000001
sg8
F26.949999999999999
sg9
F13
sg10
F27
saa(lp128
V091508
p129
a(dp130
g6
F27
sg7
F0.10000000000000001
sg8
F26.949999999999999
sg9
F15
sg10
F27
saa(lp131
V091518
p132
a(dp133
g6
F27
sg7
F0.10000000000000001
sg8
F26.949999999999999
sg9
F10
sg10
F27
saa(lp134
V091523
p135
a(dp136
g6
F27
sg7
F0.10000000000000001
sg8
F26.949999999999999
sg9
F6
sg10
F27
saa(lp137
V091538
p138
a(dp139
g6
F27
sg7
F0.10000000000000001
sg8
F26.949999999999999
sg9
F10
sg10
F27
saa(lp140
V091558
p141
a(dp142
g6
F27
sg7
F0.10000000000000001
sg8
F26.949999999999999
sg9
F12
sg10
F27
saa(lp143
V091604
p144
a(dp145
g6
F27
sg7
F0.10000000000000001
sg8
F26.949999999999999
sg9
F6
sg10
F27
saa(lp146
V091629
p147
a(dp148
g6
F27
sg7
F0.10000000000000001
sg8
F26.949999999999999
sg9
F4
sg10
F27
saa(lp149
V091634
p150
a(dp151
g6
F27
sg7
F0.10000000000000001
sg8
F26.949999999999999
sg9
F1
sg10
F27
saa(lp152
V091659
p153
a(dp154
g6
F27.050000000000001
sg7
F0.10000000000000001
sg8
F27
sg9
F10
sg10
F27
saa(lp155
V091734
p156
a(dp157
g6
F27.050000000000001
sg7
F0.10000000000000001
sg8
F27
sg9
F2
sg10
F27
saa(lp158
V091739
p159
a(dp160
g6
F27.050000000000001
sg7
F0.10000000000000001
sg8
F27
sg9
F2
sg10
F27
saa(lp161
V091804
p162
a(dp163
g6
F27.050000000000001
sg7
F0.14999999999999999
sg8
F27
sg9
F1
sg10
F27.050000000000001
saa(lp164
V091814
p165
a(dp166
g6
F27.050000000000001
sg7
F0.14999999999999999
sg8
F27
sg9
F1
sg10
F27.050000000000001
saa(lp167
V091839
p168
a(dp169
g6
F27.050000000000001
sg7
F0.10000000000000001
sg8
F27
sg9
F1
sg10
F27
saa(lp170
V091954
p171
a(dp172
g6
F27.050000000000001
sg7
F0.10000000000000001
sg8
F27
sg9
F28
sg10
F27
saa(lp173
V091959
p174
a(dp175
g6
F27
sg7
F0.050000000000000003
sg8
F26.949999999999999
sg9
F4
sg10
F26.949999999999999
saa(lp176
V092005
p177
a(dp178
g6
F27
sg7
F0.050000000000000003
sg8
F26.949999999999999
sg9
F3
sg10
F26.949999999999999
saa(lp179
V092020
p180
a(dp181
g6
F27
sg7
F0.050000000000000003
sg8
F26.949999999999999
sg9
F1
sg10
F26.949999999999999
saa(lp182
V092100
p183
a(dp184
g6
F27
sg7
F0.10000000000000001
sg8
F26.949999999999999
sg9
F10
sg10
F27
saa(lp185
V092220
p186
a(dp187
g6
F27
sg7
F0.050000000000000003
sg8
F26.949999999999999
sg9
F35
sg10
F26.949999999999999
saa(lp188
V092225
p189
a(dp190
g6
F27
sg7
F0.050000000000000003
sg8
F26.949999999999999
sg9
F38
sg10
F26.949999999999999
saa(lp191
V092231
p192
a(dp193
g6
F26.949999999999999
sg7
F0
sg8
F26.899999999999999
sg9
F2
sg10
F26.899999999999999
saa(lp194
V092236
p195
a(dp196
g6
F26.949999999999999
sg7
F0
sg8
F26.899999999999999
sg9
F2
sg10
F26.899999999999999
saa(lp197
V092246
p198
a(dp199
g6
F26.949999999999999
sg7
F0
sg8
F26.899999999999999
sg9
F3
sg10
F26.899999999999999
saa(lp200
V092256
p201
a(dp202
g6
F26.949999999999999
sg7
F0
sg8
F26.899999999999999
sg9
F2
sg10
F26.899999999999999
saa(lp203
V092301
p204
a(dp205
g6
F26.949999999999999
sg7
F0
sg8
F26.899999999999999
sg9
F10
sg10
F26.899999999999999
saa(lp206
V092306
p207
a(dp208
g6
F26.949999999999999
sg7
F0
sg8
F26.899999999999999
sg9
F1
sg10
F26.899999999999999
saa(lp209
V092341
p210
a(dp211
g6
F26.949999999999999
sg7
F0.050000000000000003
sg8
F26.899999999999999
sg9
F1
sg10
F26.949999999999999
saa(lp212
V092401
p213
a(dp214
g6
F26.949999999999999
sg7
F0.050000000000000003
sg8
F26.899999999999999
sg9
F2
sg10
F26.949999999999999
saa(lp215
V092421
p216
a(dp217
g6
F26.949999999999999
sg7
F0.050000000000000003
sg8
F26.899999999999999
sg9
F3
sg10
F26.949999999999999
saa(lp218
V092441
p219
a(dp220
g6
F26.949999999999999
sg7
F0.050000000000000003
sg8
F26.899999999999999
sg9
F10
sg10
F26.949999999999999
saa(lp221
V092511
p222
a(dp223
g6
F26.949999999999999
sg7
F0
sg8
F26.899999999999999
sg9
F25
sg10
F26.899999999999999
saa(lp224
V092541
p225
a(dp226
g6
F26.949999999999999
sg7
F0
sg8
F26.899999999999999
sg9
F2
sg10
F26.899999999999999
saa(lp227
V092832
p228
a(dp229
g6
F26.949999999999999
sg7
F0
sg8
F26.899999999999999
sg9
F15
sg10
F26.899999999999999
saa(lp230
V092847
p231
a(dp232
g6
F26.949999999999999
sg7
F0
sg8
F26.899999999999999
sg9
F2
sg10
F26.899999999999999
saa(lp233
V092937
p234
a(dp235
g6
F26.949999999999999
sg7
F0.050000000000000003
sg8
F26.899999999999999
sg9
F1
sg10
F26.949999999999999
saa(lp236
V093153
p237
a(dp238
g6
F26.949999999999999
sg7
F0
sg8
F26.899999999999999
sg9
F2
sg10
F26.899999999999999
saa(lp239
V093158
p240
a(dp241
g6
F26.949999999999999
sg7
F0
sg8
F26.899999999999999
sg9
F26
sg10
F26.899999999999999
saa(lp242
V093223
p243
a(dp244
g6
F26.949999999999999
sg7
F0.050000000000000003
sg8
F26.850000000000001
sg9
F1
sg10
F26.949999999999999
saa(lp245
V093233
p246
a(dp247
g6
F26.899999999999999
sg7
F-0.050000000000000003
sg8
F26.850000000000001
sg9
F3
sg10
F26.850000000000001
saa(lp248
V093253
p249
a(dp250
g6
F26.899999999999999
sg7
F-0.050000000000000003
sg8
F26.850000000000001
sg9
F48
sg10
F26.850000000000001
saa(lp251
V093258
p252
a(dp253
g6
F26.899999999999999
sg7
F-0.050000000000000003
sg8
F26.850000000000001
sg9
F2
sg10
F26.850000000000001
saa(lp254
V093303
p255
a(dp256
g6
F26.850000000000001
sg7
F-0.10000000000000001
sg8
F26.800000000000001
sg9
F3
sg10
F26.800000000000001
saa(lp257
V093308
p258
a(dp259
g6
F26.850000000000001
sg7
F-0.10000000000000001
sg8
F26.800000000000001
sg9
F100
sg10
F26.800000000000001
saa(lp260
V093318
p261
a(dp262
g6
F26.850000000000001
sg7
F-0.10000000000000001
sg8
F26.800000000000001
sg9
F9
sg10
F26.800000000000001
saa(lp263
V093328
p264
a(dp265
g6
F26.850000000000001
sg7
F-0.10000000000000001
sg8
F26.800000000000001
sg9
F2
sg10
F26.800000000000001
saa(lp266
V093333
p267
a(dp268
g6
F26.850000000000001
sg7
F-0.10000000000000001
sg8
F26.800000000000001
sg9
F4
sg10
F26.800000000000001
saa(lp269
V093348
p270
a(dp271
g6
F26.850000000000001
sg7
F-0.050000000000000003
sg8
F26.800000000000001
sg9
F2
sg10
F26.850000000000001
saa(lp272
V093354
p273
a(dp274
g6
F26.850000000000001
sg7
F-0.050000000000000003
sg8
F26.800000000000001
sg9
F5
sg10
F26.850000000000001
saa(lp275
V093359
p276
a(dp277
g6
F26.850000000000001
sg7
F-0.050000000000000003
sg8
F26.800000000000001
sg9
F4
sg10
F26.850000000000001
saa(lp278
V093404
p279
a(dp280
g6
F26.850000000000001
sg7
F-0.050000000000000003
sg8
F26.800000000000001
sg9
F2
sg10
F26.850000000000001
saa(lp281
V093419
p282
a(dp283
g6
F26.850000000000001
sg7
F-0.050000000000000003
sg8
F26.800000000000001
sg9
F4
sg10
F26.850000000000001
saa(lp284
V093529
p285
a(dp286
g6
F26.899999999999999
sg7
F-0.10000000000000001
sg8
F26.850000000000001
sg9
F6
sg10
F26.800000000000001
saa(lp287
V093534
p288
a(dp289
g6
F26.850000000000001
sg7
F-0.050000000000000003
sg8
F26.800000000000001
sg9
F2
sg10
F26.850000000000001
saa(lp290
V093644
p291
a(dp292
g6
F26.899999999999999
sg7
F0
sg8
F26.850000000000001
sg9
F10
sg10
F26.899999999999999
saa(lp293
V093830
p294
a(dp295
g6
F26.949999999999999
sg7
F0
sg8
F26.899999999999999
sg9
F1
sg10
F26.899999999999999
saa(lp296
V093840
p297
a(dp298
g6
F26.949999999999999
sg7
F0
sg8
F26.899999999999999
sg9
F1
sg10
F26.899999999999999
saa(lp299
V093905
p300
a(dp301
g6
F26.899999999999999
sg7
F0
sg8
F26.850000000000001
sg9
F1
sg10
F26.899999999999999
saa(lp302
V094000
p303
a(dp304
g6
F26.899999999999999
sg7
F-0.050000000000000003
sg8
F26.850000000000001
sg9
F2
sg10
F26.850000000000001
saa(lp305
V094026
p306
a(dp307
g6
F26.899999999999999
sg7
F0
sg8
F26.850000000000001
sg9
F1
sg10
F26.899999999999999
saa(lp308
V094131
p309
a(dp310
g6
F26.899999999999999
sg7
F0
sg8
F26.850000000000001
sg9
F2
sg10
F26.899999999999999
saa(lp311
V094136
p312
a(dp313
g6
F26.899999999999999
sg7
F0
sg8
F26.850000000000001
sg9
F1
sg10
F26.899999999999999
saa(lp314
V094216
p315
a(dp316
g6
F26.949999999999999
sg7
F0
sg8
F26.899999999999999
sg9
F1
sg10
F26.899999999999999
saa(lp317
V094311
p318
a(dp319
g6
F26.949999999999999
sg7
F0
sg8
F26.899999999999999
sg9
F1
sg10
F26.899999999999999
saa(lp320
V094351
p321
a(dp322
g6
F26.949999999999999
sg7
F0
sg8
F26.899999999999999
sg9
F1
sg10
F26.899999999999999
saa(lp323
V094416
p324
a(dp325
g6
F26.899999999999999
sg7
F0
sg8
F26.850000000000001
sg9
F1
sg10
F26.899999999999999
saa(lp326
V094421
p327
a(dp328
g6
F26.899999999999999
sg7
F0
sg8
F26.850000000000001
sg9
F2
sg10
F26.899999999999999
saa(lp329
V094502
p330
a(dp331
g6
F26.899999999999999
sg7
F0
sg8
F26.850000000000001
sg9
F5
sg10
F26.899999999999999
saa(lp332
V094527
p333
a(dp334
g6
F26.899999999999999
sg7
F0
sg8
F26.850000000000001
sg9
F2
sg10
F26.899999999999999
saa(lp335
V094532
p336
a(dp337
g6
F26.899999999999999
sg7
F0
sg8
F26.850000000000001
sg9
F3
sg10
F26.899999999999999
saa(lp338
V094632
p339
a(dp340
g6
F26.899999999999999
sg7
F0
sg8
F26.850000000000001
sg9
F12
sg10
F26.899999999999999
saa(lp341
V094637
p342
a(dp343
g6
F26.899999999999999
sg7
F0
sg8
F26.850000000000001
sg9
F10
sg10
F26.899999999999999
saa(lp344
V094642
p345
a(dp346
g6
F26.899999999999999
sg7
F-0.050000000000000003
sg8
F26.850000000000001
sg9
F1
sg10
F26.850000000000001
saa(lp347
V094647
p348
a(dp349
g6
F26.899999999999999
sg7
F0
sg8
F26.850000000000001
sg9
F13
sg10
F26.899999999999999
saa(lp350
V094652
p351
a(dp352
g6
F26.899999999999999
sg7
F0
sg8
F26.850000000000001
sg9
F3
sg10
F26.899999999999999
saa(lp353
V094752
p354
a(dp355
g6
F26.899999999999999
sg7
F0
sg8
F26.850000000000001
sg9
F5
sg10
F26.899999999999999
saa(lp356
V094757
p357
a(dp358
g6
F26.899999999999999
sg7
F0
sg8
F26.850000000000001
sg9
F3
sg10
F26.899999999999999
saa(lp359
V094812
p360
a(dp361
g6
F26.899999999999999
sg7
F0
sg8
F26.850000000000001
sg9
F3
sg10
F26.899999999999999
saa(lp362
V094817
p363
a(dp364
g6
F26.899999999999999
sg7
F0
sg8
F26.850000000000001
sg9
F2
sg10
F26.899999999999999
saa(lp365
V094928
p366
a(dp367
g6
F26.949999999999999
sg7
F0.050000000000000003
sg8
F26.899999999999999
sg9
F1
sg10
F26.949999999999999
saa(lp368
V095024
p369
a(dp370
g6
F26.949999999999999
sg7
F0
sg8
F26.899999999999999
sg9
F1
sg10
F26.899999999999999
saa(lp371
V095219
p372
a(dp373
g6
F26.949999999999999
sg7
F0
sg8
F26.899999999999999
sg9
F1
sg10
F26.899999999999999
saa(lp374
V095254
p375
a(dp376
g6
F26.949999999999999
sg7
F0
sg8
F26.899999999999999
sg9
F9
sg10
F26.899999999999999
saa(lp377
V095344
p378
a(dp379
g6
F26.899999999999999
sg7
F0
sg8
F26.850000000000001
sg9
F1
sg10
F26.899999999999999
saa(lp380
V095645
p381
a(dp382
g6
F26.949999999999999
sg7
F0
sg8
F26.899999999999999
sg9
F1
sg10
F26.899999999999999
saa(lp383
V100006
p384
a(dp385
g6
F26.949999999999999
sg7
F0
sg8
F26.899999999999999
sg9
F7
sg10
F26.899999999999999
saa(lp386
V100011
p387
a(dp388
g6
F26.899999999999999
sg7
F0
sg8
F26.850000000000001
sg9
F1
sg10
F26.899999999999999
saa(lp389
V100016
p390
a(dp391
g6
F26.899999999999999
sg7
F-0.050000000000000003
sg8
F26.850000000000001
sg9
F2
sg10
F26.850000000000001
saa(lp392
V100046
p393
a(dp394
g6
F26.899999999999999
sg7
F-0.050000000000000003
sg8
F26.850000000000001
sg9
F10
sg10
F26.850000000000001
saa(lp395
V100116
p396
a(dp397
g6
F26.899999999999999
sg7
F-0.050000000000000003
sg8
F26.850000000000001
sg9
F1
sg10
F26.850000000000001
saa(lp398
V100217
p399
a(dp400
g6
F26.899999999999999
sg7
F0
sg8
F26.850000000000001
sg9
F2
sg10
F26.899999999999999
saa(lp401
V100227
p402
a(dp403
g6
F26.899999999999999
sg7
F0
sg8
F26.850000000000001
sg9
F1
sg10
F26.899999999999999
saa(lp404
V100557
p405
a(dp406
g6
F26.899999999999999
sg7
F0
sg8
F26.850000000000001
sg9
F1
sg10
F26.899999999999999
saa(lp407
V100653
p408
a(dp409
g6
F26.899999999999999
sg7
F0
sg8
F26.850000000000001
sg9
F1
sg10
F26.899999999999999
saa(lp410
V100743
p411
a(dp412
g6
F26.899999999999999
sg7
F-0.050000000000000003
sg8
F26.850000000000001
sg9
F2
sg10
F26.850000000000001
saa(lp413
V100828
p414
a(dp415
g6
F26.899999999999999
sg7
F-0.050000000000000003
sg8
F26.850000000000001
sg9
F1
sg10
F26.850000000000001
saa(lp416
V100858
p417
a(dp418
g6
F26.899999999999999
sg7
F-0.050000000000000003
sg8
F26.850000000000001
sg9
F1
sg10
F26.850000000000001
saa(lp419
V101144
p420
a(dp421
g6
F26.899999999999999
sg7
F-0.050000000000000003
sg8
F26.850000000000001
sg9
F1
sg10
F26.850000000000001
saa(lp422
V101149
p423
a(dp424
g6
F26.899999999999999
sg7
F-0.050000000000000003
sg8
F26.850000000000001
sg9
F1
sg10
F26.850000000000001
saa(lp425
V101154
p426
a(dp427
g6
F26.899999999999999
sg7
F-0.050000000000000003
sg8
F26.850000000000001
sg9
F1
sg10
F26.850000000000001
saa(lp428
V101245
p429
a(dp430
g6
F26.899999999999999
sg7
F0
sg8
F26.850000000000001
sg9
F8
sg10
F26.899999999999999
saa(lp431
V101335
p432
a(dp433
g6
F26.899999999999999
sg7
F-0.050000000000000003
sg8
F26.850000000000001
sg9
F1
sg10
F26.850000000000001
saa(lp434
V101500
p435
a(dp436
g6
F26.899999999999999
sg7
F0
sg8
F26.850000000000001
sg9
F1
sg10
F26.899999999999999
saa(lp437
V101610
p438
a(dp439
g6
F26.899999999999999
sg7
F-0.050000000000000003
sg8
F26.850000000000001
sg9
F1
sg10
F26.850000000000001
saa(lp440
V101741
p441
a(dp442
g6
F26.899999999999999
sg7
F-0.050000000000000003
sg8
F26.850000000000001
sg9
F2
sg10
F26.850000000000001
saa(lp443
V101746
p444
a(dp445
g6
F26.899999999999999
sg7
F0
sg8
F26.850000000000001
sg9
F4
sg10
F26.899999999999999
saa(lp446
V101826
p447
a(dp448
g6
F26.899999999999999
sg7
F0
sg8
F26.850000000000001
sg9
F3
sg10
F26.899999999999999
saa(lp449
V101856
p450
a(dp451
g6
F26.899999999999999
sg7
F0
sg8
F26.850000000000001
sg9
F5
sg10
F26.899999999999999
saa(lp452
V101906
p453
a(dp454
g6
F26.899999999999999
sg7
F0
sg8
F26.850000000000001
sg9
F5
sg10
F26.899999999999999
saa(lp455
V101931
p456
a(dp457
g6
F26.899999999999999
sg7
F0
sg8
F26.850000000000001
sg9
F1
sg10
F26.899999999999999
saa(lp458
V101956
p459
a(dp460
g6
F26.899999999999999
sg7
F0
sg8
F26.850000000000001
sg9
F30
sg10
F26.899999999999999
saa(lp461
V102022
p462
a(dp463
g6
F26.899999999999999
sg7
F0
sg8
F26.850000000000001
sg9
F2
sg10
F26.899999999999999
saa(lp464
V102027
p465
a(dp466
g6
F26.899999999999999
sg7
F0
sg8
F26.850000000000001
sg9
F5
sg10
F26.899999999999999
saa(lp467
V102032
p468
a(dp469
g6
F26.899999999999999
sg7
F0
sg8
F26.850000000000001
sg9
F7
sg10
F26.899999999999999
saa(lp470
V102157
p471
a(dp472
g6
F26.949999999999999
sg7
F0.050000000000000003
sg8
F26.899999999999999
sg9
F5
sg10
F26.949999999999999
saa(lp473
V102207
p474
a(dp475
g6
F26.949999999999999
sg7
F0.050000000000000003
sg8
F26.899999999999999
sg9
F2
sg10
F26.949999999999999
saa(lp476
V102212
p477
a(dp478
g6
F26.949999999999999
sg7
F0
sg8
F26.899999999999999
sg9
F1
sg10
F26.899999999999999
saa(lp479
V102237
p480
a(dp481
g6
F26.949999999999999
sg7
F0.050000000000000003
sg8
F26.899999999999999
sg9
F11
sg10
F26.949999999999999
saa(lp482
V102302
p483
a(dp484
g6
F27
sg7
F0.10000000000000001
sg8
F26.949999999999999
sg9
F20
sg10
F27
saa(lp485
V102312
p486
a(dp487
g6
F27
sg7
F0.10000000000000001
sg8
F26.949999999999999
sg9
F11
sg10
F27
saa(lp488
V102317
p489
a(dp490
g6
F27
sg7
F0.10000000000000001
sg8
F26.949999999999999
sg9
F1
sg10
F27
saa(lp491
V102333
p492
a(dp493
g6
F27
sg7
F0.10000000000000001
sg8
F26.949999999999999
sg9
F5
sg10
F27
saa(lp494
V102348
p495
a(dp496
g6
F27
sg7
F0.10000000000000001
sg8
F26.949999999999999
sg9
F1
sg10
F27
saa(lp497
V102528
p498
a(dp499
g6
F27
sg7
F0.10000000000000001
sg8
F26.949999999999999
sg9
F1
sg10
F27
saa(lp500
V102533
p501
a(dp502
g6
F27
sg7
F0.10000000000000001
sg8
F26.949999999999999
sg9
F1
sg10
F27
saa(lp503
V102608
p504
a(dp505
g6
F27
sg7
F0.050000000000000003
sg8
F26.949999999999999
sg9
F9
sg10
F26.949999999999999
saa(lp506
V102929
p507
a(dp508
g6
F26.949999999999999
sg7
F0
sg8
F26.899999999999999
sg9
F5
sg10
F26.899999999999999
saa(lp509
V102939
p510
a(dp511
g6
F26.949999999999999
sg7
F0
sg8
F26.899999999999999
sg9
F5
sg10
F26.899999999999999
saa(lp512
V103035
p513
a(dp514
g6
F26.949999999999999
sg7
F0
sg8
F26.899999999999999
sg9
F5
sg10
F26.899999999999999
saa(lp515
V103120
p516
a(dp517
g6
F26.949999999999999
sg7
F0
sg8
F26.899999999999999
sg9
F1
sg10
F26.899999999999999
saa(lp518
V103210
p519
a(dp520
g6
F26.949999999999999
sg7
F0
sg8
F26.899999999999999
sg9
F1
sg10
F26.899999999999999
saa(lp521
V103215
p522
a(dp523
g6
F26.949999999999999
sg7
F0
sg8
F26.899999999999999
sg9
F5
sg10
F26.899999999999999
saa(lp524
V103310
p525
a(dp526
g6
F26.949999999999999
sg7
F0
sg8
F26.899999999999999
sg9
F5
sg10
F26.899999999999999
saa(lp527
V103345
p528
a(dp529
g6
F26.899999999999999
sg7
F0
sg8
F26.850000000000001
sg9
F15
sg10
F26.899999999999999
saa(lp530
V103400
p531
a(dp532
g6
F26.899999999999999
sg7
F0
sg8
F26.850000000000001
sg9
F2
sg10
F26.899999999999999
saa(lp533
V103410
p534
a(dp535
g6
F26.899999999999999
sg7
F0
sg8
F26.850000000000001
sg9
F4
sg10
F26.899999999999999
saa(lp536
V103505
p537
a(dp538
g6
F26.949999999999999
sg7
F0
sg8
F26.899999999999999
sg9
F2
sg10
F26.899999999999999
saa(lp539
V103531
p540
a(dp541
g6
F26.949999999999999
sg7
F0
sg8
F26.899999999999999
sg9
F3
sg10
F26.899999999999999
saa(lp542
V103536
p543
a(dp544
g6
F26.949999999999999
sg7
F0
sg8
F26.899999999999999
sg9
F8
sg10
F26.899999999999999
saa(lp545
V103626
p546
a(dp547
g6
F26.899999999999999
sg7
F0
sg8
F26.850000000000001
sg9
F1
sg10
F26.899999999999999
saa(lp548
V103636
p549
a(dp550
g6
F26.899999999999999
sg7
F-0.050000000000000003
sg8
F26.850000000000001
sg9
F4
sg10
F26.850000000000001
saa(lp551
V103811
p552
a(dp553
g6
F26.899999999999999
sg7
F-0.050000000000000003
sg8
F26.850000000000001
sg9
F3
sg10
F26.850000000000001
saa(lp554
V103942
p555
a(dp556
g6
F26.899999999999999
sg7
F-0.050000000000000003
sg8
F26.850000000000001
sg9
F1
sg10
F26.850000000000001
saa(lp557
V103952
p558
a(dp559
g6
F26.899999999999999
sg7
F-0.050000000000000003
sg8
F26.850000000000001
sg9
F4
sg10
F26.850000000000001
saa(lp560
V104012
p561
a(dp562
g6
F26.899999999999999
sg7
F0
sg8
F26.850000000000001
sg9
F2
sg10
F26.899999999999999
saa(lp563
V104037
p564
a(dp565
g6
F26.899999999999999
sg7
F0
sg8
F26.850000000000001
sg9
F4
sg10
F26.899999999999999
saa(lp566
V104042
p567
a(dp568
g6
F26.899999999999999
sg7
F-0.050000000000000003
sg8
F26.850000000000001
sg9
F3
sg10
F26.850000000000001
saa(lp569
V104113
p570
a(dp571
g6
F26.899999999999999
sg7
F0
sg8
F26.850000000000001
sg9
F1
sg10
F26.899999999999999
saa(lp572
V104153
p573
a(dp574
g6
F26.899999999999999
sg7
F0
sg8
F26.850000000000001
sg9
F5
sg10
F26.899999999999999
saa(lp575
V104233
p576
a(dp577
g6
F26.899999999999999
sg7
F-0.050000000000000003
sg8
F26.850000000000001
sg9
F1
sg10
F26.850000000000001
saa(lp578
V104243
p579
a(dp580
g6
F26.899999999999999
sg7
F-0.050000000000000003
sg8
F26.850000000000001
sg9
F1
sg10
F26.850000000000001
saa(lp581
V104543
p582
a(dp583
g6
F26.899999999999999
sg7
F-0.050000000000000003
sg8
F26.850000000000001
sg9
F1
sg10
F26.850000000000001
saa(lp584
V104704
p585
a(dp586
g6
F26.899999999999999
sg7
F-0.050000000000000003
sg8
F26.850000000000001
sg9
F1
sg10
F26.850000000000001
saa(lp587
V104749
p588
a(dp589
g6
F26.899999999999999
sg7
F-0.050000000000000003
sg8
F26.850000000000001
sg9
F1
sg10
F26.850000000000001
saa(lp590
V104834
p591
a(dp592
g6
F26.899999999999999
sg7
F-0.050000000000000003
sg8
F26.850000000000001
sg9
F1
sg10
F26.850000000000001
saa(lp593
V105246
p594
a(dp595
g6
F26.899999999999999
sg7
F-0.050000000000000003
sg8
F26.850000000000001
sg9
F2
sg10
F26.850000000000001
saa(lp596
V105251
p597
a(dp598
g6
F26.899999999999999
sg7
F-0.050000000000000003
sg8
F26.850000000000001
sg9
F1
sg10
F26.850000000000001
saa(lp599
V105331
p600
a(dp601
g6
F26.899999999999999
sg7
F-0.050000000000000003
sg8
F26.850000000000001
sg9
F5
sg10
F26.850000000000001
saa(lp602
V105431
p603
a(dp604
g6
F26.899999999999999
sg7
F0
sg8
F26.850000000000001
sg9
F1
sg10
F26.899999999999999
saa(lp605
V105516
p606
a(dp607
g6
F26.899999999999999
sg7
F-0.050000000000000003
sg8
F26.850000000000001
sg9
F1
sg10
F26.850000000000001
saa(lp608
V105521
p609
a(dp610
g6
F26.899999999999999
sg7
F0
sg8
F26.850000000000001
sg9
F5
sg10
F26.899999999999999
saa(lp611
V105536
p612
a(dp613
g6
F26.899999999999999
sg7
F0
sg8
F26.850000000000001
sg9
F1
sg10
F26.899999999999999
saa(lp614
V105812
p615
a(dp616
g6
F26.899999999999999
sg7
F0
sg8
F26.850000000000001
sg9
F1
sg10
F26.899999999999999
saa(lp617
V105907
p618
a(dp619
g6
F26.899999999999999
sg7
F0
sg8
F26.850000000000001
sg9
F1
sg10
F26.899999999999999
saa(lp620
V110002
p621
a(dp622
g6
F26.899999999999999
sg7
F0
sg8
F26.850000000000001
sg9
F5
sg10
F26.899999999999999
saa(lp623
V110013
p624
a(dp625
g6
F26.899999999999999
sg7
F0
sg8
F26.850000000000001
sg9
F2
sg10
F26.899999999999999
saa(lp626
V110018
p627
a(dp628
g6
F26.899999999999999
sg7
F0
sg8
F26.850000000000001
sg9
F5
sg10
F26.899999999999999
saa(lp629
V110038
p630
a(dp631
g6
F26.899999999999999
sg7
F0
sg8
F26.850000000000001
sg9
F7
sg10
F26.899999999999999
saa(lp632
V110043
p633
a(dp634
g6
F26.949999999999999
sg7
F0
sg8
F26.899999999999999
sg9
F2
sg10
F26.899999999999999
saa(lp635
V110058
p636
a(dp637
g6
F26.949999999999999
sg7
F0
sg8
F26.899999999999999
sg9
F1
sg10
F26.899999999999999
saa(lp638
V110404
p639
a(dp640
g6
F26.949999999999999
sg7
F0
sg8
F26.899999999999999
sg9
F7
sg10
F26.899999999999999
saa(lp641
V110414
p642
a(dp643
g6
F26.949999999999999
sg7
F-0.050000000000000003
sg8
F26.850000000000001
sg9
F1
sg10
F26.850000000000001
saa(lp644
V110454
p645
a(dp646
g6
F26.949999999999999
sg7
F0
sg8
F26.899999999999999
sg9
F5
sg10
F26.899999999999999
saa(lp647
V110604
p648
a(dp649
g6
F26.899999999999999
sg7
F-0.050000000000000003
sg8
F26.850000000000001
sg9
F4
sg10
F26.850000000000001
saa(lp650
V110649
p651
a(dp652
g6
F26.899999999999999
sg7
F-0.050000000000000003
sg8
F26.850000000000001
sg9
F6
sg10
F26.850000000000001
saa(lp653
V110709
p654
a(dp655
g6
F26.899999999999999
sg7
F-0.050000000000000003
sg8
F26.850000000000001
sg9
F1
sg10
F26.850000000000001
saa(lp656
V110830
p657
a(dp658
g6
F26.899999999999999
sg7
F0
sg8
F26.850000000000001
sg9
F1
sg10
F26.899999999999999
saa(lp659
V111056
p660
a(dp661
g6
F26.899999999999999
sg7
F0
sg8
F26.850000000000001
sg9
F1
sg10
F26.899999999999999
saa(lp662
V111401
p663
a(dp664
g6
F26.899999999999999
sg7
F-0.050000000000000003
sg8
F26.850000000000001
sg9
F1
sg10
F26.850000000000001
saa(lp665
V111512
p666
a(dp667
g6
F26.899999999999999
sg7
F0
sg8
F26.850000000000001
sg9
F5
sg10
F26.899999999999999
saa(lp668
V111537
p669
a(dp670
g6
F26.899999999999999
sg7
F0
sg8
F26.850000000000001
sg9
F1
sg10
F26.899999999999999
saa(lp671
V111547
p672
a(dp673
g6
F26.899999999999999
sg7
F-0.050000000000000003
sg8
F26.850000000000001
sg9
F5
sg10
F26.850000000000001
saa(lp674
V111602
p675
a(dp676
g6
F26.899999999999999
sg7
F0
sg8
F26.850000000000001
sg9
F1
sg10
F26.899999999999999
saa(lp677
V111607
p678
a(dp679
g6
F26.899999999999999
sg7
F-0.050000000000000003
sg8
F26.850000000000001
sg9
F2
sg10
F26.850000000000001
saa(lp680
V111617
p681
a(dp682
g6
F26.899999999999999
sg7
F0
sg8
F26.850000000000001
sg9
F5
sg10
F26.899999999999999
saa(lp683
V111657
p684
a(dp685
g6
F26.899999999999999
sg7
F0
sg8
F26.850000000000001
sg9
F1
sg10
F26.899999999999999
saa(lp686
V111802
p687
a(dp688
g6
F26.899999999999999
sg7
F0
sg8
F26.850000000000001
sg9
F9
sg10
F26.899999999999999
saa(lp689
V111817
p690
a(dp691
g6
F26.899999999999999
sg7
F0
sg8
F26.850000000000001
sg9
F1
sg10
F26.899999999999999
saa(lp692
V111833
p693
a(dp694
g6
F26.899999999999999
sg7
F0
sg8
F26.850000000000001
sg9
F1
sg10
F26.899999999999999
saa(lp695
V111923
p696
a(dp697
g6
F26.899999999999999
sg7
F0
sg8
F26.850000000000001
sg9
F1
sg10
F26.899999999999999
saa(lp698
V111948
p699
a(dp700
g6
F26.899999999999999
sg7
F0
sg8
F26.850000000000001
sg9
F2
sg10
F26.899999999999999
saa(lp701
V111953
p702
a(dp703
g6
F26.899999999999999
sg7
F0
sg8
F26.850000000000001
sg9
F3
sg10
F26.899999999999999
saa(lp704
V112018
p705
a(dp706
g6
F26.899999999999999
sg7
F0
sg8
F26.850000000000001
sg9
F3
sg10
F26.899999999999999
saa(lp707
V112028
p708
a(dp709
g6
F26.899999999999999
sg7
F0
sg8
F26.850000000000001
sg9
F1
sg10
F26.899999999999999
saa(lp710
V112139
p711
a(dp712
g6
F26.899999999999999
sg7
F0
sg8
F26.850000000000001
sg9
F6
sg10
F26.899999999999999
saa(lp713
V112229
p714
a(dp715
g6
F26.899999999999999
sg7
F-0.050000000000000003
sg8
F26.850000000000001
sg9
F10
sg10
F26.850000000000001
saa(lp716
V112600
p717
a(dp718
g6
F26.899999999999999
sg7
F-0.050000000000000003
sg8
F26.850000000000001
sg9
F4
sg10
F26.850000000000001
saa(lp719
V112605
p720
a(dp721
g6
F26.899999999999999
sg7
F-0.050000000000000003
sg8
F26.850000000000001
sg9
F1
sg10
F26.850000000000001
saa(lp722
V112615
p723
a(dp724
g6
F26.899999999999999
sg7
F0
sg8
F26.850000000000001
sg9
F3
sg10
F26.899999999999999
saa(lp725
V112755
p726
a(dp727
g6
F26.899999999999999
sg7
F0
sg8
F26.850000000000001
sg9
F2
sg10
F26.899999999999999
saa(lp728
V112805
p729
a(dp730
g6
F26.899999999999999
sg7
F0
sg8
F26.850000000000001
sg9
F1
sg10
F26.899999999999999
saa(lp731
V112900
p732
a(dp733
g6
F26.899999999999999
sg7
F0
sg8
F26.850000000000001
sg9
F1
sg10
F26.899999999999999
saa(lp734
V112930
p735
a(dp736
g6
F26.899999999999999
sg7
F-0.050000000000000003
sg8
F26.850000000000001
sg9
F1
sg10
F26.850000000000001
saa(lp737
V113121
p738
a(dp739
g6
F26.899999999999999
sg7
F-0.050000000000000003
sg8
F26.850000000000001
sg9
F20
sg10
F26.850000000000001
saa(lp740
V113131
p741
a(dp742
g6
F26.899999999999999
sg7
F-0.050000000000000003
sg8
F26.850000000000001
sg9
F2
sg10
F26.850000000000001
saa(lp743
V113156
p744
a(dp745
g6
F26.899999999999999
sg7
F-0.050000000000000003
sg8
F26.850000000000001
sg9
F1
sg10
F26.850000000000001
saa(lp746
V113217
p747
a(dp748
g6
F26.899999999999999
sg7
F-0.050000000000000003
sg8
F26.850000000000001
sg9
F5
sg10
F26.850000000000001
saa(lp749
V113232
p750
a(dp751
g6
F26.899999999999999
sg7
F0
sg8
F26.850000000000001
sg9
F2
sg10
F26.899999999999999
saa(lp752
V113307
p753
a(dp754
g6
F26.899999999999999
sg7
F0
sg8
F26.850000000000001
sg9
F2
sg10
F26.899999999999999
saa(lp755
V113327
p756
a(dp757
g6
F26.899999999999999
sg7
F-0.050000000000000003
sg8
F26.850000000000001
sg9
F2
sg10
F26.850000000000001
saa(lp758
V113352
p759
a(dp760
g6
F26.899999999999999
sg7
F0
sg8
F26.850000000000001
sg9
F2
sg10
F26.899999999999999
saa(lp761
V113648
p762
a(dp763
g6
F26.899999999999999
sg7
F0
sg8
F26.850000000000001
sg9
F2
sg10
F26.899999999999999
saa(lp764
V113828
p765
a(dp766
g6
F26.899999999999999
sg7
F-0.050000000000000003
sg8
F26.850000000000001
sg9
F2
sg10
F26.850000000000001
saa(lp767
V113908
p768
a(dp769
g6
F26.899999999999999
sg7
F-0.050000000000000003
sg8
F26.850000000000001
sg9
F1
sg10
F26.850000000000001
saa(lp770
V113918
p771
a(dp772
g6
F26.899999999999999
sg7
F0
sg8
F26.850000000000001
sg9
F3
sg10
F26.899999999999999
saa(lp773
V113928
p774
a(dp775
g6
F26.899999999999999
sg7
F-0.050000000000000003
sg8
F26.850000000000001
sg9
F5
sg10
F26.850000000000001
saa(lp776
V114029
p777
a(dp778
g6
F26.899999999999999
sg7
F-0.050000000000000003
sg8
F26.850000000000001
sg9
F1
sg10
F26.850000000000001
saa(lp779
V114139
p780
a(dp781
g6
F26.899999999999999
sg7
F-0.050000000000000003
sg8
F26.850000000000001
sg9
F2
sg10
F26.850000000000001
saa(lp782
V114154
p783
a(dp784
g6
F26.899999999999999
sg7
F-0.050000000000000003
sg8
F26.850000000000001
sg9
F1
sg10
F26.850000000000001
saa(lp785
V114244
p786
a(dp787
g6
F26.899999999999999
sg7
F-0.050000000000000003
sg8
F26.850000000000001
sg9
F10
sg10
F26.850000000000001
saa(lp788
V114249
p789
a(dp790
g6
F26.899999999999999
sg7
F0
sg8
F26.850000000000001
sg9
F5
sg10
F26.899999999999999
saa(lp791
V114254
p792
a(dp793
g6
F26.899999999999999
sg7
F-0.050000000000000003
sg8
F26.850000000000001
sg9
F2
sg10
F26.850000000000001
saa(lp794
V114414
p795
a(dp796
g6
F26.899999999999999
sg7
F0
sg8
F26.850000000000001
sg9
F14
sg10
F26.899999999999999
saa(lp797
V114420
p798
a(dp799
g6
F26.899999999999999
sg7
F-0.050000000000000003
sg8
F26.850000000000001
sg9
F5
sg10
F26.850000000000001
saa(lp800
V114610
p801
a(dp802
g6
F26.899999999999999
sg7
F-0.050000000000000003
sg8
F26.850000000000001
sg9
F1
sg10
F26.850000000000001
saa(lp803
V114715
p804
a(dp805
g6
F26.899999999999999
sg7
F-0.050000000000000003
sg8
F26.850000000000001
sg9
F1
sg10
F26.850000000000001
saa(lp806
V114856
p807
a(dp808
g6
F26.899999999999999
sg7
F-0.050000000000000003
sg8
F26.850000000000001
sg9
F5
sg10
F26.850000000000001
saa(lp809
V115001
p810
a(dp811
g6
F26.899999999999999
sg7
F-0.050000000000000003
sg8
F26.850000000000001
sg9
F5
sg10
F26.850000000000001
saa(lp812
V115006
p813
a(dp814
g6
F26.899999999999999
sg7
F-0.050000000000000003
sg8
F26.850000000000001
sg9
F1
sg10
F26.850000000000001
saa(lp815
V115011
p816
a(dp817
g6
F26.899999999999999
sg7
F-0.050000000000000003
sg8
F26.850000000000001
sg9
F1
sg10
F26.850000000000001
saa(lp818
V115032
p819
a(dp820
g6
F26.899999999999999
sg7
F-0.050000000000000003
sg8
F26.850000000000001
sg9
F6
sg10
F26.850000000000001
saa(lp821
V115127
p822
a(dp823
g6
F26.899999999999999
sg7
F-0.050000000000000003
sg8
F26.850000000000001
sg9
F1
sg10
F26.850000000000001
saa(lp824
V115142
p825
a(dp826
g6
F26.899999999999999
sg7
F-0.050000000000000003
sg8
F26.850000000000001
sg9
F60
sg10
F26.850000000000001
saa(lp827
V115147
p828
a(dp829
g6
F26.899999999999999
sg7
F-0.050000000000000003
sg8
F26.850000000000001
sg9
F7
sg10
F26.850000000000001
saa(lp830
V115152
p831
a(dp832
g6
F26.850000000000001
sg7
F-0.10000000000000001
sg8
F26.800000000000001
sg9
F2
sg10
F26.800000000000001
saa(lp833
V115157
p834
a(dp835
g6
F26.850000000000001
sg7
F-0.050000000000000003
sg8
F26.800000000000001
sg9
F2
sg10
F26.850000000000001
saa(lp836
V115222
p837
a(dp838
g6
F26.850000000000001
sg7
F-0.050000000000000003
sg8
F26.800000000000001
sg9
F2
sg10
F26.850000000000001
saa(lp839
V115232
p840
a(dp841
g6
F26.850000000000001
sg7
F-0.050000000000000003
sg8
F26.800000000000001
sg9
F1
sg10
F26.850000000000001
saa(lp842
V115317
p843
a(dp844
g6
F26.850000000000001
sg7
F-0.050000000000000003
sg8
F26.800000000000001
sg9
F2
sg10
F26.850000000000001
saa(lp845
V115412
p846
a(dp847
g6
F26.850000000000001
sg7
F-0.050000000000000003
sg8
F26.800000000000001
sg9
F8
sg10
F26.850000000000001
saa(lp848
V115417
p849
a(dp850
g6
F26.850000000000001
sg7
F-0.050000000000000003
sg8
F26.800000000000001
sg9
F1
sg10
F26.850000000000001
saa(lp851
V115437
p852
a(dp853
g6
F26.850000000000001
sg7
F-0.050000000000000003
sg8
F26.800000000000001
sg9
F1
sg10
F26.850000000000001
saa(lp854
V115502
p855
a(dp856
g6
F26.850000000000001
sg7
F-0.050000000000000003
sg8
F26.800000000000001
sg9
F2
sg10
F26.850000000000001
saa(lp857
V115758
p858
a(dp859
g6
F26.899999999999999
sg7
F-0.050000000000000003
sg8
F26.850000000000001
sg9
F5
sg10
F26.850000000000001
saa(lp860
V115803
p861
a(dp862
g6
F26.850000000000001
sg7
F-0.050000000000000003
sg8
F26.800000000000001
sg9
F1
sg10
F26.850000000000001
saa(lp863
V120059
p864
a(dp865
g6
F26.899999999999999
sg7
F0
sg8
F26.850000000000001
sg9
F4
sg10
F26.899999999999999
saa(lp866
V120525
p867
a(dp868
g6
F26.899999999999999
sg7
F0
sg8
F26.850000000000001
sg9
F5
sg10
F26.899999999999999
saa(lp869
V120550
p870
a(dp871
g6
F26.899999999999999
sg7
F-0.050000000000000003
sg8
F26.850000000000001
sg9
F3
sg10
F26.850000000000001
saa(lp872
V120600
p873
a(dp874
g6
F26.899999999999999
sg7
F0
sg8
F26.850000000000001
sg9
F3
sg10
F26.899999999999999
saa(lp875
V120610
p876
a(dp877
g6
F26.899999999999999
sg7
F0
sg8
F26.850000000000001
sg9
F3
sg10
F26.899999999999999
saa(lp878
V120621
p879
a(dp880
g6
F26.899999999999999
sg7
F-0.050000000000000003
sg8
F26.850000000000001
sg9
F1
sg10
F26.850000000000001
saa(lp881
V120701
p882
a(dp883
g6
F26.899999999999999
sg7
F-0.050000000000000003
sg8
F26.850000000000001
sg9
F2
sg10
F26.850000000000001
saa(lp884
V120846
p885
a(dp886
g6
F26.899999999999999
sg7
F-0.050000000000000003
sg8
F26.850000000000001
sg9
F2
sg10
F26.850000000000001
saa(lp887
V121012
p888
a(dp889
g6
F26.899999999999999
sg7
F-0.050000000000000003
sg8
F26.850000000000001
sg9
F8
sg10
F26.850000000000001
saa(lp890
V121057
p891
a(dp892
g6
F26.899999999999999
sg7
F-0.050000000000000003
sg8
F26.850000000000001
sg9
F3
sg10
F26.850000000000001
saa(lp893
V121142
p894
a(dp895
g6
F26.899999999999999
sg7
F0
sg8
F26.850000000000001
sg9
F1
sg10
F26.899999999999999
saa(lp896
V121237
p897
a(dp898
g6
F26.899999999999999
sg7
F-0.050000000000000003
sg8
F26.850000000000001
sg9
F1
sg10
F26.850000000000001
saa(lp899
V121243
p900
a(dp901
g6
F26.899999999999999
sg7
F-0.050000000000000003
sg8
F26.850000000000001
sg9
F1
sg10
F26.850000000000001
saa(lp902
V121258
p903
a(dp904
g6
F26.899999999999999
sg7
F-0.050000000000000003
sg8
F26.850000000000001
sg9
F1
sg10
F26.850000000000001
saa(lp905
V121318
p906
a(dp907
g6
F26.899999999999999
sg7
F-0.050000000000000003
sg8
F26.850000000000001
sg9
F1
sg10
F26.850000000000001
saa(lp908
V121428
p909
a(dp910
g6
F26.899999999999999
sg7
F-0.050000000000000003
sg8
F26.850000000000001
sg9
F1
sg10
F26.850000000000001
saa(lp911
V121714
p912
a(dp913
g6
F26.899999999999999
sg7
F-0.050000000000000003
sg8
F26.850000000000001
sg9
F1
sg10
F26.850000000000001
saa(lp914
V121829
p915
a(dp916
g6
F26.899999999999999
sg7
F-0.050000000000000003
sg8
F26.850000000000001
sg9
F2
sg10
F26.850000000000001
saa(lp917
V122125
p918
a(dp919
g6
F26.899999999999999
sg7
F-0.050000000000000003
sg8
F26.850000000000001
sg9
F1
sg10
F26.850000000000001
saa(lp920
V122356
p921
a(dp922
g6
F26.899999999999999
sg7
F-0.050000000000000003
sg8
F26.850000000000001
sg9
F2
sg10
F26.850000000000001
saa(lp923
V122446
p924
a(dp925
g6
F26.899999999999999
sg7
F-0.050000000000000003
sg8
F26.850000000000001
sg9
F1
sg10
F26.850000000000001
saa(lp926
V122716
p927
a(dp928
g6
F26.899999999999999
sg7
F-0.050000000000000003
sg8
F26.850000000000001
sg9
F10
sg10
F26.850000000000001
saa(lp929
V122741
p930
a(dp931
g6
F26.899999999999999
sg7
F-0.050000000000000003
sg8
F26.850000000000001
sg9
F2
sg10
F26.850000000000001
saa(lp932
V122912
p933
a(dp934
g6
F26.899999999999999
sg7
F-0.050000000000000003
sg8
F26.850000000000001
sg9
F2
sg10
F26.850000000000001
saa(lp935
V122922
p936
a(dp937
g6
F26.899999999999999
sg7
F-0.050000000000000003
sg8
F26.850000000000001
sg9
F10
sg10
F26.850000000000001
saa(lp938
V123012
p939
a(dp940
g6
F26.899999999999999
sg7
F-0.050000000000000003
sg8
F26.850000000000001
sg9
F1
sg10
F26.850000000000001
saa(lp941
V123023
p942
a(dp943
g6
F26.899999999999999
sg7
F-0.050000000000000003
sg8
F26.850000000000001
sg9
F1
sg10
F26.850000000000001
saa(lp944
V123028
p945
a(dp946
g6
F26.899999999999999
sg7
F-0.050000000000000003
sg8
F26.850000000000001
sg9
F1
sg10
F26.850000000000001
saa(lp947
V123038
p948
a(dp949
g6
F26.899999999999999
sg7
F-0.050000000000000003
sg8
F26.850000000000001
sg9
F20
sg10
F26.850000000000001
saa(lp950
V123043
p951
a(dp952
g6
F26.899999999999999
sg7
F-0.050000000000000003
sg8
F26.850000000000001
sg9
F23
sg10
F26.850000000000001
saa(lp953
V123048
p954
a(dp955
g6
F26.899999999999999
sg7
F-0.050000000000000003
sg8
F26.850000000000001
sg9
F2
sg10
F26.850000000000001
saa(lp956
V123053
p957
a(dp958
g6
F26.899999999999999
sg7
F-0.050000000000000003
sg8
F26.850000000000001
sg9
F2
sg10
F26.850000000000001
saa(lp959
V123303
p960
a(dp961
g6
F26.899999999999999
sg7
F-0.050000000000000003
sg8
F26.850000000000001
sg9
F1
sg10
F26.850000000000001
saa(lp962
V123348
p963
a(dp964
g6
F26.899999999999999
sg7
F-0.050000000000000003
sg8
F26.850000000000001
sg9
F1
sg10
F26.850000000000001
saa(lp965
V123609
p966
a(dp967
g6
F26.899999999999999
sg7
F-0.050000000000000003
sg8
F26.850000000000001
sg9
F3
sg10
F26.850000000000001
saa(lp968
V123714
p969
a(dp970
g6
F26.899999999999999
sg7
F-0.050000000000000003
sg8
F26.850000000000001
sg9
F1
sg10
F26.850000000000001
saa(lp971
V123719
p972
a(dp973
g6
F26.899999999999999
sg7
F0
sg8
F26.850000000000001
sg9
F3
sg10
F26.899999999999999
saa(lp974
V123734
p975
a(dp976
g6
F26.899999999999999
sg7
F-0.050000000000000003
sg8
F26.850000000000001
sg9
F1
sg10
F26.850000000000001
saa(lp977
V123950
p978
a(dp979
g6
F26.899999999999999
sg7
F0
sg8
F26.850000000000001
sg9
F1
sg10
F26.899999999999999
saa(lp980
V124000
p981
a(dp982
g6
F26.899999999999999
sg7
F-0.050000000000000003
sg8
F26.850000000000001
sg9
F1
sg10
F26.850000000000001
saa(lp983
V124021
p984
a(dp985
g6
F26.899999999999999
sg7
F-0.050000000000000003
sg8
F26.850000000000001
sg9
F1
sg10
F26.850000000000001
saa(lp986
V124031
p987
a(dp988
g6
F26.899999999999999
sg7
F-0.050000000000000003
sg8
F26.850000000000001
sg9
F10
sg10
F26.850000000000001
saa(lp989
V124111
p990
a(dp991
g6
F26.899999999999999
sg7
F-0.050000000000000003
sg8
F26.850000000000001
sg9
F10
sg10
F26.850000000000001
saa(lp992
V124146
p993
a(dp994
g6
F26.899999999999999
sg7
F-0.050000000000000003
sg8
F26.850000000000001
sg9
F10
sg10
F26.850000000000001
saa(lp995
V124201
p996
a(dp997
g6
F26.899999999999999
sg7
F-0.050000000000000003
sg8
F26.850000000000001
sg9
F2
sg10
F26.850000000000001
saa(lp998
V124321
p999
a(dp1000
g6
F26.899999999999999
sg7
F-0.050000000000000003
sg8
F26.850000000000001
sg9
F3
sg10
F26.850000000000001
saa(lp1001
V124336
p1002
a(dp1003
g6
F26.899999999999999
sg7
F0
sg8
F26.850000000000001
sg9
F2
sg10
F26.899999999999999
saa(lp1004
V124527
p1005
a(dp1006
g6
F26.899999999999999
sg7
F-0.050000000000000003
sg8
F26.850000000000001
sg9
F6
sg10
F26.850000000000001
saa(lp1007
V124532
p1008
a(dp1009
g6
F26.899999999999999
sg7
F-0.050000000000000003
sg8
F26.850000000000001
sg9
F3
sg10
F26.850000000000001
saa(lp1010
V124537
p1011
a(dp1012
g6
F26.899999999999999
sg7
F-0.050000000000000003
sg8
F26.850000000000001
sg9
F5
sg10
F26.850000000000001
saa(lp1013
V124602
p1014
a(dp1015
g6
F26.899999999999999
sg7
F-0.050000000000000003
sg8
F26.850000000000001
sg9
F10
sg10
F26.850000000000001
saa(lp1016
V124617
p1017
a(dp1018
g6
F26.899999999999999
sg7
F-0.050000000000000003
sg8
F26.850000000000001
sg9
F12
sg10
F26.850000000000001
saa(lp1019
V124637
p1020
a(dp1021
g6
F26.899999999999999
sg7
F-0.050000000000000003
sg8
F26.850000000000001
sg9
F1
sg10
F26.850000000000001
saa(lp1022
V124707
p1023
a(dp1024
g6
F26.899999999999999
sg7
F-0.050000000000000003
sg8
F26.850000000000001
sg9
F5
sg10
F26.850000000000001
saa(lp1025
V124727
p1026
a(dp1027
g6
F26.899999999999999
sg7
F-0.050000000000000003
sg8
F26.850000000000001
sg9
F9
sg10
F26.850000000000001
saa(lp1028
V124747
p1029
a(dp1030
g6
F26.850000000000001
sg7
F-0.10000000000000001
sg8
F26.800000000000001
sg9
F1
sg10
F26.800000000000001
saa(lp1031
V124817
p1032
a(dp1033
g6
F26.850000000000001
sg7
F-0.050000000000000003
sg8
F26.800000000000001
sg9
F3
sg10
F26.850000000000001
saa(lp1034
V124832
p1035
a(dp1036
g6
F26.850000000000001
sg7
F-0.050000000000000003
sg8
F26.800000000000001
sg9
F1
sg10
F26.850000000000001
saa(lp1037
V124847
p1038
a(dp1039
g6
F26.850000000000001
sg7
F-0.050000000000000003
sg8
F26.800000000000001
sg9
F10
sg10
F26.850000000000001
saa(lp1040
V124857
p1041
a(dp1042
g6
F26.850000000000001
sg7
F-0.050000000000000003
sg8
F26.800000000000001
sg9
F4
sg10
F26.850000000000001
saa(lp1043
V125113
p1044
a(dp1045
g6
F26.899999999999999
sg7
F-0.050000000000000003
sg8
F26.850000000000001
sg9
F2
sg10
F26.850000000000001
saa(lp1046
V125208
p1047
a(dp1048
g6
F26.899999999999999
sg7
F-0.050000000000000003
sg8
F26.850000000000001
sg9
F2
sg10
F26.850000000000001
saa(lp1049
V125219
p1050
a(dp1051
g6
F26.899999999999999
sg7
F-0.050000000000000003
sg8
F26.850000000000001
sg9
F17
sg10
F26.850000000000001
saa(lp1052
V125224
p1053
a(dp1054
g6
F26.850000000000001
sg7
F-0.10000000000000001
sg8
F26.800000000000001
sg9
F1
sg10
F26.800000000000001
saa(lp1055
V125259
p1056
a(dp1057
g6
F26.850000000000001
sg7
F-0.050000000000000003
sg8
F26.800000000000001
sg9
F5
sg10
F26.850000000000001
saa(lp1058
V125314
p1059
a(dp1060
g6
F26.850000000000001
sg7
F-0.050000000000000003
sg8
F26.800000000000001
sg9
F2
sg10
F26.850000000000001
saa(lp1061
V125319
p1062
a(dp1063
g6
F26.850000000000001
sg7
F-0.050000000000000003
sg8
F26.800000000000001
sg9
F1
sg10
F26.850000000000001
saa(lp1064
V125334
p1065
a(dp1066
g6
F26.850000000000001
sg7
F-0.050000000000000003
sg8
F26.800000000000001
sg9
F1
sg10
F26.850000000000001
saa(lp1067
V125339
p1068
a(dp1069
g6
F26.850000000000001
sg7
F-0.050000000000000003
sg8
F26.800000000000001
sg9
F1
sg10
F26.850000000000001
saa(lp1070
V125404
p1071
a(dp1072
g6
F26.850000000000001
sg7
F-0.050000000000000003
sg8
F26.800000000000001
sg9
F1
sg10
F26.850000000000001
saa(lp1073
V125419
p1074
a(dp1075
g6
F26.850000000000001
sg7
F-0.050000000000000003
sg8
F26.800000000000001
sg9
F1
sg10
F26.850000000000001
saa(lp1076
V125444
p1077
a(dp1078
g6
F26.850000000000001
sg7
F-0.050000000000000003
sg8
F26.800000000000001
sg9
F1
sg10
F26.850000000000001
saa(lp1079
V125529
p1080
a(dp1081
g6
F26.850000000000001
sg7
F-0.10000000000000001
sg8
F26.800000000000001
sg9
F1
sg10
F26.800000000000001
saa(lp1082
V125559
p1083
a(dp1084
g6
F26.850000000000001
sg7
F-0.10000000000000001
sg8
F26.800000000000001
sg9
F1
sg10
F26.800000000000001
saa(lp1085
V125614
p1086
a(dp1087
g6
F26.850000000000001
sg7
F-0.10000000000000001
sg8
F26.800000000000001
sg9
F4
sg10
F26.800000000000001
saa(lp1088
V125725
p1089
a(dp1090
g6
F26.850000000000001
sg7
F-0.10000000000000001
sg8
F26.800000000000001
sg9
F3
sg10
F26.800000000000001
saa(lp1091
V125735
p1092
a(dp1093
g6
F26.850000000000001
sg7
F-0.050000000000000003
sg8
F26.800000000000001
sg9
F2
sg10
F26.850000000000001
saa(lp1094
V125740
p1095
a(dp1096
g6
F26.850000000000001
sg7
F-0.10000000000000001
sg8
F26.800000000000001
sg9
F2
sg10
F26.800000000000001
saa(lp1097
V125755
p1098
a(dp1099
g6
F26.850000000000001
sg7
F-0.10000000000000001
sg8
F26.800000000000001
sg9
F3
sg10
F26.800000000000001
saa(lp1100
V125810
p1101
a(dp1102
g6
F26.850000000000001
sg7
F-0.10000000000000001
sg8
F26.800000000000001
sg9
F5
sg10
F26.800000000000001
saa(lp1103
V125840
p1104
a(dp1105
g6
F26.850000000000001
sg7
F-0.050000000000000003
sg8
F26.800000000000001
sg9
F1
sg10
F26.850000000000001
saa(lp1106
V125900
p1107
a(dp1108
g6
F26.850000000000001
sg7
F-0.050000000000000003
sg8
F26.800000000000001
sg9
F3
sg10
F26.850000000000001
saa(lp1109
V125910
p1110
a(dp1111
g6
F26.850000000000001
sg7
F-0.10000000000000001
sg8
F26.800000000000001
sg9
F5
sg10
F26.800000000000001
saa(lp1112
V125915
p1113
a(dp1114
g6
F26.850000000000001
sg7
F-0.10000000000000001
sg8
F26.800000000000001
sg9
F1
sg10
F26.800000000000001
saa(lp1115
V130011
p1116
a(dp1117
g6
F26.850000000000001
sg7
F-0.050000000000000003
sg8
F26.800000000000001
sg9
F5
sg10
F26.850000000000001
saa(lp1118
V130031
p1119
a(dp1120
g6
F26.850000000000001
sg7
F-0.050000000000000003
sg8
F26.800000000000001
sg9
F1
sg10
F26.850000000000001
saa(lp1121
V130056
p1122
a(dp1123
g6
F26.850000000000001
sg7
F-0.050000000000000003
sg8
F26.800000000000001
sg9
F2
sg10
F26.850000000000001
saa(lp1124
V130101
p1125
a(dp1126
g6
F26.850000000000001
sg7
F-0.050000000000000003
sg8
F26.800000000000001
sg9
F1
sg10
F26.850000000000001
saa(lp1127
V130126
p1128
a(dp1129
g6
F26.850000000000001
sg7
F-0.10000000000000001
sg8
F26.800000000000001
sg9
F6
sg10
F26.800000000000001
saa(lp1130
V130317
p1131
a(dp1132
g6
F26.850000000000001
sg7
F-0.10000000000000001
sg8
F26.800000000000001
sg9
F1
sg10
F26.800000000000001
saa(lp1133
V130322
p1134
a(dp1135
g6
F26.850000000000001
sg7
F-0.10000000000000001
sg8
F26.800000000000001
sg9
F1
sg10
F26.800000000000001
saa(lp1136
V130332
p1137
a(dp1138
g6
F26.850000000000001
sg7
F-0.10000000000000001
sg8
F26.800000000000001
sg9
F2
sg10
F26.800000000000001
saa(lp1139
V130337
p1140
a(dp1141
g6
F26.850000000000001
sg7
F-0.10000000000000001
sg8
F26.800000000000001
sg9
F1
sg10
F26.800000000000001
saa(lp1142
V130402
p1143
a(dp1144
g6
F26.850000000000001
sg7
F-0.10000000000000001
sg8
F26.800000000000001
sg9
F5
sg10
F26.800000000000001
saa(lp1145
V130407
p1146
a(dp1147
g6
F26.850000000000001
sg7
F-0.050000000000000003
sg8
F26.800000000000001
sg9
F2
sg10
F26.850000000000001
saa(lp1148
V130457
p1149
a(dp1150
g6
F26.850000000000001
sg7
F-0.10000000000000001
sg8
F26.800000000000001
sg9
F2
sg10
F26.800000000000001
saa(lp1151
V130507
p1152
a(dp1153
g6
F26.850000000000001
sg7
F-0.10000000000000001
sg8
F26.800000000000001
sg9
F10
sg10
F26.800000000000001
saa(lp1154
V130522
p1155
a(dp1156
g6
F26.850000000000001
sg7
F-0.10000000000000001
sg8
F26.800000000000001
sg9
F1
sg10
F26.800000000000001
saa(lp1157
V130532
p1158
a(dp1159
g6
F26.850000000000001
sg7
F-0.10000000000000001
sg8
F26.800000000000001
sg9
F1
sg10
F26.800000000000001
saa(lp1160
V130542
p1161
a(dp1162
g6
F26.850000000000001
sg7
F-0.10000000000000001
sg8
F26.800000000000001
sg9
F2
sg10
F26.800000000000001
saa(lp1163
V130547
p1164
a(dp1165
g6
F26.850000000000001
sg7
F-0.10000000000000001
sg8
F26.800000000000001
sg9
F10
sg10
F26.800000000000001
saa(lp1166
V130552
p1167
a(dp1168
g6
F26.850000000000001
sg7
F-0.10000000000000001
sg8
F26.800000000000001
sg9
F4
sg10
F26.800000000000001
saa(lp1169
V130617
p1170
a(dp1171
g6
F26.850000000000001
sg7
F-0.10000000000000001
sg8
F26.800000000000001
sg9
F3
sg10
F26.800000000000001
saa(lp1172
V130647
p1173
a(dp1174
g6
F26.850000000000001
sg7
F-0.050000000000000003
sg8
F26.800000000000001
sg9
F2
sg10
F26.850000000000001
saa(lp1175
V130758
p1176
a(dp1177
g6
F26.850000000000001
sg7
F-0.10000000000000001
sg8
F26.800000000000001
sg9
F2
sg10
F26.800000000000001
saa(lp1178
V130803
p1179
a(dp1180
g6
F26.850000000000001
sg7
F-0.10000000000000001
sg8
F26.800000000000001
sg9
F3
sg10
F26.800000000000001
saa(lp1181
V130808
p1182
a(dp1183
g6
F26.850000000000001
sg7
F-0.10000000000000001
sg8
F26.800000000000001
sg9
F1
sg10
F26.800000000000001
saa(lp1184
V130813
p1185
a(dp1186
g6
F26.850000000000001
sg7
F-0.10000000000000001
sg8
F26.800000000000001
sg9
F2
sg10
F26.800000000000001
saa(lp1187
V130838
p1188
a(dp1189
g6
F26.850000000000001
sg7
F-0.10000000000000001
sg8
F26.800000000000001
sg9
F2
sg10
F26.800000000000001
saa(lp1190
V130848
p1191
a(dp1192
g6
F26.850000000000001
sg7
F-0.10000000000000001
sg8
F26.800000000000001
sg9
F2
sg10
F26.800000000000001
saa(lp1193
V130853
p1194
a(dp1195
g6
F26.850000000000001
sg7
F-0.10000000000000001
sg8
F26.800000000000001
sg9
F2
sg10
F26.800000000000001
saa(lp1196
V130908
p1197
a(dp1198
g6
F26.850000000000001
sg7
F-0.050000000000000003
sg8
F26.800000000000001
sg9
F10
sg10
F26.850000000000001
saa(lp1199
V131029
p1200
a(dp1201
g6
F26.850000000000001
sg7
F-0.050000000000000003
sg8
F26.800000000000001
sg9
F2
sg10
F26.850000000000001
saa(lp1202
V131134
p1203
a(dp1204
g6
F26.850000000000001
sg7
F-0.050000000000000003
sg8
F26.800000000000001
sg9
F10
sg10
F26.850000000000001
saa(lp1205
V131149
p1206
a(dp1207
g6
F26.850000000000001
sg7
F-0.050000000000000003
sg8
F26.800000000000001
sg9
F3
sg10
F26.850000000000001
saa(lp1208
V131219
p1209
a(dp1210
g6
F26.850000000000001
sg7
F-0.10000000000000001
sg8
F26.800000000000001
sg9
F7
sg10
F26.800000000000001
saa(lp1211
V131239
p1212
a(dp1213
g6
F26.850000000000001
sg7
F-0.050000000000000003
sg8
F26.800000000000001
sg9
F1
sg10
F26.850000000000001
saa(lp1214
V131314
p1215
a(dp1216
g6
F26.850000000000001
sg7
F-0.050000000000000003
sg8
F26.800000000000001
sg9
F5
sg10
F26.850000000000001
saa(lp1217
V131334
p1218
a(dp1219
g6
F26.850000000000001
sg7
F-0.10000000000000001
sg8
F26.800000000000001
sg9
F1
sg10
F26.800000000000001
saa(lp1220
V131344
p1221
a(dp1222
g6
F26.850000000000001
sg7
F-0.10000000000000001
sg8
F26.800000000000001
sg9
F5
sg10
F26.800000000000001
saa(lp1223
V131430
p1224
a(dp1225
g6
F26.850000000000001
sg7
F-0.10000000000000001
sg8
F26.800000000000001
sg9
F5
sg10
F26.800000000000001
saa(lp1226
V131445
p1227
a(dp1228
g6
F26.850000000000001
sg7
F-0.10000000000000001
sg8
F26.800000000000001
sg9
F2
sg10
F26.800000000000001
saa(lp1229
V131530
p1230
a(dp1231
g6
F26.850000000000001
sg7
F-0.050000000000000003
sg8
F26.800000000000001
sg9
F1
sg10
F26.850000000000001
saa(lp1232
V131535
p1233
a(dp1234
g6
F26.850000000000001
sg7
F-0.10000000000000001
sg8
F26.800000000000001
sg9
F2
sg10
F26.800000000000001
saa(lp1235
V131540
p1236
a(dp1237
g6
F26.850000000000001
sg7
F-0.050000000000000003
sg8
F26.800000000000001
sg9
F4
sg10
F26.850000000000001
saa(lp1238
V131615
p1239
a(dp1240
g6
F26.850000000000001
sg7
F-0.050000000000000003
sg8
F26.800000000000001
sg9
F2
sg10
F26.850000000000001
saa(lp1241
V131635
p1242
a(dp1243
g6
F26.850000000000001
sg7
F-0.050000000000000003
sg8
F26.800000000000001
sg9
F2
sg10
F26.850000000000001
saa(lp1244
V131640
p1245
a(dp1246
g6
F26.850000000000001
sg7
F-0.050000000000000003
sg8
F26.800000000000001
sg9
F23
sg10
F26.850000000000001
saa(lp1247
V131710
p1248
a(dp1249
g6
F26.899999999999999
sg7
F-0.050000000000000003
sg8
F26.850000000000001
sg9
F1
sg10
F26.850000000000001
saa(lp1250
V131856
p1251
a(dp1252
g6
F26.899999999999999
sg7
F0
sg8
F26.850000000000001
sg9
F1
sg10
F26.899999999999999
saa(lp1253
V131941
p1254
a(dp1255
g6
F26.899999999999999
sg7
F-0.050000000000000003
sg8
F26.850000000000001
sg9
F1
sg10
F26.850000000000001
saa(lp1256
V132037
p1257
a(dp1258
g6
F26.899999999999999
sg7
F0
sg8
F26.850000000000001
sg9
F2
sg10
F26.899999999999999
saa(lp1259
V132052
p1260
a(dp1261
g6
F26.899999999999999
sg7
F0
sg8
F26.850000000000001
sg9
F4
sg10
F26.899999999999999
saa(lp1262
V132117
p1263
a(dp1264
g6
F26.899999999999999
sg7
F0
sg8
F26.850000000000001
sg9
F1
sg10
F26.899999999999999
saa(lp1265
V132127
p1266
a(dp1267
g6
F26.899999999999999
sg7
F0
sg8
F26.850000000000001
sg9
F5
sg10
F26.899999999999999
saa(lp1268
V132207
p1269
a(dp1270
g6
F26.899999999999999
sg7
F-0.050000000000000003
sg8
F26.850000000000001
sg9
F3
sg10
F26.850000000000001
saa(lp1271
V132212
p1272
a(dp1273
g6
F26.899999999999999
sg7
F-0.050000000000000003
sg8
F26.850000000000001
sg9
F1
sg10
F26.850000000000001
saa(lp1274
V132232
p1275
a(dp1276
g6
F26.899999999999999
sg7
F-0.050000000000000003
sg8
F26.850000000000001
sg9
F3
sg10
F26.850000000000001
saa(lp1277
V132312
p1278
a(dp1279
g6
F26.899999999999999
sg7
F-0.050000000000000003
sg8
F26.850000000000001
sg9
F3
sg10
F26.850000000000001
saa(lp1280
V132317
p1281
a(dp1282
g6
F26.899999999999999
sg7
F-0.050000000000000003
sg8
F26.850000000000001
sg9
F7
sg10
F26.850000000000001
saa(lp1283
V132327
p1284
a(dp1285
g6
F26.899999999999999
sg7
F-0.050000000000000003
sg8
F26.850000000000001
sg9
F5
sg10
F26.850000000000001
saa(lp1286
V132347
p1287
a(dp1288
g6
F26.899999999999999
sg7
F0
sg8
F26.850000000000001
sg9
F2
sg10
F26.899999999999999
saa(lp1289
V132357
p1290
a(dp1291
g6
F26.899999999999999
sg7
F0
sg8
F26.850000000000001
sg9
F1
sg10
F26.899999999999999
saa(lp1292
V132402
p1293
a(dp1294
g6
F26.899999999999999
sg7
F-0.050000000000000003
sg8
F26.850000000000001
sg9
F1
sg10
F26.850000000000001
saa(lp1295
V132407
p1296
a(dp1297
g6
F26.899999999999999
sg7
F-0.050000000000000003
sg8
F26.850000000000001
sg9
F2
sg10
F26.850000000000001
saa(lp1298
V132412
p1299
a(dp1300
g6
F26.899999999999999
sg7
F-0.050000000000000003
sg8
F26.850000000000001
sg9
F4
sg10
F26.850000000000001
saa(lp1301
V132417
p1302
a(dp1303
g6
F26.899999999999999
sg7
F-0.050000000000000003
sg8
F26.850000000000001
sg9
F33
sg10
F26.850000000000001
saa(lp1304
V132422
p1305
a(dp1306
g6
F26.899999999999999
sg7
F-0.050000000000000003
sg8
F26.850000000000001
sg9
F2
sg10
F26.850000000000001
saa(lp1307
V132427
p1308
a(dp1309
g6
F26.899999999999999
sg7
F-0.050000000000000003
sg8
F26.850000000000001
sg9
F3
sg10
F26.850000000000001
saa(lp1310
V132442
p1311
a(dp1312
g6
F26.850000000000001
sg7
F-0.050000000000000003
sg8
F26.800000000000001
sg9
F2
sg10
F26.850000000000001
saa(lp1313
V132452
p1314
a(dp1315
g6
F26.850000000000001
sg7
F-0.050000000000000003
sg8
F26.800000000000001
sg9
F8
sg10
F26.850000000000001
saa(lp1316
V133000
p1317
a(dp1318
g6
F26.899999999999999
sg7
F-0.10000000000000001
sg8
F26.800000000000001
sg9
F197
sg10
F26.800000000000001
saa(lp1319
V143000
p1320
a(dp1321
g6
F26.899999999999999
sg7
F-0.10000000000000001
sg8
F26.800000000000001
sg9
F2
sg10
F26.800000000000001
saatRp1322
.