ccollections
OrderedDict
p0
((lp1
(lp2
V090026
p3
a(dp4
S'sell'
p5
F231.5
sS'diff'
p6
F-2.0
sS'buy'
p7
F231.0
sS'count'
p8
F1.0
sS'deal'
p9
F231.0
saa(lp10
V090041
p11
a(dp12
g5
F231.5
sg6
F-1.5
sg7
F231.0
sg8
F1.0
sg9
F231.5
saa(lp13
V090101
p14
a(dp15
g5
F231.5
sg6
F-2.0
sg7
F231.0
sg8
F1.0
sg9
F231.0
saa(lp16
V090116
p17
a(dp18
g5
F231.5
sg6
F-2.0
sg7
F231.0
sg8
F3.0
sg9
F231.0
saa(lp19
V090131
p20
a(dp21
g5
F231.5
sg6
F-1.5
sg7
F231.0
sg8
F3.0
sg9
F231.5
saa(lp22
V090136
p23
a(dp24
g5
F231.5
sg6
F-2.0
sg7
F231.0
sg8
F1.0
sg9
F231.0
saa(lp25
V090146
p26
a(dp27
g5
F231.5
sg6
F-1.5
sg7
F231.0
sg8
F1.0
sg9
F231.5
saa(lp28
V090211
p29
a(dp30
g5
F231.5
sg6
F-1.5
sg7
F231.0
sg8
F3.0
sg9
F231.5
saa(lp31
V090241
p32
a(dp33
g5
F231.5
sg6
F-2.0
sg7
F231.0
sg8
F1.0
sg9
F231.0
saa(lp34
V090301
p35
a(dp36
g5
F231.5
sg6
F-2.5
sg7
F230.5
sg8
F1.0
sg9
F230.5
saa(lp37
V090306
p38
a(dp39
g5
F231.0
sg6
F-3.0
sg7
F230.0
sg8
F1.0
sg9
F230.0
saa(lp40
V090326
p41
a(dp42
g5
F231.0
sg6
F-2.0
sg7
F230.0
sg8
F1.0
sg9
F231.0
saa(lp43
V090331
p44
a(dp45
g5
F231.5
sg6
F-1.0
sg7
F230.0
sg8
F3.0
sg9
F232.0
saa(lp46
V090336
p47
a(dp48
g5
F232.0
sg6
F-2.0
sg7
F231.0
sg8
F1.0
sg9
F231.0
saa(lp49
V090341
p50
a(dp51
g5
F232.0
sg6
F-3.0
sg7
F230.0
sg8
F1.0
sg9
F230.0
saa(lp52
V090346
p53
a(dp54
g5
F230.5
sg6
F-3.0
sg7
F230.0
sg8
F1.0
sg9
F230.0
saa(lp55
V090416
p56
a(dp57
g5
F231.0
sg6
F-2.0
sg7
F230.5
sg8
F1.0
sg9
F231.0
saa(lp58
V090431
p59
a(dp60
g5
F231.0
sg6
F-2.0
sg7
F230.5
sg8
F1.0
sg9
F231.0
saa(lp61
V090437
p62
a(dp63
g5
F231.0
sg6
F-2.0
sg7
F230.5
sg8
F4.0
sg9
F231.0
saa(lp64
V090502
p65
a(dp66
g5
F232.0
sg6
F-2.0
sg7
F231.0
sg8
F1.0
sg9
F231.0
saa(lp67
V090507
p68
a(dp69
g5
F232.0
sg6
F-2.0
sg7
F231.0
sg8
F1.0
sg9
F231.0
saa(lp70
V090512
p71
a(dp72
g5
F232.0
sg6
F-2.5
sg7
F230.5
sg8
F1.0
sg9
F230.5
saa(lp73
V090527
p74
a(dp75
g5
F232.0
sg6
F-2.5
sg7
F231.0
sg8
F2.0
sg9
F230.5
saa(lp76
V090532
p77
a(dp78
g5
F232.0
sg6
F-2.5
sg7
F230.5
sg8
F2.0
sg9
F230.5
saa(lp79
V090537
p80
a(dp81
g5
F232.0
sg6
F-1.0
sg7
F230.5
sg8
F1.0
sg9
F232.0
saa(lp82
V090607
p83
a(dp84
g5
F232.0
sg6
F-1.0
sg7
F231.0
sg8
F1.0
sg9
F232.0
saa(lp85
V090642
p86
a(dp87
g5
F232.0
sg6
F-1.0
sg7
F231.0
sg8
F1.0
sg9
F232.0
saa(lp88
V090657
p89
a(dp90
g5
F232.0
sg6
F-1.0
sg7
F231.0
sg8
F1.0
sg9
F232.0
saa(lp91
V090707
p92
a(dp93
g5
F232.0
sg6
F-1.0
sg7
F231.5
sg8
F1.0
sg9
F232.0
saa(lp94
V090827
p95
a(dp96
g5
F233.0
sg6
F0.0
sg7
F232.0
sg8
F1.0
sg9
F233.0
saa(lp97
V090838
p98
a(dp99
g5
F234.0
sg6
F1.5
sg7
F232.0
sg8
F1.0
sg9
F234.5
saa(lp100
V090853
p101
a(dp102
g5
F232.5
sg6
F-0.5
sg7
F232.0
sg8
F1.0
sg9
F232.5
saa(lp103
V090908
p104
a(dp105
g5
F234.5
sg6
F-0.5
sg7
F232.5
sg8
F1.0
sg9
F232.5
saa(lp106
V090933
p107
a(dp108
g5
F234.0
sg6
F1.0
sg7
F232.5
sg8
F1.0
sg9
F234.0
saa(lp109
V091018
p110
a(dp111
g5
F234.0
sg6
F0.0
sg7
F233.0
sg8
F1.0
sg9
F233.0
saa(lp112
V091023
p113
a(dp114
g5
F233.0
sg6
F-0.5
sg7
F232.5
sg8
F2.0
sg9
F232.5
saa(lp115
V091029
p116
a(dp117
g5
F233.0
sg6
F-0.5
sg7
F232.5
sg8
F2.0
sg9
F232.5
saa(lp118
V091034
p119
a(dp120
g5
F233.0
sg6
F-0.5
sg7
F232.5
sg8
F3.0
sg9
F232.5
saa(lp121
V091054
p122
a(dp123
g5
F233.0
sg6
F-1.0
sg7
F232.0
sg8
F1.0
sg9
F232.0
saa(lp124
V091059
p125
a(dp126
g5
F233.0
sg6
F-1.0
sg7
F232.0
sg8
F1.0
sg9
F232.0
saa(lp127
V091114
p128
a(dp129
g5
F233.0
sg6
F-1.0
sg7
F232.0
sg8
F4.0
sg9
F232.0
saa(lp130
V091119
p131
a(dp132
g5
F233.0
sg6
F-1.5
sg7
F231.5
sg8
F2.0
sg9
F231.5
saa(lp133
V091219
p134
a(dp135
g5
F231.5
sg6
F-1.5
sg7
F231.0
sg8
F1.0
sg9
F231.5
saa(lp136
V091234
p137
a(dp138
g5
F231.5
sg6
F-1.5
sg7
F231.0
sg8
F1.0
sg9
F231.5
saa(lp139
V091239
p140
a(dp141
g5
F231.5
sg6
F-1.5
sg7
F231.0
sg8
F1.0
sg9
F231.5
saa(lp142
V091254
p143
a(dp144
g5
F231.5
sg6
F-1.5
sg7
F231.0
sg8
F1.0
sg9
F231.5
saa(lp145
V091259
p146
a(dp147
g5
F231.5
sg6
F-1.5
sg7
F231.0
sg8
F2.0
sg9
F231.5
saa(lp148
V091424
p149
a(dp150
g5
F233.0
sg6
F0.0
sg7
F231.5
sg8
F1.0
sg9
F233.0
saa(lp151
V091905
p152
a(dp153
g5
F234.0
sg6
F0.0
sg7
F233.0
sg8
F1.0
sg9
F233.0
saa(lp154
V091910
p155
a(dp156
g5
F233.0
sg6
F-1.0
sg7
F232.5
sg8
F2.0
sg9
F232.0
saa(lp157
V091915
p158
a(dp159
g5
F232.5
sg6
F-1.0
sg7
F232.0
sg8
F2.0
sg9
F232.0
saa(lp160
V091920
p161
a(dp162
g5
F232.0
sg6
F-1.5
sg7
F231.5
sg8
F1.0
sg9
F231.5
saa(lp163
V091926
p164
a(dp165
g5
F232.0
sg6
F-1.5
sg7
F231.5
sg8
F9.0
sg9
F231.5
saa(lp166
V091931
p167
a(dp168
g5
F232.0
sg6
F-1.5
sg7
F231.0
sg8
F2.0
sg9
F231.5
saa(lp169
V091936
p170
a(dp171
g5
F232.0
sg6
F-2.0
sg7
F231.0
sg8
F1.0
sg9
F231.0
saa(lp172
V091956
p173
a(dp174
g5
F232.0
sg6
F-2.0
sg7
F231.0
sg8
F1.0
sg9
F231.0
saa(lp175
V092101
p176
a(dp177
g5
F232.0
sg6
F-1.0
sg7
F231.0
sg8
F1.0
sg9
F232.0
saa(lp178
V092106
p179
a(dp180
g5
F232.0
sg6
F-2.0
sg7
F231.0
sg8
F1.0
sg9
F231.0
saa(lp181
V092211
p182
a(dp183
g5
F232.0
sg6
F-2.0
sg7
F231.0
sg8
F1.0
sg9
F231.0
saa(lp184
V092241
p185
a(dp186
g5
F232.0
sg6
F-2.0
sg7
F231.0
sg8
F1.0
sg9
F231.0
saa(lp187
V092247
p188
a(dp189
g5
F231.5
sg6
F-2.0
sg7
F231.0
sg8
F1.0
sg9
F231.0
saa(lp190
V092252
p191
a(dp192
g5
F231.5
sg6
F-2.0
sg7
F231.0
sg8
F1.0
sg9
F231.0
saa(lp193
V092257
p194
a(dp195
g5
F231.5
sg6
F-2.0
sg7
F231.0
sg8
F3.0
sg9
F231.0
saa(lp196
V092302
p197
a(dp198
g5
F231.5
sg6
F-2.5
sg7
F230.5
sg8
F1.0
sg9
F230.5
saa(lp199
V092402
p200
a(dp201
g5
F231.0
sg6
F-2.5
sg7
F230.5
sg8
F1.0
sg9
F230.5
saa(lp202
V092517
p203
a(dp204
g5
F231.0
sg6
F-2.5
sg7
F230.5
sg8
F1.0
sg9
F230.5
saa(lp205
V092532
p206
a(dp207
g5
F231.0
sg6
F-2.5
sg7
F230.5
sg8
F1.0
sg9
F230.5
saa(lp208
V092547
p209
a(dp210
g5
F231.0
sg6
F-2.5
sg7
F230.5
sg8
F1.0
sg9
F230.5
saa(lp211
V093355
p212
a(dp213
g5
F231.0
sg6
F-2.0
sg7
F230.5
sg8
F1.0
sg9
F231.0
saa(lp214
V093435
p215
a(dp216
g5
F231.0
sg6
F-2.0
sg7
F230.5
sg8
F1.0
sg9
F231.0
saa(lp217
V093530
p218
a(dp219
g5
F231.0
sg6
F-2.0
sg7
F230.5
sg8
F1.0
sg9
F231.0
saa(lp220
V093540
p221
a(dp222
g5
F231.0
sg6
F-2.0
sg7
F230.5
sg8
F1.0
sg9
F231.0
saa(lp223
V093545
p224
a(dp225
g5
F231.0
sg6
F-2.0
sg7
F230.5
sg8
F4.0
sg9
F231.0
saa(lp226
V093947
p227
a(dp228
g5
F233.0
sg6
F0.0
sg7
F231.5
sg8
F1.0
sg9
F233.0
saa(lp229
V094017
p230
a(dp231
g5
F233.0
sg6
F-1.5
sg7
F231.5
sg8
F1.0
sg9
F231.5
saa(lp232
V094022
p233
a(dp234
g5
F231.5
sg6
F-2.0
sg7
F231.0
sg8
F4.0
sg9
F231.0
saa(lp235
V094027
p236
a(dp237
g5
F231.5
sg6
F-2.0
sg7
F231.0
sg8
F1.0
sg9
F231.0
saa(lp238
V094032
p239
a(dp240
g5
F231.5
sg6
F-1.5
sg7
F231.0
sg8
F1.0
sg9
F231.5
saa(lp241
V094037
p242
a(dp243
g5
F231.5
sg6
F-1.5
sg7
F231.0
sg8
F2.0
sg9
F231.5
saa(lp244
V094147
p245
a(dp246
g5
F231.5
sg6
F-1.5
sg7
F231.0
sg8
F1.0
sg9
F231.5
saa(lp247
V094152
p248
a(dp249
g5
F231.5
sg6
F-1.5
sg7
F231.0
sg8
F1.0
sg9
F231.5
saa(lp250
V094538
p251
a(dp252
g5
F231.5
sg6
F-1.5
sg7
F231.0
sg8
F1.0
sg9
F231.5
saa(lp253
V095245
p254
a(dp255
g5
F232.0
sg6
F-2.0
sg7
F231.0
sg8
F1.0
sg9
F231.0
saa(lp256
V095330
p257
a(dp258
g5
F232.0
sg6
F-2.0
sg7
F231.0
sg8
F1.0
sg9
F231.0
saa(lp259
V095806
p260
a(dp261
g5
F232.0
sg6
F-2.0
sg7
F231.0
sg8
F2.0
sg9
F231.0
saa(lp262
V100022
p263
a(dp264
g5
F232.0
sg6
F-1.5
sg7
F231.5
sg8
F1.0
sg9
F231.5
saa(lp265
V100027
p266
a(dp267
g5
F231.5
sg6
F-2.0
sg7
F231.0
sg8
F3.0
sg9
F231.0
saa(lp268
V100032
p269
a(dp270
g5
F231.0
sg6
F-2.5
sg7
F230.5
sg8
F1.0
sg9
F230.5
saa(lp271
V100433
p272
a(dp273
g5
F231.0
sg6
F-2.0
sg7
F230.5
sg8
F1.0
sg9
F231.0
saa(lp274
V100624
p275
a(dp276
g5
F231.0
sg6
F-2.0
sg7
F230.5
sg8
F1.0
sg9
F231.0
saa(lp277
V100644
p278
a(dp279
g5
F231.0
sg6
F-2.0
sg7
F230.5
sg8
F1.0
sg9
F231.0
saa(lp280
V100844
p281
a(dp282
g5
F231.0
sg6
F-2.0
sg7
F230.5
sg8
F1.0
sg9
F231.0
saa(lp283
V100904
p284
a(dp285
g5
F231.0
sg6
F-2.0
sg7
F230.5
sg8
F1.0
sg9
F231.0
saa(lp286
V101220
p287
a(dp288
g5
F232.0
sg6
F-1.0
sg7
F231.0
sg8
F1.0
sg9
F232.0
saa(lp289
V101652
p290
a(dp291
g5
F231.5
sg6
F-1.5
sg7
F231.0
sg8
F1.0
sg9
F231.5
saa(lp292
V101742
p293
a(dp294
g5
F231.5
sg6
F-1.5
sg7
F231.0
sg8
F1.0
sg9
F231.5
saa(lp295
V101832
p296
a(dp297
g5
F231.5
sg6
F-1.5
sg7
F231.0
sg8
F1.0
sg9
F231.5
saa(lp298
V101917
p299
a(dp300
g5
F231.5
sg6
F-1.5
sg7
F231.0
sg8
F3.0
sg9
F231.5
saa(lp301
V101927
p302
a(dp303
g5
F232.5
sg6
F-2.0
sg7
F231.0
sg8
F1.0
sg9
F231.0
saa(lp304
V102158
p305
a(dp306
g5
F232.0
sg6
F-1.0
sg7
F231.5
sg8
F1.0
sg9
F232.0
saa(lp307
V102233
p308
a(dp309
g5
F232.5
sg6
F-0.5
sg7
F231.5
sg8
F1.0
sg9
F232.5
saa(lp310
V102254
p311
a(dp312
g5
F232.5
sg6
F-0.5
sg7
F232.0
sg8
F1.0
sg9
F232.5
saa(lp313
V102344
p314
a(dp315
g5
F232.5
sg6
F-0.5
sg7
F232.0
sg8
F1.0
sg9
F232.5
saa(lp316
V102424
p317
a(dp318
g5
F233.0
sg6
F-0.5
sg7
F232.5
sg8
F1.0
sg9
F232.5
saa(lp319
V102634
p320
a(dp321
g5
F233.0
sg6
F-1.0
sg7
F232.0
sg8
F1.0
sg9
F232.0
saa(lp322
V102941
p323
a(dp324
g5
F232.5
sg6
F-0.5
sg7
F231.5
sg8
F1.0
sg9
F232.5
saa(lp325
V102951
p326
a(dp327
g5
F232.5
sg6
F-1.5
sg7
F231.5
sg8
F1.0
sg9
F231.5
saa(lp328
V103231
p329
a(dp330
g5
F232.0
sg6
F-1.5
sg7
F231.5
sg8
F1.0
sg9
F231.5
saa(lp331
V103346
p332
a(dp333
g5
F232.0
sg6
F-1.0
sg7
F231.0
sg8
F1.0
sg9
F232.0
saa(lp334
V103421
p335
a(dp336
g5
F232.0
sg6
F-1.0
sg7
F231.0
sg8
F1.0
sg9
F232.0
saa(lp337
V103437
p338
a(dp339
g5
F232.0
sg6
F-1.0
sg7
F231.0
sg8
F1.0
sg9
F232.0
saa(lp340
V103832
p341
a(dp342
g5
F232.0
sg6
F-1.0
sg7
F231.5
sg8
F1.0
sg9
F232.0
saa(lp343
V104013
p344
a(dp345
g5
F232.0
sg6
F-1.0
sg7
F231.0
sg8
F1.0
sg9
F232.0
saa(lp346
V104018
p347
a(dp348
g5
F232.5
sg6
F-1.0
sg7
F231.0
sg8
F1.0
sg9
F232.0
saa(lp349
V104234
p350
a(dp351
g5
F232.5
sg6
F-0.5
sg7
F232.0
sg8
F1.0
sg9
F232.5
saa(lp352
V104309
p353
a(dp354
g5
F232.5
sg6
F-1.0
sg7
F232.0
sg8
F1.0
sg9
F232.0
saa(lp355
V104449
p356
a(dp357
g5
F232.5
sg6
F-0.5
sg7
F231.0
sg8
F1.0
sg9
F232.5
saa(lp358
V104605
p359
a(dp360
g5
F232.5
sg6
F-0.5
sg7
F231.0
sg8
F1.0
sg9
F232.5
saa(lp361
V104730
p362
a(dp363
g5
F232.5
sg6
F-0.5
sg7
F232.0
sg8
F1.0
sg9
F232.5
saa(lp364
V104805
p365
a(dp366
g5
F232.5
sg6
F-0.5
sg7
F231.0
sg8
F2.0
sg9
F232.5
saa(lp367
V104810
p368
a(dp369
g5
F233.0
sg6
F0.0
sg7
F232.5
sg8
F3.0
sg9
F233.0
saa(lp370
V104815
p371
a(dp372
g5
F233.0
sg6
F-0.5
sg7
F232.5
sg8
F1.0
sg9
F232.5
saa(lp373
V104820
p374
a(dp375
g5
F233.0
sg6
F-0.5
sg7
F232.5
sg8
F1.0
sg9
F232.5
saa(lp376
V104825
p377
a(dp378
g5
F233.0
sg6
F-0.5
sg7
F232.5
sg8
F1.0
sg9
F232.5
saa(lp379
V104931
p380
a(dp381
g5
F233.0
sg6
F-0.5
sg7
F232.5
sg8
F1.0
sg9
F232.5
saa(lp382
V104951
p383
a(dp384
g5
F232.5
sg6
F-0.5
sg7
F231.0
sg8
F1.0
sg9
F232.5
saa(lp385
V110445
p386
a(dp387
g5
F232.0
sg6
F-1.5
sg7
F231.5
sg8
F2.0
sg9
F231.5
saa(lp388
V110605
p389
a(dp390
g5
F232.0
sg6
F-2.0
sg7
F231.0
sg8
F1.0
sg9
F231.0
saa(lp391
V110741
p392
a(dp393
g5
F232.0
sg6
F-2.0
sg7
F231.5
sg8
F1.0
sg9
F231.0
saa(lp394
V111302
p395
a(dp396
g5
F231.5
sg6
F-2.0
sg7
F231.0
sg8
F2.0
sg9
F231.0
saa(lp397
V111337
p398
a(dp399
g5
F231.5
sg6
F-2.0
sg7
F231.0
sg8
F1.0
sg9
F231.0
saa(lp400
V111543
p401
a(dp402
g5
F231.5
sg6
F-2.0
sg7
F231.0
sg8
F2.0
sg9
F231.0
saa(lp403
V111558
p404
a(dp405
g5
F231.5
sg6
F-2.0
sg7
F231.0
sg8
F1.0
sg9
F231.0
saa(lp406
V111603
p407
a(dp408
g5
F231.5
sg6
F-2.0
sg7
F231.0
sg8
F3.0
sg9
F231.0
saa(lp409
V111723
p410
a(dp411
g5
F231.5
sg6
F-2.5
sg7
F230.5
sg8
F1.0
sg9
F230.5
saa(lp412
V111728
p413
a(dp414
g5
F231.5
sg6
F-2.5
sg7
F230.5
sg8
F1.0
sg9
F230.5
saa(lp415
V111813
p416
a(dp417
g5
F231.0
sg6
F-2.5
sg7
F230.5
sg8
F1.0
sg9
F230.5
saa(lp418
V112014
p419
a(dp420
g5
F231.0
sg6
F-2.5
sg7
F230.5
sg8
F1.0
sg9
F230.5
saa(lp421
V112040
p422
a(dp423
g5
F231.0
sg6
F-2.5
sg7
F230.5
sg8
F2.0
sg9
F230.5
saa(lp424
V112135
p425
a(dp426
g5
F231.0
sg6
F-2.5
sg7
F230.5
sg8
F1.0
sg9
F230.5
saa(lp427
V112145
p428
a(dp429
g5
F231.0
sg6
F-2.5
sg7
F230.5
sg8
F5.0
sg9
F230.5
saa(lp430
V112636
p431
a(dp432
g5
F230.5
sg6
F-3.0
sg7
F230.0
sg8
F3.0
sg9
F230.0
saa(lp433
V112741
p434
a(dp435
g5
F230.5
sg6
F-3.0
sg7
F230.0
sg8
F9.0
sg9
F230.0
saa(lp436
V112746
p437
a(dp438
g5
F230.5
sg6
F-3.0
sg7
F230.0
sg8
F5.0
sg9
F230.0
saa(lp439
V112751
p440
a(dp441
g5
F230.5
sg6
F-3.0
sg7
F230.0
sg8
F4.0
sg9
F230.0
saa(lp442
V112806
p443
a(dp444
g5
F230.0
sg6
F-3.5
sg7
F229.5
sg8
F1.0
sg9
F229.5
saa(lp445
V112811
p446
a(dp447
g5
F230.0
sg6
F-3.5
sg7
F229.5
sg8
F2.0
sg9
F229.5
saa(lp448
V112816
p449
a(dp450
g5
F230.0
sg6
F-3.0
sg7
F229.0
sg8
F1.0
sg9
F230.0
saa(lp451
V112836
p452
a(dp453
g5
F230.0
sg6
F-4.0
sg7
F229.0
sg8
F2.0
sg9
F229.0
saa(lp454
V112841
p455
a(dp456
g5
F230.0
sg6
F-4.0
sg7
F229.0
sg8
F1.0
sg9
F229.0
saa(lp457
V112846
p458
a(dp459
g5
F229.5
sg6
F-4.0
sg7
F229.0
sg8
F1.0
sg9
F229.0
saa(lp460
V112937
p461
a(dp462
g5
F229.5
sg6
F-4.0
sg7
F229.0
sg8
F1.0
sg9
F229.0
saa(lp463
V113213
p464
a(dp465
g5
F229.5
sg6
F-4.0
sg7
F229.0
sg8
F2.0
sg9
F229.0
saa(lp466
V113513
p467
a(dp468
g5
F229.5
sg6
F-3.5
sg7
F229.0
sg8
F1.0
sg9
F229.5
saa(lp469
V113528
p470
a(dp471
g5
F229.5
sg6
F-3.5
sg7
F229.0
sg8
F1.0
sg9
F229.5
saa(lp472
V113734
p473
a(dp474
g5
F229.5
sg6
F-3.5
sg7
F229.0
sg8
F3.0
sg9
F229.5
saa(lp475
V113744
p476
a(dp477
g5
F229.5
sg6
F-3.5
sg7
F229.0
sg8
F1.0
sg9
F229.5
saa(lp478
V114256
p479
a(dp480
g5
F229.5
sg6
F-3.5
sg7
F229.0
sg8
F1.0
sg9
F229.5
saa(lp481
V114301
p482
a(dp483
g5
F229.5
sg6
F-3.5
sg7
F229.0
sg8
F1.0
sg9
F229.5
saa(lp484
V114546
p485
a(dp486
g5
F229.5
sg6
F-3.5
sg7
F229.0
sg8
F1.0
sg9
F229.5
saa(lp487
V115028
p488
a(dp489
g5
F229.5
sg6
F-3.5
sg7
F229.0
sg8
F1.0
sg9
F229.5
saa(lp490
V115514
p491
a(dp492
g5
F229.5
sg6
F-3.5
sg7
F229.0
sg8
F1.0
sg9
F229.5
saa(lp493
V115654
p494
a(dp495
g5
F229.5
sg6
F-3.5
sg7
F229.0
sg8
F1.0
sg9
F229.5
saa(lp496
V120939
p497
a(dp498
g5
F229.5
sg6
F-3.5
sg7
F229.0
sg8
F1.0
sg9
F229.5
saa(lp499
V121530
p500
a(dp501
g5
F229.5
sg6
F-4.0
sg7
F229.0
sg8
F1.0
sg9
F229.0
saa(lp502
V121700
p503
a(dp504
g5
F229.5
sg6
F-3.5
sg7
F229.0
sg8
F2.0
sg9
F229.5
saa(lp505
V122031
p506
a(dp507
g5
F229.5
sg6
F-3.5
sg7
F229.0
sg8
F2.0
sg9
F229.5
saa(lp508
V122057
p509
a(dp510
g5
F229.5
sg6
F-3.5
sg7
F229.0
sg8
F1.0
sg9
F229.5
saa(lp511
V122112
p512
a(dp513
g5
F229.5
sg6
F-3.5
sg7
F229.0
sg8
F1.0
sg9
F229.5
saa(lp514
V122202
p515
a(dp516
g5
F229.5
sg6
F-3.5
sg7
F229.0
sg8
F1.0
sg9
F229.5
saa(lp517
V122342
p518
a(dp519
g5
F229.5
sg6
F-3.5
sg7
F229.0
sg8
F1.0
sg9
F229.5
saa(lp520
V123621
p521
a(dp522
g5
F229.5
sg6
F-3.5
sg7
F229.0
sg8
F3.0
sg9
F229.5
saa(lp523
V123701
p524
a(dp525
g5
F229.5
sg6
F-3.5
sg7
F229.0
sg8
F1.0
sg9
F229.5
saa(lp526
V123716
p527
a(dp528
g5
F229.5
sg6
F-3.5
sg7
F229.0
sg8
F1.0
sg9
F229.5
saa(lp529
V123916
p530
a(dp531
g5
F229.5
sg6
F-3.5
sg7
F229.0
sg8
F1.0
sg9
F229.5
saa(lp532
V123942
p533
a(dp534
g5
F229.5
sg6
F-3.5
sg7
F229.0
sg8
F1.0
sg9
F229.5
saa(lp535
V123947
p536
a(dp537
g5
F229.5
sg6
F-4.0
sg7
F229.0
sg8
F3.0
sg9
F229.0
saa(lp538
V123952
p539
a(dp540
g5
F229.5
sg6
F-4.0
sg7
F229.0
sg8
F4.0
sg9
F229.0
saa(lp541
V123957
p542
a(dp543
g5
F229.5
sg6
F-4.0
sg7
F229.0
sg8
F4.0
sg9
F229.0
saa(lp544
V124002
p545
a(dp546
g5
F229.5
sg6
F-4.0
sg7
F229.0
sg8
F1.0
sg9
F229.0
saa(lp547
V124052
p548
a(dp549
g5
F229.5
sg6
F-4.0
sg7
F229.0
sg8
F1.0
sg9
F229.0
saa(lp550
V124102
p551
a(dp552
g5
F229.5
sg6
F-4.0
sg7
F229.0
sg8
F1.0
sg9
F229.0
saa(lp553
V124107
p554
a(dp555
g5
F229.5
sg6
F-4.5
sg7
F228.5
sg8
F5.0
sg9
F228.5
saa(lp556
V124112
p557
a(dp558
g5
F228.5
sg6
F-5.0
sg7
F228.0
sg8
F10.0
sg9
F228.0
saa(lp559
V124117
p560
a(dp561
g5
F228.5
sg6
F-5.0
sg7
F228.0
sg8
F1.0
sg9
F228.0
saa(lp562
V124122
p563
a(dp564
g5
F228.5
sg6
F-5.0
sg7
F228.0
sg8
F3.0
sg9
F228.0
saa(lp565
V124127
p566
a(dp567
g5
F228.5
sg6
F-4.5
sg7
F228.0
sg8
F5.0
sg9
F228.5
saa(lp568
V124217
p569
a(dp570
g5
F228.5
sg6
F-4.5
sg7
F228.0
sg8
F5.0
sg9
F228.5
saa(lp571
V124232
p572
a(dp573
g5
F228.5
sg6
F-4.5
sg7
F228.0
sg8
F1.0
sg9
F228.5
saa(lp574
V124237
p575
a(dp576
g5
F228.5
sg6
F-5.0
sg7
F228.0
sg8
F5.0
sg9
F228.0
saa(lp577
V124248
p578
a(dp579
g5
F228.5
sg6
F-4.5
sg7
F228.0
sg8
F1.0
sg9
F228.5
saa(lp580
V124258
p581
a(dp582
g5
F228.5
sg6
F-4.5
sg7
F228.0
sg8
F3.0
sg9
F228.5
saa(lp583
V124353
p584
a(dp585
g5
F229.0
sg6
F-4.5
sg7
F228.5
sg8
F1.0
sg9
F228.5
saa(lp586
V125546
p587
a(dp588
g5
F229.0
sg6
F-4.5
sg7
F228.5
sg8
F1.0
sg9
F228.5
saa(lp589
V125551
p590
a(dp591
g5
F229.0
sg6
F-4.5
sg7
F228.5
sg8
F1.0
sg9
F228.5
saa(lp592
V125837
p593
a(dp594
g5
F229.0
sg6
F-4.5
sg7
F228.5
sg8
F1.0
sg9
F228.5
saa(lp595
V125907
p596
a(dp597
g5
F229.0
sg6
F-4.5
sg7
F228.5
sg8
F1.0
sg9
F228.5
saa(lp598
V130033
p599
a(dp600
g5
F229.0
sg6
F-4.5
sg7
F228.5
sg8
F4.0
sg9
F228.5
saa(lp601
V130038
p602
a(dp603
g5
F229.0
sg6
F-4.5
sg7
F228.5
sg8
F1.0
sg9
F228.5
saa(lp604
V130043
p605
a(dp606
g5
F229.0
sg6
F-5.0
sg7
F228.0
sg8
F3.0
sg9
F228.0
saa(lp607
V130048
p608
a(dp609
g5
F228.5
sg6
F-5.0
sg7
F228.0
sg8
F2.0
sg9
F228.0
saa(lp610
V130213
p611
a(dp612
g5
F228.5
sg6
F-5.0
sg7
F228.0
sg8
F1.0
sg9
F228.0
saa(lp613
V130218
p614
a(dp615
g5
F228.5
sg6
F-5.0
sg7
F228.0
sg8
F3.0
sg9
F228.0
saa(lp616
V130223
p617
a(dp618
g5
F228.5
sg6
F-5.0
sg7
F228.0
sg8
F4.0
sg9
F228.0
saa(lp619
V130228
p620
a(dp621
g5
F228.5
sg6
F-5.0
sg7
F228.0
sg8
F9.0
sg9
F228.0
saa(lp622
V130233
p623
a(dp624
g5
F228.5
sg6
F-5.0
sg7
F228.0
sg8
F1.0
sg9
F228.0
saa(lp625
V130238
p626
a(dp627
g5
F228.5
sg6
F-5.0
sg7
F228.0
sg8
F2.0
sg9
F228.0
saa(lp628
V130243
p629
a(dp630
g5
F228.5
sg6
F-5.0
sg7
F228.0
sg8
F7.0
sg9
F228.0
saa(lp631
V130248
p632
a(dp633
g5
F228.5
sg6
F-5.0
sg7
F228.0
sg8
F1.0
sg9
F228.0
saa(lp634
V130529
p635
a(dp636
g5
F228.0
sg6
F-5.0
sg7
F227.5
sg8
F1.0
sg9
F228.0
saa(lp637
V130534
p638
a(dp639
g5
F228.0
sg6
F-5.5
sg7
F227.5
sg8
F2.0
sg9
F227.5
saa(lp640
V130559
p641
a(dp642
g5
F228.0
sg6
F-5.5
sg7
F227.5
sg8
F1.0
sg9
F227.5
saa(lp643
V130614
p644
a(dp645
g5
F228.0
sg6
F-5.5
sg7
F227.5
sg8
F1.0
sg9
F227.5
saa(lp646
V130624
p647
a(dp648
g5
F228.0
sg6
F-5.5
sg7
F227.5
sg8
F4.0
sg9
F227.5
saa(lp649
V130629
p650
a(dp651
g5
F228.0
sg6
F-6.0
sg7
F227.0
sg8
F1.0
sg9
F227.0
saa(lp652
V130634
p653
a(dp654
g5
F228.0
sg6
F-5.5
sg7
F227.0
sg8
F1.0
sg9
F227.5
saa(lp655
V130639
p656
a(dp657
g5
F227.5
sg6
F-6.0
sg7
F227.0
sg8
F1.0
sg9
F227.0
saa(lp658
V130809
p659
a(dp660
g5
F227.5
sg6
F-6.0
sg7
F227.0
sg8
F1.0
sg9
F227.0
saa(lp661
V130830
p662
a(dp663
g5
F227.5
sg6
F-6.0
sg7
F227.0
sg8
F1.0
sg9
F227.0
saa(lp664
V130920
p665
a(dp666
g5
F227.5
sg6
F-6.0
sg7
F227.0
sg8
F1.0
sg9
F227.0
saa(lp667
V130925
p668
a(dp669
g5
F227.5
sg6
F-6.0
sg7
F227.0
sg8
F1.0
sg9
F227.0
saa(lp670
V131035
p671
a(dp672
g5
F227.5
sg6
F-6.0
sg7
F227.0
sg8
F1.0
sg9
F227.0
saa(lp673
V131105
p674
a(dp675
g5
F227.5
sg6
F-6.0
sg7
F227.0
sg8
F1.0
sg9
F227.0
saa(lp676
V131116
p677
a(dp678
g5
F227.5
sg6
F-6.0
sg7
F227.0
sg8
F1.0
sg9
F227.0
saa(lp679
V131131
p680
a(dp681
g5
F227.5
sg6
F-6.0
sg7
F227.0
sg8
F1.0
sg9
F227.0
saa(lp682
V131136
p683
a(dp684
g5
F227.5
sg6
F-6.0
sg7
F227.0
sg8
F3.0
sg9
F227.0
saa(lp685
V131151
p686
a(dp687
g5
F227.0
sg6
F-6.0
sg7
F226.5
sg8
F1.0
sg9
F227.0
saa(lp688
V131216
p689
a(dp690
g5
F227.5
sg6
F-6.0
sg7
F227.0
sg8
F1.0
sg9
F227.0
saa(lp691
V131416
p692
a(dp693
g5
F227.5
sg6
F-6.0
sg7
F227.0
sg8
F1.0
sg9
F227.0
saa(lp694
V131511
p695
a(dp696
g5
F227.5
sg6
F-5.5
sg7
F227.0
sg8
F1.0
sg9
F227.5
saa(lp697
V131607
p698
a(dp699
g5
F227.5
sg6
F-6.0
sg7
F227.0
sg8
F8.0
sg9
F227.0
saa(lp700
V131637
p701
a(dp702
g5
F227.0
sg6
F-6.0
sg7
F226.5
sg8
F1.0
sg9
F227.0
saa(lp703
V131657
p704
a(dp705
g5
F227.0
sg6
F-6.5
sg7
F226.5
sg8
F1.0
sg9
F226.5
saa(lp706
V131722
p707
a(dp708
g5
F227.0
sg6
F-6.5
sg7
F226.5
sg8
F1.0
sg9
F226.5
saa(lp709
V131802
p710
a(dp711
g5
F227.0
sg6
F-6.5
sg7
F226.5
sg8
F5.0
sg9
F226.5
saa(lp712
V131807
p713
a(dp714
g5
F227.0
sg6
F-6.5
sg7
F226.5
sg8
F5.0
sg9
F226.5
saa(lp715
V131822
p716
a(dp717
g5
F227.0
sg6
F-6.5
sg7
F226.5
sg8
F1.0
sg9
F226.5
saa(lp718
V131827
p719
a(dp720
g5
F227.0
sg6
F-6.5
sg7
F226.5
sg8
F1.0
sg9
F226.5
saa(lp721
V131902
p722
a(dp723
g5
F227.0
sg6
F-6.5
sg7
F226.5
sg8
F1.0
sg9
F226.5
saa(lp724
V131958
p725
a(dp726
g5
F227.0
sg6
F-6.5
sg7
F226.5
sg8
F1.0
sg9
F226.5
saa(lp727
V132053
p728
a(dp729
g5
F227.0
sg6
F-6.5
sg7
F226.5
sg8
F1.0
sg9
F226.5
saa(lp730
V132058
p731
a(dp732
g5
F227.0
sg6
F-6.5
sg7
F226.5
sg8
F1.0
sg9
F226.5
saa(lp733
V132229
p734
a(dp735
g5
F227.0
sg6
F-6.5
sg7
F226.5
sg8
F1.0
sg9
F226.5
saa(lp736
V132254
p737
a(dp738
g5
F227.0
sg6
F-6.5
sg7
F226.5
sg8
F3.0
sg9
F226.5
saa(lp739
V132349
p740
a(dp741
g5
F227.0
sg6
F-6.5
sg7
F226.5
sg8
F1.0
sg9
F226.5
saa(lp742
V132354
p743
a(dp744
g5
F227.0
sg6
F-6.5
sg7
F226.5
sg8
F1.0
sg9
F226.5
saa(lp745
V132359
p746
a(dp747
g5
F227.0
sg6
F-6.5
sg7
F226.5
sg8
F1.0
sg9
F226.5
saa(lp748
V132419
p749
a(dp750
g5
F227.0
sg6
F-6.5
sg7
F226.5
sg8
F1.0
sg9
F226.5
saa(lp751
V132424
p752
a(dp753
g5
F227.0
sg6
F-7.0
sg7
F226.0
sg8
F1.0
sg9
F226.0
saa(lp754
V133000
p755
a(dp756
g5
F227.0
sg6
F-7.0
sg7
F226.5
sg8
F28.0
sg9
F226.0
saa(lp757
V143000
p758
a(dp759
g5
F226.5
sg6
F-7.0
sg7
F226.0
sg8
F2.0
sg9
F226.0
saatp760
Rp761
.