ccollections
OrderedDict
p0
((lp1
(lp2
V090024
p3
a(dp4
S'sell'
p5
F250.5
sS'diff'
p6
F0.5
sS'buy'
p7
F248.0
sS'count'
p8
F1.0
sS'deal'
p9
F250.0
saa(lp10
V090039
p11
a(dp12
g5
F250.0
sg6
F0.5
sg7
F248.0
sg8
F1.0
sg9
F250.0
saa(lp13
V090135
p14
a(dp15
g5
F250.0
sg6
F0.5
sg7
F249.0
sg8
F3.0
sg9
F250.0
saa(lp16
V090145
p17
a(dp18
g5
F250.5
sg6
F1.0
sg7
F250.0
sg8
F1.0
sg9
F250.5
saa(lp19
V090350
p20
a(dp21
g5
F250.5
sg6
F0.5
sg7
F250.0
sg8
F1.0
sg9
F250.0
saa(lp22
V090355
p23
a(dp24
g5
F250.5
sg6
F1.0
sg7
F250.0
sg8
F2.0
sg9
F250.5
saa(lp25
V090400
p26
a(dp27
g5
F251.0
sg6
F0.5
sg7
F250.0
sg8
F1.0
sg9
F250.0
saa(lp28
V090505
p29
a(dp30
g5
F250.5
sg6
F0.5
sg7
F250.0
sg8
F1.0
sg9
F250.0
saa(lp31
V090515
p32
a(dp33
g5
F250.5
sg6
F0.5
sg7
F250.0
sg8
F2.0
sg9
F250.0
saa(lp34
V090525
p35
a(dp36
g5
F250.0
sg6
F0.5
sg7
F249.0
sg8
F1.0
sg9
F250.0
saa(lp37
V090530
p38
a(dp39
g5
F250.0
sg6
F-0.5
sg7
F249.0
sg8
F1.0
sg9
F249.0
saa(lp40
V090936
p41
a(dp42
g5
F250.0
sg6
F-0.5
sg7
F249.5
sg8
F1.0
sg9
F249.0
saa(lp43
V090941
p44
a(dp45
g5
F250.0
sg6
F0.5
sg7
F249.0
sg8
F1.0
sg9
F250.0
saa(lp46
V090957
p47
a(dp48
g5
F250.0
sg6
F-0.5
sg7
F249.0
sg8
F1.0
sg9
F249.0
saa(lp49
V091248
p50
a(dp51
g5
F249.5
sg6
F-0.5
sg7
F249.0
sg8
F1.0
sg9
F249.0
saa(lp52
V091428
p53
a(dp54
g5
F249.0
sg6
F-1.0
sg7
F248.5
sg8
F4.0
sg9
F248.5
saa(lp55
V091438
p56
a(dp57
g5
F249.0
sg6
F-1.5
sg7
F248.0
sg8
F2.0
sg9
F248.0
saa(lp58
V091448
p59
a(dp60
g5
F249.0
sg6
F-1.5
sg7
F248.0
sg8
F1.0
sg9
F248.0
saa(lp61
V091543
p62
a(dp63
g5
F248.0
sg6
F-2.0
sg7
F247.5
sg8
F1.0
sg9
F247.5
saa(lp64
V091548
p65
a(dp66
g5
F247.5
sg6
F-2.0
sg7
F247.0
sg8
F1.0
sg9
F247.5
saa(lp67
V091553
p68
a(dp69
g5
F247.5
sg6
F-2.0
sg7
F247.0
sg8
F1.0
sg9
F247.5
saa(lp70
V091603
p71
a(dp72
g5
F248.0
sg6
F-2.0
sg7
F247.5
sg8
F1.0
sg9
F247.5
saa(lp73
V091608
p74
a(dp75
g5
F248.0
sg6
F-2.0
sg7
F247.5
sg8
F1.0
sg9
F247.5
saa(lp76
V091648
p77
a(dp78
g5
F248.0
sg6
F-2.0
sg7
F247.5
sg8
F1.0
sg9
F247.5
saa(lp79
V091704
p80
a(dp81
g5
F248.0
sg6
F-2.0
sg7
F247.5
sg8
F1.0
sg9
F247.5
saa(lp82
V091714
p83
a(dp84
g5
F248.0
sg6
F-2.0
sg7
F247.5
sg8
F1.0
sg9
F247.5
saa(lp85
V091819
p86
a(dp87
g5
F248.0
sg6
F-2.0
sg7
F247.5
sg8
F1.0
sg9
F247.5
saa(lp88
V091834
p89
a(dp90
g5
F248.0
sg6
F-2.0
sg7
F247.5
sg8
F1.0
sg9
F247.5
saa(lp91
V092040
p92
a(dp93
g5
F248.0
sg6
F-1.5
sg7
F247.5
sg8
F1.0
sg9
F248.0
saa(lp94
V092822
p95
a(dp96
g5
F249.0
sg6
F-1.5
sg7
F248.0
sg8
F1.0
sg9
F248.0
saa(lp97
V092827
p98
a(dp99
g5
F249.0
sg6
F-1.0
sg7
F248.0
sg8
F1.0
sg9
F248.5
saa(lp100
V092832
p101
a(dp102
g5
F249.0
sg6
F-1.0
sg7
F248.5
sg8
F1.0
sg9
F248.5
saa(lp103
V092837
p104
a(dp105
g5
F248.5
sg6
F-1.5
sg7
F248.0
sg8
F1.0
sg9
F248.0
saa(lp106
V093203
p107
a(dp108
g5
F248.5
sg6
F-1.5
sg7
F248.0
sg8
F2.0
sg9
F248.0
saa(lp109
V093218
p110
a(dp111
g5
F248.5
sg6
F-1.5
sg7
F248.0
sg8
F1.0
sg9
F248.0
saa(lp112
V093438
p113
a(dp114
g5
F248.5
sg6
F-1.5
sg7
F248.0
sg8
F1.0
sg9
F248.0
saa(lp115
V093504
p116
a(dp117
g5
F248.5
sg6
F-2.5
sg7
F247.0
sg8
F10.0
sg9
F247.0
saa(lp118
V093509
p119
a(dp120
g5
F248.5
sg6
F-1.0
sg7
F247.0
sg8
F1.0
sg9
F248.5
saa(lp121
V093809
p122
a(dp123
g5
F248.5
sg6
F-2.5
sg7
F247.0
sg8
F1.0
sg9
F247.0
saa(lp124
V094101
p125
a(dp126
g5
F247.5
sg6
F-2.5
sg7
F247.0
sg8
F2.0
sg9
F247.0
saa(lp127
V094106
p128
a(dp129
g5
F247.5
sg6
F-2.0
sg7
F247.0
sg8
F1.0
sg9
F247.5
saa(lp130
V094246
p131
a(dp132
g5
F247.5
sg6
F-2.0
sg7
F247.0
sg8
F2.0
sg9
F247.5
saa(lp133
V094251
p134
a(dp135
g5
F247.5
sg6
F-2.0
sg7
F247.0
sg8
F1.0
sg9
F247.5
saa(lp136
V094301
p137
a(dp138
g5
F247.5
sg6
F-2.0
sg7
F247.0
sg8
F1.0
sg9
F247.5
saa(lp139
V094321
p140
a(dp141
g5
F247.5
sg6
F-2.0
sg7
F247.0
sg8
F1.0
sg9
F247.5
saa(lp142
V094617
p143
a(dp144
g5
F248.0
sg6
F-1.5
sg7
F247.5
sg8
F1.0
sg9
F248.0
saa(lp145
V095535
p146
a(dp147
g5
F248.5
sg6
F-1.0
sg7
F248.0
sg8
F1.0
sg9
F248.5
saa(lp148
V095640
p149
a(dp150
g5
F248.5
sg6
F-1.0
sg7
F248.0
sg8
F1.0
sg9
F248.5
saa(lp151
V095645
p152
a(dp153
g5
F248.5
sg6
F-1.5
sg7
F248.0
sg8
F1.0
sg9
F248.0
saa(lp154
V095710
p155
a(dp156
g5
F248.5
sg6
F-1.0
sg7
F248.0
sg8
F1.0
sg9
F248.5
saa(lp157
V095715
p158
a(dp159
g5
F248.5
sg6
F-1.0
sg7
F248.0
sg8
F1.0
sg9
F248.5
saa(lp160
V100332
p161
a(dp162
g5
F248.5
sg6
F-1.5
sg7
F248.0
sg8
F1.0
sg9
F248.0
saa(lp163
V100412
p164
a(dp165
g5
F248.5
sg6
F-1.5
sg7
F248.0
sg8
F4.0
sg9
F248.0
saa(lp166
V100708
p167
a(dp168
g5
F248.5
sg6
F-2.0
sg7
F247.5
sg8
F1.0
sg9
F247.5
saa(lp169
V101124
p170
a(dp171
g5
F248.0
sg6
F-2.0
sg7
F247.5
sg8
F1.0
sg9
F247.5
saa(lp172
V101209
p173
a(dp174
g5
F247.5
sg6
F-2.0
sg7
F247.0
sg8
F1.0
sg9
F247.5
saa(lp175
V101224
p176
a(dp177
g5
F247.5
sg6
F-2.0
sg7
F247.0
sg8
F2.0
sg9
F247.5
saa(lp178
V101230
p179
a(dp180
g5
F247.5
sg6
F-2.0
sg7
F247.0
sg8
F1.0
sg9
F247.5
saa(lp181
V101255
p182
a(dp183
g5
F248.0
sg6
F-3.0
sg7
F247.0
sg8
F21.0
sg9
F246.5
saa(lp184
V101305
p185
a(dp186
g5
F248.0
sg6
F-3.0
sg7
F246.5
sg8
F1.0
sg9
F246.5
saa(lp187
V101320
p188
a(dp189
g5
F247.0
sg6
F-3.5
sg7
F246.0
sg8
F13.0
sg9
F246.0
saa(lp190
V101330
p191
a(dp192
g5
F248.0
sg6
F-3.5
sg7
F246.0
sg8
F2.0
sg9
F246.0
saa(lp193
V101335
p194
a(dp195
g5
F248.0
sg6
F-3.5
sg7
F246.0
sg8
F1.0
sg9
F246.0
saa(lp196
V101340
p197
a(dp198
g5
F248.0
sg6
F-3.5
sg7
F246.0
sg8
F1.0
sg9
F246.0
saa(lp199
V101355
p200
a(dp201
g5
F247.5
sg6
F-3.5
sg7
F246.0
sg8
F1.0
sg9
F246.0
saa(lp202
V101405
p203
a(dp204
g5
F247.5
sg6
F-4.5
sg7
F245.5
sg8
F13.0
sg9
F245.0
saa(lp205
V101410
p206
a(dp207
g5
F247.5
sg6
F-2.0
sg7
F244.5
sg8
F1.0
sg9
F247.5
saa(lp208
V101455
p209
a(dp210
g5
F247.0
sg6
F-5.0
sg7
F245.5
sg8
F5.0
sg9
F244.5
saa(lp211
V101510
p212
a(dp213
g5
F247.0
sg6
F-5.0
sg7
F244.5
sg8
F6.0
sg9
F244.5
saa(lp214
V101515
p215
a(dp216
g5
F246.5
sg6
F-3.0
sg7
F244.5
sg8
F1.0
sg9
F246.5
saa(lp217
V101530
p218
a(dp219
g5
F246.0
sg6
F-3.5
sg7
F245.0
sg8
F2.0
sg9
F246.0
saa(lp220
V101535
p221
a(dp222
g5
F246.0
sg6
F-4.5
sg7
F245.0
sg8
F1.0
sg9
F245.0
saa(lp223
V101540
p224
a(dp225
g5
F246.0
sg6
F-5.0
sg7
F244.5
sg8
F2.0
sg9
F244.5
saa(lp226
V101545
p227
a(dp228
g5
F246.0
sg6
F-4.5
sg7
F244.5
sg8
F1.0
sg9
F245.0
saa(lp229
V101550
p230
a(dp231
g5
F246.5
sg6
F-3.0
sg7
F245.0
sg8
F1.0
sg9
F246.5
saa(lp232
V101555
p233
a(dp234
g5
F247.0
sg6
F-4.0
sg7
F245.0
sg8
F1.0
sg9
F245.5
saa(lp235
V101610
p236
a(dp237
g5
F246.5
sg6
F-4.5
sg7
F245.0
sg8
F2.0
sg9
F245.0
saa(lp238
V101646
p239
a(dp240
g5
F246.0
sg6
F-5.0
sg7
F245.0
sg8
F8.0
sg9
F244.5
saa(lp241
V101651
p242
a(dp243
g5
F246.0
sg6
F-3.5
sg7
F244.0
sg8
F1.0
sg9
F246.0
saa(lp244
V101706
p245
a(dp246
g5
F246.0
sg6
F-5.5
sg7
F244.5
sg8
F6.0
sg9
F244.0
saa(lp247
V101721
p248
a(dp249
g5
F245.5
sg6
F-4.5
sg7
F244.0
sg8
F1.0
sg9
F245.0
saa(lp250
V101726
p251
a(dp252
g5
F245.5
sg6
F-6.5
sg7
F244.0
sg8
F10.0
sg9
F243.0
saa(lp253
V101731
p254
a(dp255
g5
F245.5
sg6
F-4.0
sg7
F243.0
sg8
F1.0
sg9
F245.5
saa(lp256
V101751
p257
a(dp258
g5
F245.0
sg6
F-4.5
sg7
F243.5
sg8
F2.0
sg9
F245.0
saa(lp259
V101826
p260
a(dp261
g5
F245.5
sg6
F-4.0
sg7
F245.0
sg8
F1.0
sg9
F245.5
saa(lp262
V101851
p263
a(dp264
g5
F246.0
sg6
F-4.0
sg7
F245.5
sg8
F1.0
sg9
F245.5
saa(lp265
V102022
p266
a(dp267
g5
F246.0
sg6
F-3.5
sg7
F245.5
sg8
F1.0
sg9
F246.0
saa(lp268
V102047
p269
a(dp270
g5
F246.0
sg6
F-3.5
sg7
F245.5
sg8
F1.0
sg9
F246.0
saa(lp271
V102122
p272
a(dp273
g5
F246.0
sg6
F-3.5
sg7
F245.5
sg8
F2.0
sg9
F246.0
saa(lp274
V102312
p275
a(dp276
g5
F246.5
sg6
F-3.5
sg7
F246.0
sg8
F2.0
sg9
F246.0
saa(lp277
V102343
p278
a(dp279
g5
F246.5
sg6
F-3.5
sg7
F246.0
sg8
F2.0
sg9
F246.0
saa(lp280
V102728
p281
a(dp282
g5
F246.0
sg6
F-4.0
sg7
F245.5
sg8
F1.0
sg9
F245.5
saa(lp283
V102949
p284
a(dp285
g5
F246.0
sg6
F-4.0
sg7
F245.5
sg8
F1.0
sg9
F245.5
saa(lp286
V103115
p287
a(dp288
g5
F246.0
sg6
F-4.5
sg7
F245.0
sg8
F1.0
sg9
F245.0
saa(lp289
V103701
p290
a(dp291
g5
F246.0
sg6
F-4.0
sg7
F245.0
sg8
F1.0
sg9
F245.5
saa(lp292
V103706
p293
a(dp294
g5
F246.0
sg6
F-4.0
sg7
F245.5
sg8
F1.0
sg9
F245.5
saa(lp295
V104248
p296
a(dp297
g5
F246.0
sg6
F-4.0
sg7
F245.5
sg8
F1.0
sg9
F245.5
saa(lp298
V104323
p299
a(dp300
g5
F246.0
sg6
F-4.0
sg7
F245.5
sg8
F2.0
sg9
F245.5
saa(lp301
V104328
p302
a(dp303
g5
F246.0
sg6
F-3.5
sg7
F245.5
sg8
F1.0
sg9
F246.0
saa(lp304
V104418
p305
a(dp306
g5
F246.0
sg6
F-4.0
sg7
F245.5
sg8
F1.0
sg9
F245.5
saa(lp307
V104423
p308
a(dp309
g5
F246.0
sg6
F-4.0
sg7
F245.5
sg8
F1.0
sg9
F245.5
saa(lp310
V104433
p311
a(dp312
g5
F246.0
sg6
F-3.5
sg7
F245.5
sg8
F5.0
sg9
F246.0
saa(lp313
V104438
p314
a(dp315
g5
F246.0
sg6
F-4.0
sg7
F245.5
sg8
F1.0
sg9
F245.5
saa(lp316
V104443
p317
a(dp318
g5
F246.0
sg6
F-3.5
sg7
F245.5
sg8
F1.0
sg9
F246.0
saa(lp319
V104448
p320
a(dp321
g5
F246.0
sg6
F-3.5
sg7
F245.5
sg8
F1.0
sg9
F246.0
saa(lp322
V104453
p323
a(dp324
g5
F246.0
sg6
F-4.0
sg7
F245.5
sg8
F1.0
sg9
F245.5
saa(lp325
V104458
p326
a(dp327
g5
F246.0
sg6
F-3.5
sg7
F245.5
sg8
F1.0
sg9
F246.0
saa(lp328
V104514
p329
a(dp330
g5
F246.5
sg6
F-3.0
sg7
F245.5
sg8
F3.0
sg9
F246.5
saa(lp331
V104609
p332
a(dp333
g5
F246.5
sg6
F-3.0
sg7
F246.0
sg8
F1.0
sg9
F246.5
saa(lp334
V104844
p335
a(dp336
g5
F246.5
sg6
F-3.0
sg7
F246.0
sg8
F1.0
sg9
F246.5
saa(lp337
V104849
p338
a(dp339
g5
F246.5
sg6
F-3.0
sg7
F246.0
sg8
F1.0
sg9
F246.5
saa(lp340
V104854
p341
a(dp342
g5
F247.0
sg6
F-2.5
sg7
F246.0
sg8
F1.0
sg9
F247.0
saa(lp343
V105141
p344
a(dp345
g5
F247.0
sg6
F-2.5
sg7
F246.5
sg8
F1.0
sg9
F247.0
saa(lp346
V105356
p347
a(dp348
g5
F247.0
sg6
F-2.5
sg7
F246.5
sg8
F1.0
sg9
F247.0
saa(lp349
V105401
p350
a(dp351
g5
F247.0
sg6
F-2.5
sg7
F246.5
sg8
F1.0
sg9
F247.0
saa(lp352
V105441
p353
a(dp354
g5
F247.0
sg6
F-2.5
sg7
F246.5
sg8
F1.0
sg9
F247.0
saa(lp355
V105446
p356
a(dp357
g5
F247.5
sg6
F-2.5
sg7
F247.0
sg8
F1.0
sg9
F247.0
saa(lp358
V110013
p359
a(dp360
g5
F247.5
sg6
F-2.0
sg7
F247.0
sg8
F1.0
sg9
F247.5
saa(lp361
V110249
p362
a(dp363
g5
F247.5
sg6
F-2.5
sg7
F247.0
sg8
F1.0
sg9
F247.0
saa(lp364
V110414
p365
a(dp366
g5
F247.5
sg6
F-2.5
sg7
F247.0
sg8
F1.0
sg9
F247.0
saa(lp367
V110424
p368
a(dp369
g5
F247.5
sg6
F-2.5
sg7
F247.0
sg8
F1.0
sg9
F247.0
saa(lp370
V110429
p371
a(dp372
g5
F247.5
sg6
F-2.0
sg7
F247.0
sg8
F1.0
sg9
F247.5
saa(lp373
V110635
p374
a(dp375
g5
F247.5
sg6
F-2.5
sg7
F247.0
sg8
F1.0
sg9
F247.0
saa(lp376
V110640
p377
a(dp378
g5
F247.5
sg6
F-2.5
sg7
F247.0
sg8
F2.0
sg9
F247.0
saa(lp379
V110645
p380
a(dp381
g5
F247.5
sg6
F-2.0
sg7
F246.5
sg8
F1.0
sg9
F247.5
saa(lp382
V110900
p383
a(dp384
g5
F247.0
sg6
F-3.0
sg7
F246.5
sg8
F2.0
sg9
F246.5
saa(lp385
V111051
p386
a(dp387
g5
F246.5
sg6
F-3.5
sg7
F246.0
sg8
F1.0
sg9
F246.0
saa(lp388
V112430
p389
a(dp390
g5
F246.0
sg6
F-3.5
sg7
F245.5
sg8
F1.0
sg9
F246.0
saa(lp391
V112615
p392
a(dp393
g5
F246.0
sg6
F-4.0
sg7
F245.5
sg8
F10.0
sg9
F245.5
saa(lp394
V112620
p395
a(dp396
g5
F246.0
sg6
F-3.5
sg7
F245.0
sg8
F1.0
sg9
F246.0
saa(lp397
V112625
p398
a(dp399
g5
F246.0
sg6
F-3.5
sg7
F245.0
sg8
F1.0
sg9
F246.0
saa(lp400
V112640
p401
a(dp402
g5
F245.5
sg6
F-4.0
sg7
F245.0
sg8
F1.0
sg9
F245.5
saa(lp403
V112706
p404
a(dp405
g5
F245.5
sg6
F-4.5
sg7
F245.0
sg8
F1.0
sg9
F245.0
saa(lp406
V112721
p407
a(dp408
g5
F245.5
sg6
F-4.5
sg7
F245.0
sg8
F1.0
sg9
F245.0
saa(lp409
V112741
p410
a(dp411
g5
F245.5
sg6
F-4.5
sg7
F245.0
sg8
F6.0
sg9
F245.0
saa(lp412
V112746
p413
a(dp414
g5
F245.0
sg6
F-5.0
sg7
F244.5
sg8
F2.0
sg9
F244.5
saa(lp415
V112826
p416
a(dp417
g5
F244.5
sg6
F-5.5
sg7
F244.0
sg8
F1.0
sg9
F244.0
saa(lp418
V112856
p419
a(dp420
g5
F244.5
sg6
F-5.5
sg7
F244.0
sg8
F1.0
sg9
F244.0
saa(lp421
V112901
p422
a(dp423
g5
F244.5
sg6
F-5.5
sg7
F244.0
sg8
F1.0
sg9
F244.0
saa(lp424
V112936
p425
a(dp426
g5
F244.5
sg6
F-5.5
sg7
F244.0
sg8
F3.0
sg9
F244.0
saa(lp427
V112941
p428
a(dp429
g5
F244.5
sg6
F-5.0
sg7
F244.0
sg8
F1.0
sg9
F244.5
saa(lp430
V113022
p431
a(dp432
g5
F244.5
sg6
F-5.0
sg7
F244.0
sg8
F1.0
sg9
F244.5
saa(lp433
V113032
p434
a(dp435
g5
F245.0
sg6
F-4.5
sg7
F244.5
sg8
F1.0
sg9
F245.0
saa(lp436
V113052
p437
a(dp438
g5
F245.0
sg6
F-4.5
sg7
F244.5
sg8
F1.0
sg9
F245.0
saa(lp439
V113057
p440
a(dp441
g5
F245.0
sg6
F-4.5
sg7
F244.5
sg8
F1.0
sg9
F245.0
saa(lp442
V113247
p443
a(dp444
g5
F245.0
sg6
F-4.5
sg7
F244.5
sg8
F1.0
sg9
F245.0
saa(lp445
V114135
p446
a(dp447
g5
F245.5
sg6
F-4.5
sg7
F245.0
sg8
F1.0
sg9
F245.0
saa(lp448
V114837
p449
a(dp450
g5
F245.5
sg6
F-4.0
sg7
F245.0
sg8
F1.0
sg9
F245.5
saa(lp451
V114842
p452
a(dp453
g5
F245.5
sg6
F-4.0
sg7
F245.0
sg8
F1.0
sg9
F245.5
saa(lp454
V114907
p455
a(dp456
g5
F245.5
sg6
F-4.0
sg7
F245.0
sg8
F1.0
sg9
F245.5
saa(lp457
V114912
p458
a(dp459
g5
F246.0
sg6
F-3.5
sg7
F245.0
sg8
F1.0
sg9
F246.0
saa(lp460
V115018
p461
a(dp462
g5
F245.5
sg6
F-4.5
sg7
F245.0
sg8
F5.0
sg9
F245.0
saa(lp463
V115023
p464
a(dp465
g5
F245.5
sg6
F-4.0
sg7
F245.0
sg8
F1.0
sg9
F245.5
saa(lp466
V115028
p467
a(dp468
g5
F246.0
sg6
F-4.0
sg7
F245.5
sg8
F2.0
sg9
F245.5
saa(lp469
V115133
p470
a(dp471
g5
F245.5
sg6
F-4.5
sg7
F245.0
sg8
F2.0
sg9
F245.0
saa(lp472
V115143
p473
a(dp474
g5
F245.0
sg6
F-4.5
sg7
F244.5
sg8
F1.0
sg9
F245.0
saa(lp475
V115148
p476
a(dp477
g5
F245.0
sg6
F-4.5
sg7
F244.5
sg8
F1.0
sg9
F245.0
saa(lp478
V115243
p479
a(dp480
g5
F245.0
sg6
F-5.0
sg7
F244.5
sg8
F1.0
sg9
F244.5
saa(lp481
V115413
p482
a(dp483
g5
F245.0
sg6
F-5.0
sg7
F244.5
sg8
F1.0
sg9
F244.5
saa(lp484
V115458
p485
a(dp486
g5
F244.5
sg6
F-5.0
sg7
F244.0
sg8
F1.0
sg9
F244.5
saa(lp487
V115524
p488
a(dp489
g5
F244.5
sg6
F-5.0
sg7
F244.0
sg8
F1.0
sg9
F244.5
saa(lp490
V115534
p491
a(dp492
g5
F244.5
sg6
F-5.0
sg7
F244.0
sg8
F1.0
sg9
F244.5
saa(lp493
V115539
p494
a(dp495
g5
F244.5
sg6
F-4.5
sg7
F244.0
sg8
F1.0
sg9
F245.0
saa(lp496
V115749
p497
a(dp498
g5
F245.0
sg6
F-5.0
sg7
F244.5
sg8
F1.0
sg9
F244.5
saa(lp499
V115824
p500
a(dp501
g5
F245.0
sg6
F-5.0
sg7
F244.5
sg8
F1.0
sg9
F244.5
saa(lp502
V115829
p503
a(dp504
g5
F245.0
sg6
F-5.0
sg7
F244.5
sg8
F1.0
sg9
F244.5
saa(lp505
V115834
p506
a(dp507
g5
F244.5
sg6
F-5.0
sg7
F244.0
sg8
F1.0
sg9
F244.5
saa(lp508
V115849
p509
a(dp510
g5
F244.5
sg6
F-5.0
sg7
F244.0
sg8
F1.0
sg9
F244.5
saa(lp511
V115854
p512
a(dp513
g5
F244.5
sg6
F-5.0
sg7
F244.0
sg8
F2.0
sg9
F244.5
saa(lp514
V120010
p515
a(dp516
g5
F245.0
sg6
F-4.5
sg7
F244.0
sg8
F1.0
sg9
F245.0
saa(lp517
V120241
p518
a(dp519
g5
F245.0
sg6
F-4.5
sg7
F244.0
sg8
F1.0
sg9
F245.0
saa(lp520
V120436
p521
a(dp522
g5
F245.0
sg6
F-5.0
sg7
F244.5
sg8
F1.0
sg9
F244.5
saa(lp523
V120657
p524
a(dp525
g5
F245.0
sg6
F-4.5
sg7
F244.0
sg8
F1.0
sg9
F245.0
saa(lp526
V121204
p527
a(dp528
g5
F245.0
sg6
F-5.0
sg7
F244.5
sg8
F1.0
sg9
F244.5
saa(lp529
V122021
p530
a(dp531
g5
F245.0
sg6
F-5.0
sg7
F244.5
sg8
F2.0
sg9
F244.5
saa(lp532
V122026
p533
a(dp534
g5
F245.0
sg6
F-4.5
sg7
F244.5
sg8
F1.0
sg9
F245.0
saa(lp535
V122111
p536
a(dp537
g5
F245.0
sg6
F-5.0
sg7
F244.5
sg8
F4.0
sg9
F244.5
saa(lp538
V122552
p539
a(dp540
g5
F244.5
sg6
F-5.0
sg7
F244.0
sg8
F1.0
sg9
F244.5
saa(lp541
V122838
p542
a(dp543
g5
F244.5
sg6
F-5.5
sg7
F244.0
sg8
F5.0
sg9
F244.0
saa(lp544
V122843
p545
a(dp546
g5
F244.5
sg6
F-5.5
sg7
F244.0
sg8
F5.0
sg9
F244.0
saa(lp547
V122848
p548
a(dp549
g5
F244.5
sg6
F-5.0
sg7
F244.0
sg8
F1.0
sg9
F244.5
saa(lp550
V122903
p551
a(dp552
g5
F244.5
sg6
F-5.5
sg7
F244.0
sg8
F4.0
sg9
F244.0
saa(lp553
V122908
p554
a(dp555
g5
F244.0
sg6
F-5.5
sg7
F243.5
sg8
F1.0
sg9
F244.0
saa(lp556
V122943
p557
a(dp558
g5
F244.5
sg6
F-6.0
sg7
F243.5
sg8
F2.0
sg9
F243.5
saa(lp559
V123325
p560
a(dp561
g5
F244.5
sg6
F-6.0
sg7
F243.5
sg8
F1.0
sg9
F243.5
saa(lp562
V123455
p563
a(dp564
g5
F244.0
sg6
F-5.5
sg7
F243.5
sg8
F2.0
sg9
F244.0
saa(lp565
V123500
p566
a(dp567
g5
F244.0
sg6
F-5.5
sg7
F243.5
sg8
F4.0
sg9
F244.0
saa(lp568
V123505
p569
a(dp570
g5
F244.5
sg6
F-5.0
sg7
F243.5
sg8
F2.0
sg9
F244.5
saa(lp571
V123515
p572
a(dp573
g5
F245.0
sg6
F-4.5
sg7
F243.5
sg8
F1.0
sg9
F245.0
saa(lp574
V123841
p575
a(dp576
g5
F245.0
sg6
F-5.5
sg7
F244.0
sg8
F1.0
sg9
F244.0
saa(lp577
V123846
p578
a(dp579
g5
F245.0
sg6
F-5.5
sg7
F244.0
sg8
F1.0
sg9
F244.0
saa(lp580
V124027
p581
a(dp582
g5
F245.0
sg6
F-5.5
sg7
F244.0
sg8
F1.0
sg9
F244.0
saa(lp583
V124147
p584
a(dp585
g5
F244.5
sg6
F-5.5
sg7
F244.0
sg8
F1.0
sg9
F244.0
saa(lp586
V124758
p587
a(dp588
g5
F244.5
sg6
F-5.0
sg7
F244.0
sg8
F1.0
sg9
F244.5
saa(lp589
V124803
p590
a(dp591
g5
F244.5
sg6
F-5.0
sg7
F244.0
sg8
F1.0
sg9
F244.5
saa(lp592
V124849
p593
a(dp594
g5
F244.5
sg6
F-5.0
sg7
F244.0
sg8
F1.0
sg9
F244.5
saa(lp595
V124934
p596
a(dp597
g5
F245.0
sg6
F-5.0
sg7
F244.5
sg8
F1.0
sg9
F244.5
saa(lp598
V125005
p599
a(dp600
g5
F245.0
sg6
F-5.0
sg7
F244.5
sg8
F1.0
sg9
F244.5
saa(lp601
V125646
p602
a(dp603
g5
F244.5
sg6
F-5.5
sg7
F244.0
sg8
F1.0
sg9
F244.0
saa(lp604
V125801
p605
a(dp606
g5
F244.5
sg6
F-5.5
sg7
F244.0
sg8
F1.0
sg9
F244.0
saa(lp607
V125917
p608
a(dp609
g5
F244.5
sg6
F-5.5
sg7
F244.0
sg8
F4.0
sg9
F244.0
saa(lp610
V125922
p611
a(dp612
g5
F244.0
sg6
F-6.0
sg7
F243.5
sg8
F2.0
sg9
F243.5
saa(lp613
V125957
p614
a(dp615
g5
F244.0
sg6
F-5.5
sg7
F243.5
sg8
F1.0
sg9
F244.0
saa(lp616
V130002
p617
a(dp618
g5
F244.0
sg6
F-5.5
sg7
F243.5
sg8
F1.0
sg9
F244.0
saa(lp619
V130007
p620
a(dp621
g5
F244.0
sg6
F-5.5
sg7
F243.5
sg8
F1.0
sg9
F244.0
saa(lp622
V130027
p623
a(dp624
g5
F244.0
sg6
F-5.5
sg7
F243.5
sg8
F1.0
sg9
F244.0
saa(lp625
V130152
p626
a(dp627
g5
F244.5
sg6
F-5.5
sg7
F244.0
sg8
F1.0
sg9
F244.0
saa(lp628
V130158
p629
a(dp630
g5
F244.5
sg6
F-5.0
sg7
F244.0
sg8
F1.0
sg9
F244.5
saa(lp631
V130203
p632
a(dp633
g5
F244.5
sg6
F-5.0
sg7
F244.0
sg8
F1.0
sg9
F244.5
saa(lp634
V130323
p635
a(dp636
g5
F244.5
sg6
F-5.5
sg7
F244.0
sg8
F1.0
sg9
F244.0
saa(lp637
V130328
p638
a(dp639
g5
F244.5
sg6
F-5.0
sg7
F243.5
sg8
F2.0
sg9
F244.5
saa(lp640
V130338
p641
a(dp642
g5
F244.5
sg6
F-5.0
sg7
F243.5
sg8
F1.0
sg9
F244.5
saa(lp643
V130624
p644
a(dp645
g5
F244.5
sg6
F-5.5
sg7
F244.0
sg8
F1.0
sg9
F244.0
saa(lp646
V130659
p647
a(dp648
g5
F244.5
sg6
F-5.0
sg7
F244.0
sg8
F1.0
sg9
F244.5
saa(lp649
V130809
p650
a(dp651
g5
F245.0
sg6
F-5.0
sg7
F244.5
sg8
F1.0
sg9
F244.5
saa(lp652
V131005
p653
a(dp654
g5
F245.0
sg6
F-5.0
sg7
F244.5
sg8
F2.0
sg9
F244.5
saa(lp655
V131331
p656
a(dp657
g5
F245.0
sg6
F-5.0
sg7
F244.5
sg8
F1.0
sg9
F244.5
saa(lp658
V131451
p659
a(dp660
g5
F245.0
sg6
F-5.0
sg7
F244.5
sg8
F6.0
sg9
F244.5
saa(lp661
V131456
p662
a(dp663
g5
F245.0
sg6
F-4.5
sg7
F244.5
sg8
F1.0
sg9
F245.0
saa(lp664
V131611
p665
a(dp666
g5
F245.0
sg6
F-4.5
sg7
F244.5
sg8
F3.0
sg9
F245.0
saa(lp667
V131616
p668
a(dp669
g5
F245.0
sg6
F-4.5
sg7
F244.5
sg8
F2.0
sg9
F245.0
saa(lp670
V131621
p671
a(dp672
g5
F245.5
sg6
F-4.0
sg7
F245.0
sg8
F1.0
sg9
F245.5
saa(lp673
V131646
p674
a(dp675
g5
F245.5
sg6
F-4.0
sg7
F245.0
sg8
F2.0
sg9
F245.5
saa(lp676
V131651
p677
a(dp678
g5
F246.0
sg6
F-3.5
sg7
F245.0
sg8
F1.0
sg9
F246.0
saa(lp679
V131722
p680
a(dp681
g5
F246.0
sg6
F-4.0
sg7
F245.0
sg8
F1.0
sg9
F245.5
saa(lp682
V131727
p683
a(dp684
g5
F246.0
sg6
F-3.5
sg7
F245.0
sg8
F1.0
sg9
F246.0
saa(lp685
V131822
p686
a(dp687
g5
F246.0
sg6
F-4.0
sg7
F245.5
sg8
F1.0
sg9
F245.5
saa(lp688
V131847
p689
a(dp690
g5
F246.0
sg6
F-4.0
sg7
F245.5
sg8
F1.0
sg9
F245.5
saa(lp691
V131857
p692
a(dp693
g5
F246.0
sg6
F-4.0
sg7
F245.5
sg8
F1.0
sg9
F245.5
saa(lp694
V131927
p695
a(dp696
g5
F246.0
sg6
F-4.0
sg7
F245.5
sg8
F1.0
sg9
F245.5
saa(lp697
V131957
p698
a(dp699
g5
F246.0
sg6
F-3.5
sg7
F245.5
sg8
F1.0
sg9
F246.0
saa(lp700
V132043
p701
a(dp702
g5
F246.0
sg6
F-4.0
sg7
F245.5
sg8
F1.0
sg9
F245.5
saa(lp703
V132153
p704
a(dp705
g5
F246.0
sg6
F-3.5
sg7
F245.5
sg8
F1.0
sg9
F246.0
saa(lp706
V132158
p707
a(dp708
g5
F246.0
sg6
F-3.5
sg7
F245.5
sg8
F1.0
sg9
F246.0
saa(lp709
V132203
p710
a(dp711
g5
F246.0
sg6
F-3.5
sg7
F245.5
sg8
F1.0
sg9
F246.0
saa(lp712
V132208
p713
a(dp714
g5
F246.0
sg6
F-3.5
sg7
F245.5
sg8
F1.0
sg9
F246.0
saa(lp715
V132233
p716
a(dp717
g5
F246.5
sg6
F-3.5
sg7
F246.0
sg8
F3.0
sg9
F246.0
saa(lp718
V132238
p719
a(dp720
g5
F246.5
sg6
F-3.0
sg7
F246.0
sg8
F2.0
sg9
F246.5
saa(lp721
V132243
p722
a(dp723
g5
F247.0
sg6
F-2.5
sg7
F246.0
sg8
F1.0
sg9
F247.0
saa(lp724
V132328
p725
a(dp726
g5
F247.0
sg6
F-2.5
sg7
F246.5
sg8
F1.0
sg9
F247.0
saa(lp727
V132333
p728
a(dp729
g5
F247.0
sg6
F-3.0
sg7
F246.5
sg8
F2.0
sg9
F246.5
saa(lp730
V132338
p731
a(dp732
g5
F247.0
sg6
F-2.5
sg7
F246.0
sg8
F2.0
sg9
F247.0
saa(lp733
V132358
p734
a(dp735
g5
F247.0
sg6
F-2.5
sg7
F246.0
sg8
F1.0
sg9
F247.0
saa(lp736
V132434
p737
a(dp738
g5
F247.5
sg6
F-3.5
sg7
F246.0
sg8
F1.0
sg9
F246.0
saa(lp739
V132459
p740
a(dp741
g5
F247.0
sg6
F-3.0
sg7
F246.5
sg8
F1.0
sg9
F246.5
saa(lp742
V133000
p743
a(dp744
g5
F250.5
sg6
F1.0
sg7
F249.0
sg8
F85.0
sg9
F250.5
saatp745
Rp746
.