ccollections
OrderedDict
p1
((lp2
(lp3
V090103
p4
a(dp5
S'sell'
p6
F228.5
sS'diff'
p7
F0
sS'buy'
p8
F228
sS'count'
p9
F1
sS'deal'
p10
F228
saa(lp11
V090108
p12
a(dp13
g6
F228.5
sg7
F0
sg8
F228
sg9
F2
sg10
F228
saa(lp14
V090123
p15
a(dp16
g6
F227.5
sg7
F-1
sg8
F227
sg9
F1
sg10
F227
saa(lp17
V090138
p18
a(dp19
g6
F227.5
sg7
F-1
sg8
F227
sg9
F1
sg10
F227
saa(lp20
V090203
p21
a(dp22
g6
F227.5
sg7
F-1
sg8
F227
sg9
F2
sg10
F227
saa(lp23
V090208
p24
a(dp25
g6
F227.5
sg7
F-1
sg8
F227
sg9
F9
sg10
F227
saa(lp26
V090223
p27
a(dp28
g6
F227
sg7
F-1.5
sg8
F226.5
sg9
F11
sg10
F226.5
saa(lp29
V090228
p30
a(dp31
g6
F227
sg7
F-2
sg8
F226.5
sg9
F2
sg10
F226
saa(lp32
V090253
p33
a(dp34
g6
F226.5
sg7
F-2
sg8
F226
sg9
F1
sg10
F226
saa(lp35
V090308
p36
a(dp37
g6
F226.5
sg7
F-2
sg8
F226
sg9
F3
sg10
F226
saa(lp38
V090313
p39
a(dp40
g6
F226.5
sg7
F-2
sg8
F226
sg9
F1
sg10
F226
saa(lp41
V090403
p42
a(dp43
g6
F226.5
sg7
F-2
sg8
F226
sg9
F1
sg10
F226
saa(lp44
V090408
p45
a(dp46
g6
F226.5
sg7
F-2
sg8
F226
sg9
F1
sg10
F226
saa(lp47
V090413
p48
a(dp49
g6
F226.5
sg7
F-2
sg8
F226
sg9
F4
sg10
F226
saa(lp50
V090423
p51
a(dp52
g6
F226.5
sg7
F-2
sg8
F226
sg9
F3
sg10
F226
saa(lp53
V090428
p54
a(dp55
g6
F226.5
sg7
F-2
sg8
F226
sg9
F1
sg10
F226
saa(lp56
V090434
p57
a(dp58
g6
F226.5
sg7
F-2
sg8
F226
sg9
F3
sg10
F226
saa(lp59
V090444
p60
a(dp61
g6
F226
sg7
F-2
sg8
F225.5
sg9
F1
sg10
F226
saa(lp62
V090614
p63
a(dp64
g6
F226
sg7
F-2
sg8
F225.5
sg9
F1
sg10
F226
saa(lp65
V090645
p66
a(dp67
g6
F226
sg7
F-2.5
sg8
F225.5
sg9
F3
sg10
F225.5
saa(lp68
V090650
p69
a(dp70
g6
F226
sg7
F-2.5
sg8
F225.5
sg9
F4
sg10
F225.5
saa(lp71
V090705
p72
a(dp73
g6
F226
sg7
F-2.5
sg8
F225.5
sg9
F1
sg10
F225.5
saa(lp74
V090715
p75
a(dp76
g6
F226
sg7
F-2.5
sg8
F225.5
sg9
F5
sg10
F225.5
saa(lp77
V090805
p78
a(dp79
g6
F225.5
sg7
F-3
sg8
F225
sg9
F1
sg10
F225
saa(lp80
V090950
p81
a(dp82
g6
F225.5
sg7
F-3
sg8
F225
sg9
F1
sg10
F225
saa(lp83
V091055
p84
a(dp85
g6
F225.5
sg7
F-2.5
sg8
F225
sg9
F9
sg10
F225.5
saa(lp86
V091100
p87
a(dp88
g6
F226
sg7
F-2.5
sg8
F225.5
sg9
F1
sg10
F225.5
saa(lp89
V091111
p90
a(dp91
g6
F226
sg7
F-2
sg8
F225.5
sg9
F1
sg10
F226
saa(lp92
V091136
p93
a(dp94
g6
F226
sg7
F-2
sg8
F225.5
sg9
F1
sg10
F226
saa(lp95
V091146
p96
a(dp97
g6
F226
sg7
F-2
sg8
F225.5
sg9
F5
sg10
F226
saa(lp98
V091151
p99
a(dp100
g6
F227
sg7
F-1
sg8
F225.5
sg9
F1
sg10
F227
saa(lp101
V091221
p102
a(dp103
g6
F227
sg7
F-1
sg8
F225.5
sg9
F2
sg10
F227
saa(lp104
V092530
p105
a(dp106
g6
F226.5
sg7
F-1.5
sg8
F226
sg9
F1
sg10
F226.5
saa(lp107
V092710
p108
a(dp109
g6
F226.5
sg7
F-1.5
sg8
F226
sg9
F9
sg10
F226.5
saa(lp110
V092715
p111
a(dp112
g6
F227
sg7
F-1
sg8
F226.5
sg9
F3
sg10
F227
saa(lp113
V093507
p114
a(dp115
g6
F227.5
sg7
F-1
sg8
F227
sg9
F1
sg10
F227
saa(lp116
V093517
p117
a(dp118
g6
F227.5
sg7
F-0.5
sg8
F227
sg9
F1
sg10
F227.5
saa(lp119
V093938
p120
a(dp121
g6
F227.5
sg7
F-0.5
sg8
F227
sg9
F1
sg10
F227.5
saa(lp122
V094234
p123
a(dp124
g6
F227.5
sg7
F-0.5
sg8
F227
sg9
F3
sg10
F227.5
saa(lp125
V094239
p126
a(dp127
g6
F227.5
sg7
F-0.5
sg8
F227
sg9
F1
sg10
F227.5
saa(lp128
V094510
p129
a(dp130
g6
F227.5
sg7
F-1
sg8
F227
sg9
F3
sg10
F227
saa(lp131
V094515
p132
a(dp133
g6
F227.5
sg7
F-1
sg8
F227
sg9
F1
sg10
F227
saa(lp134
V094525
p135
a(dp136
g6
F227.5
sg7
F-1
sg8
F227
sg9
F1
sg10
F227
saa(lp137
V094530
p138
a(dp139
g6
F227.5
sg7
F-1
sg8
F227
sg9
F2
sg10
F227
saa(lp140
V094646
p141
a(dp142
g6
F227
sg7
F-1
sg8
F226.5
sg9
F1
sg10
F227
saa(lp143
V094656
p144
a(dp145
g6
F227
sg7
F-1
sg8
F226.5
sg9
F1
sg10
F227
saa(lp146
V094846
p147
a(dp148
g6
F227
sg7
F-1
sg8
F226.5
sg9
F1
sg10
F227
saa(lp149
V095107
p150
a(dp151
g6
F227
sg7
F-1
sg8
F226.5
sg9
F9
sg10
F227
saa(lp152
V095112
p153
a(dp154
g6
F227.5
sg7
F-0.5
sg8
F227
sg9
F2
sg10
F227.5
saa(lp155
V095127
p156
a(dp157
g6
F227.5
sg7
F-1
sg8
F227
sg9
F4
sg10
F227
saa(lp158
V095207
p159
a(dp160
g6
F227.5
sg7
F-1
sg8
F227
sg9
F1
sg10
F227
saa(lp161
V095307
p162
a(dp163
g6
F227.5
sg7
F-1
sg8
F227
sg9
F2
sg10
F227
saa(lp164
V095312
p165
a(dp166
g6
F227.5
sg7
F-1
sg8
F227
sg9
F4
sg10
F227
saa(lp167
V095317
p168
a(dp169
g6
F227.5
sg7
F-1
sg8
F227
sg9
F1
sg10
F227
saa(lp170
V095503
p171
a(dp172
g6
F227.5
sg7
F-1
sg8
F227
sg9
F1
sg10
F227
saa(lp173
V095603
p174
a(dp175
g6
F227.5
sg7
F-1
sg8
F227
sg9
F1
sg10
F227
saa(lp176
V095648
p177
a(dp178
g6
F227.5
sg7
F-1
sg8
F227
sg9
F1
sg10
F227
saa(lp179
V095653
p180
a(dp181
g6
F227.5
sg7
F-1
sg8
F227
sg9
F3
sg10
F227
saa(lp182
V100826
p183
a(dp184
g6
F227
sg7
F-1
sg8
F226.5
sg9
F1
sg10
F227
saa(lp185
V100942
p186
a(dp187
g6
F227
sg7
F-1
sg8
F226.5
sg9
F1
sg10
F227
saa(lp188
V101222
p189
a(dp190
g6
F227
sg7
F-1
sg8
F226.5
sg9
F1
sg10
F227
saa(lp191
V101323
p192
a(dp193
g6
F227
sg7
F-1
sg8
F226.5
sg9
F1
sg10
F227
saa(lp194
V101358
p195
a(dp196
g6
F227
sg7
F-1
sg8
F226.5
sg9
F1
sg10
F227
saa(lp197
V101503
p198
a(dp199
g6
F227
sg7
F-1
sg8
F226.5
sg9
F1
sg10
F227
saa(lp200
V101634
p201
a(dp202
g6
F227
sg7
F-1
sg8
F226.5
sg9
F7
sg10
F227
saa(lp203
V101639
p204
a(dp205
g6
F227.5
sg7
F-0.5
sg8
F227
sg9
F2
sg10
F227.5
saa(lp206
V101659
p207
a(dp208
g6
F227.5
sg7
F-0.5
sg8
F227
sg9
F1
sg10
F227.5
saa(lp209
V102516
p210
a(dp211
g6
F227.5
sg7
F-0.5
sg8
F227
sg9
F5
sg10
F227.5
saa(lp212
V102611
p213
a(dp214
g6
F228
sg7
F-0.5
sg8
F227.5
sg9
F1
sg10
F227.5
saa(lp215
V102647
p216
a(dp217
g6
F228
sg7
F-0.5
sg8
F227.5
sg9
F1
sg10
F227.5
saa(lp218
V102717
p219
a(dp220
g6
F228
sg7
F-0.5
sg8
F227.5
sg9
F1
sg10
F227.5
saa(lp221
V103002
p222
a(dp223
g6
F228
sg7
F-0.5
sg8
F227.5
sg9
F1
sg10
F227.5
saa(lp224
V103007
p225
a(dp226
g6
F228
sg7
F-0.5
sg8
F227.5
sg9
F1
sg10
F227.5
saa(lp227
V103328
p228
a(dp229
g6
F228
sg7
F0
sg8
F227.5
sg9
F1
sg10
F228
saa(lp230
V103529
p231
a(dp232
g6
F228
sg7
F-0.5
sg8
F227.5
sg9
F1
sg10
F227.5
saa(lp233
V103534
p234
a(dp235
g6
F228
sg7
F-1
sg8
F227
sg9
F1
sg10
F227
saa(lp236
V103845
p237
a(dp238
g6
F228
sg7
F-1
sg8
F227
sg9
F1
sg10
F227
saa(lp239
V103855
p240
a(dp241
g6
F228
sg7
F0
sg8
F227
sg9
F1
sg10
F228
saa(lp242
V104015
p243
a(dp244
g6
F228
sg7
F0
sg8
F227
sg9
F1
sg10
F228
saa(lp245
V104451
p246
a(dp247
g6
F228
sg7
F-0.5
sg8
F227.5
sg9
F1
sg10
F227.5
saa(lp248
V104516
p249
a(dp250
g6
F228
sg7
F-0.5
sg8
F227.5
sg9
F2
sg10
F227.5
saa(lp251
V104537
p252
a(dp253
g6
F227.5
sg7
F-0.5
sg8
F227
sg9
F2
sg10
F227.5
saa(lp254
V104557
p255
a(dp256
g6
F227.5
sg7
F-0.5
sg8
F227
sg9
F5
sg10
F227.5
saa(lp257
V104757
p258
a(dp259
g6
F227.5
sg7
F-0.5
sg8
F227
sg9
F1
sg10
F227.5
saa(lp260
V104908
p261
a(dp262
g6
F227.5
sg7
F-0.5
sg8
F227
sg9
F2
sg10
F227.5
saa(lp263
V105023
p264
a(dp265
g6
F227.5
sg7
F-0.5
sg8
F227
sg9
F1
sg10
F227.5
saa(lp266
V105028
p267
a(dp268
g6
F227.5
sg7
F0
sg8
F227
sg9
F1
sg10
F228
saa(lp269
V105143
p270
a(dp271
g6
F227.5
sg7
F-0.5
sg8
F227
sg9
F8
sg10
F227.5
saa(lp272
V105244
p273
a(dp274
g6
F227.5
sg7
F-1
sg8
F227
sg9
F1
sg10
F227
saa(lp275
V105439
p276
a(dp277
g6
F227.5
sg7
F-0.5
sg8
F227
sg9
F5
sg10
F227.5
saa(lp278
V105740
p279
a(dp280
g6
F228
sg7
F-0.5
sg8
F227.5
sg9
F1
sg10
F227.5
saa(lp281
V105745
p282
a(dp283
g6
F228
sg7
F-0.5
sg8
F227.5
sg9
F8
sg10
F227.5
saa(lp284
V105750
p285
a(dp286
g6
F228
sg7
F0
sg8
F227
sg9
F1
sg10
F228
saa(lp287
V105850
p288
a(dp289
g6
F228
sg7
F-0.5
sg8
F227.5
sg9
F2
sg10
F227.5
saa(lp290
V105855
p291
a(dp292
g6
F228
sg7
F-0.5
sg8
F227.5
sg9
F2
sg10
F227.5
saa(lp293
V110111
p294
a(dp295
g6
F228
sg7
F-0.5
sg8
F227.5
sg9
F1
sg10
F227.5
saa(lp296
V111219
p297
a(dp298
g6
F228
sg7
F-0.5
sg8
F227.5
sg9
F1
sg10
F227.5
saa(lp299
V111941
p300
a(dp301
g6
F228
sg7
F-0.5
sg8
F227.5
sg9
F1
sg10
F227.5
saa(lp302
V112944
p303
a(dp304
g6
F228
sg7
F-0.5
sg8
F227.5
sg9
F1
sg10
F227.5
saa(lp305
V113204
p306
a(dp307
g6
F228
sg7
F-0.5
sg8
F227.5
sg9
F1
sg10
F227.5
saa(lp308
V113209
p309
a(dp310
g6
F228
sg7
F0
sg8
F227.5
sg9
F1
sg10
F228
saa(lp311
V113530
p312
a(dp313
g6
F228
sg7
F0
sg8
F227.5
sg9
F1
sg10
F228
saa(lp314
V113636
p315
a(dp316
g6
F228
sg7
F0
sg8
F227.5
sg9
F10
sg10
F228
saa(lp317
V113641
p318
a(dp319
g6
F228.5
sg7
F0.5
sg8
F227.5
sg9
F2
sg10
F228.5
saa(lp320
V113651
p321
a(dp322
g6
F228.5
sg7
F0.5
sg8
F227.5
sg9
F1
sg10
F228.5
saa(lp323
V113706
p324
a(dp325
g6
F228.5
sg7
F0
sg8
F228
sg9
F2
sg10
F228
saa(lp326
V113711
p327
a(dp328
g6
F228.5
sg7
F0.5
sg8
F228
sg9
F1
sg10
F228.5
saa(lp329
V113736
p330
a(dp331
g6
F228.5
sg7
F0.5
sg8
F228
sg9
F15
sg10
F228.5
saa(lp332
V113741
p333
a(dp334
g6
F229
sg7
F1
sg8
F228
sg9
F5
sg10
F229
saa(lp335
V113801
p336
a(dp337
g6
F228.5
sg7
F0.5
sg8
F228
sg9
F1
sg10
F228.5
saa(lp338
V113806
p339
a(dp340
g6
F228.5
sg7
F0.5
sg8
F228
sg9
F1
sg10
F228.5
saa(lp341
V113901
p342
a(dp343
g6
F228.5
sg7
F0.5
sg8
F228
sg9
F9
sg10
F228.5
saa(lp344
V113906
p345
a(dp346
g6
F229
sg7
F1
sg8
F228
sg9
F4
sg10
F229
saa(lp347
V113911
p348
a(dp349
g6
F229
sg7
F1
sg8
F228
sg9
F1
sg10
F229
saa(lp350
V113951
p351
a(dp352
g6
F229
sg7
F1
sg8
F228
sg9
F10
sg10
F229
saa(lp353
V113956
p354
a(dp355
g6
F229
sg7
F1.5
sg8
F228
sg9
F7
sg10
F229.5
saa(lp356
V114001
p357
a(dp358
g6
F229.5
sg7
F1.5
sg8
F229
sg9
F1
sg10
F229.5
saa(lp359
V114006
p360
a(dp361
g6
F229.5
sg7
F1.5
sg8
F229
sg9
F2
sg10
F229.5
saa(lp362
V114011
p363
a(dp364
g6
F229.5
sg7
F1.5
sg8
F229
sg9
F5
sg10
F229.5
saa(lp365
V114016
p366
a(dp367
g6
F229.5
sg7
F2
sg8
F229
sg9
F17
sg10
F230
saa(lp368
V114022
p369
a(dp370
g6
F230
sg7
F2.5
sg8
F229
sg9
F11
sg10
F230.5
saa(lp371
V114027
p372
a(dp373
g6
F230.5
sg7
F3
sg8
F230
sg9
F1
sg10
F231
saa(lp374
V114032
p375
a(dp376
g6
F231
sg7
F2
sg8
F230
sg9
F2
sg10
F230
saa(lp377
V114037
p378
a(dp379
g6
F230.5
sg7
F2.5
sg8
F230
sg9
F1
sg10
F230.5
saa(lp380
V114042
p381
a(dp382
g6
F230.5
sg7
F2.5
sg8
F230
sg9
F1
sg10
F230.5
saa(lp383
V114047
p384
a(dp385
g6
F231
sg7
F2.5
sg8
F230
sg9
F1
sg10
F230.5
saa(lp386
V114057
p387
a(dp388
g6
F230.5
sg7
F2
sg8
F230
sg9
F1
sg10
F230
saa(lp389
V114122
p390
a(dp391
g6
F230.5
sg7
F2
sg8
F230
sg9
F1
sg10
F230
saa(lp392
V114127
p393
a(dp394
g6
F230.5
sg7
F2
sg8
F230
sg9
F1
sg10
F230
saa(lp395
V114132
p396
a(dp397
g6
F230.5
sg7
F2
sg8
F230
sg9
F1
sg10
F230
saa(lp398
V114137
p399
a(dp400
g6
F230.5
sg7
F2
sg8
F230
sg9
F1
sg10
F230
saa(lp401
V114147
p402
a(dp403
g6
F230.5
sg7
F2
sg8
F230
sg9
F1
sg10
F230
saa(lp404
V114212
p405
a(dp406
g6
F230.5
sg7
F2
sg8
F230
sg9
F1
sg10
F230
saa(lp407
V114217
p408
a(dp409
g6
F230.5
sg7
F0.5
sg8
F228.5
sg9
F1
sg10
F228.5
saa(lp410
V114222
p411
a(dp412
g6
F228.5
sg7
F0.5
sg8
F228
sg9
F2
sg10
F228.5
saa(lp413
V114227
p414
a(dp415
g6
F228.5
sg7
F0.5
sg8
F228
sg9
F2
sg10
F228.5
saa(lp416
V114232
p417
a(dp418
g6
F228.5
sg7
F0.5
sg8
F228
sg9
F1
sg10
F228.5
saa(lp419
V114247
p420
a(dp421
g6
F228.5
sg7
F0
sg8
F228
sg9
F4
sg10
F228
saa(lp422
V114257
p423
a(dp424
g6
F228.5
sg7
F-0.5
sg8
F227.5
sg9
F4
sg10
F227.5
saa(lp425
V114302
p426
a(dp427
g6
F228.5
sg7
F-0.5
sg8
F227.5
sg9
F3
sg10
F227.5
saa(lp428
V115140
p429
a(dp430
g6
F228.5
sg7
F0
sg8
F228
sg9
F1
sg10
F228
saa(lp431
V115832
p432
a(dp433
g6
F228.5
sg7
F0.5
sg8
F228
sg9
F2
sg10
F228.5
saa(lp434
V120208
p435
a(dp436
g6
F228.5
sg7
F0
sg8
F228
sg9
F4
sg10
F228
saa(lp437
V120223
p438
a(dp439
g6
F228.5
sg7
F-0.5
sg8
F227.5
sg9
F1
sg10
F227.5
saa(lp440
V122012
p441
a(dp442
g6
F228.5
sg7
F0.5
sg8
F228
sg9
F3
sg10
F228.5
saa(lp443
V122017
p444
a(dp445
g6
F228.5
sg7
F0.5
sg8
F228
sg9
F2
sg10
F228.5
saa(lp446
V122113
p447
a(dp448
g6
F229
sg7
F0.5
sg8
F228.5
sg9
F2
sg10
F228.5
saa(lp449
V122118
p450
a(dp451
g6
F229
sg7
F0.5
sg8
F228.5
sg9
F2
sg10
F228.5
saa(lp452
V122855
p453
a(dp454
g6
F228.5
sg7
F0
sg8
F228
sg9
F1
sg10
F228
saa(lp455
V122900
p456
a(dp457
g6
F228.5
sg7
F0
sg8
F228
sg9
F6
sg10
F228
saa(lp458
V123141
p459
a(dp460
g6
F228.5
sg7
F0
sg8
F228
sg9
F1
sg10
F228
saa(lp461
V123446
p462
a(dp463
g6
F228.5
sg7
F0.5
sg8
F228
sg9
F5
sg10
F228.5
saa(lp464
V123953
p465
a(dp466
g6
F228.5
sg7
F0.5
sg8
F228
sg9
F1
sg10
F228.5
saa(lp467
V124008
p468
a(dp469
g6
F228.5
sg7
F0.5
sg8
F228
sg9
F1
sg10
F228.5
saa(lp470
V124013
p471
a(dp472
g6
F228.5
sg7
F0.5
sg8
F228
sg9
F1
sg10
F228.5
saa(lp473
V124018
p474
a(dp475
g6
F228.5
sg7
F0.5
sg8
F228
sg9
F1
sg10
F228.5
saa(lp476
V124048
p477
a(dp478
g6
F228.5
sg7
F0.5
sg8
F228
sg9
F2
sg10
F228.5
saa(lp479
V124053
p480
a(dp481
g6
F228.5
sg7
F0
sg8
F228
sg9
F1
sg10
F228
saa(lp482
V124154
p483
a(dp484
g6
F228.5
sg7
F0.5
sg8
F228
sg9
F1
sg10
F228.5
saa(lp485
V124219
p486
a(dp487
g6
F228.5
sg7
F0.5
sg8
F228
sg9
F1
sg10
F228.5
saa(lp488
V124419
p489
a(dp490
g6
F228.5
sg7
F0.5
sg8
F228
sg9
F1
sg10
F228.5
saa(lp491
V124424
p492
a(dp493
g6
F228.5
sg7
F0.5
sg8
F228
sg9
F1
sg10
F228.5
saa(lp494
V124439
p495
a(dp496
g6
F228.5
sg7
F0.5
sg8
F228
sg9
F1
sg10
F228.5
saa(lp497
V124735
p498
a(dp499
g6
F228.5
sg7
F0.5
sg8
F228
sg9
F2
sg10
F228.5
saa(lp500
V124740
p501
a(dp502
g6
F228.5
sg7
F0.5
sg8
F228
sg9
F1
sg10
F228.5
saa(lp503
V124745
p504
a(dp505
g6
F228.5
sg7
F0.5
sg8
F228
sg9
F1
sg10
F228.5
saa(lp506
V125051
p507
a(dp508
g6
F229
sg7
F0.5
sg8
F228.5
sg9
F4
sg10
F228.5
saa(lp509
V125628
p510
a(dp511
g6
F229
sg7
F1
sg8
F228.5
sg9
F1
sg10
F229
saa(lp512
V125838
p513
a(dp514
g6
F229
sg7
F0.5
sg8
F228.5
sg9
F1
sg10
F228.5
saa(lp515
V125954
p516
a(dp517
g6
F229
sg7
F1
sg8
F228.5
sg9
F1
sg10
F229
saa(lp518
V130044
p519
a(dp520
g6
F229
sg7
F1
sg8
F228.5
sg9
F2
sg10
F229
saa(lp521
V130254
p522
a(dp523
g6
F229
sg7
F1
sg8
F228.5
sg9
F1
sg10
F229
saa(lp524
V130520
p525
a(dp526
g6
F229
sg7
F1
sg8
F228.5
sg9
F1
sg10
F229
saa(lp527
V130816
p528
a(dp529
g6
F229
sg7
F1
sg8
F228.5
sg9
F1
sg10
F229
saa(lp530
V130831
p531
a(dp532
g6
F229
sg7
F1
sg8
F228.5
sg9
F1
sg10
F229
saa(lp533
V130941
p534
a(dp535
g6
F229
sg7
F1
sg8
F228.5
sg9
F1
sg10
F229
saa(lp536
V131222
p537
a(dp538
g6
F229
sg7
F1
sg8
F228.5
sg9
F1
sg10
F229
saa(lp539
V131352
p540
a(dp541
g6
F229
sg7
F1
sg8
F228.5
sg9
F1
sg10
F229
saa(lp542
V131619
p543
a(dp544
g6
F229
sg7
F1
sg8
F228.5
sg9
F1
sg10
F229
saa(lp545
V131749
p546
a(dp547
g6
F229
sg7
F0.5
sg8
F228.5
sg9
F1
sg10
F228.5
saa(lp548
V131819
p549
a(dp550
g6
F229
sg7
F1
sg8
F228.5
sg9
F1
sg10
F229
saa(lp551
V131829
p552
a(dp553
g6
F229
sg7
F0.5
sg8
F228.5
sg9
F1
sg10
F228.5
saa(lp554
V131849
p555
a(dp556
g6
F229
sg7
F1
sg8
F228.5
sg9
F1
sg10
F229
saa(lp557
V131854
p558
a(dp559
g6
F229
sg7
F1
sg8
F228.5
sg9
F1
sg10
F229
saa(lp560
V131924
p561
a(dp562
g6
F229
sg7
F0.5
sg8
F228.5
sg9
F1
sg10
F228.5
saa(lp563
V132110
p564
a(dp565
g6
F229
sg7
F0.5
sg8
F228.5
sg9
F5
sg10
F228.5
saa(lp566
V132125
p567
a(dp568
g6
F229
sg7
F0.5
sg8
F228.5
sg9
F1
sg10
F228.5
saa(lp569
V132130
p570
a(dp571
g6
F229
sg7
F0.5
sg8
F228.5
sg9
F2
sg10
F228.5
saa(lp572
V132135
p573
a(dp574
g6
F228.5
sg7
F0.5
sg8
F228
sg9
F1
sg10
F228.5
saa(lp575
V132150
p576
a(dp577
g6
F228.5
sg7
F0
sg8
F228
sg9
F1
sg10
F228
saa(lp578
V132315
p579
a(dp580
g6
F228.5
sg7
F0.5
sg8
F228
sg9
F1
sg10
F228.5
saa(lp581
V132355
p582
a(dp583
g6
F228.5
sg7
F0.5
sg8
F228
sg9
F1
sg10
F228.5
saa(lp584
V132410
p585
a(dp586
g6
F228.5
sg7
F0
sg8
F228
sg9
F1
sg10
F228
saa(lp587
V132415
p588
a(dp589
g6
F228.5
sg7
F0
sg8
F228
sg9
F1
sg10
F228
saa(lp590
V133000
p591
a(dp592
g6
F228.5
sg7
F0
sg8
F228
sg9
F53
sg10
F228
saatRp593
.