ccollections
OrderedDict
p0
((lp1
(lp2
V090118
p3
a(dp4
S'sell'
p5
F234.0
sS'buy'
p6
F233.0
sS'number'
p7
F0.5
sS'deal'
p8
F232.5
saa(lp9
V090149
p10
a(dp11
g5
F233.5
sg6
F232.5
sg7
F0.5
sg8
F232.5
saa(lp12
V090331
p13
a(dp14
g5
F233.5
sg6
F233.0
sg7
F1.0
sg8
F233.0
saa(lp15
V090336
p16
a(dp17
g5
F233.5
sg6
F232.5
sg7
F0.5
sg8
F232.5
saa(lp18
V090422
p19
a(dp20
g5
F233.0
sg6
F232.5
sg7
F0.5
sg8
F232.5
saa(lp21
V090503
p22
a(dp23
g5
F232.5
sg6
F232.0
sg7
F0.0
sg8
F232.0
saa(lp24
V090519
p25
a(dp26
g5
F232.5
sg6
F232.0
sg7
F0.0
sg8
F232.0
saa(lp27
V090615
p28
a(dp29
g5
F232.5
sg6
F232.0
sg7
F0.0
sg8
F232.0
saa(lp30
V090909
p31
a(dp32
g5
F232.0
sg6
F231.5
sg7
F-0.5
sg8
F231.5
saa(lp33
V090914
p34
a(dp35
g5
F232.0
sg6
F231.5
sg7
F-0.5
sg8
F231.5
saa(lp36
V090919
p37
a(dp38
g5
F232.0
sg6
F231.5
sg7
F-0.5
sg8
F231.5
saa(lp39
V091000
p40
a(dp41
g5
F231.5
sg6
F231.0
sg7
F-1.0
sg8
F231.0
saa(lp42
V091010
p43
a(dp44
g5
F231.0
sg6
F230.5
sg7
F-1.0
sg8
F231.0
saa(lp45
V091320
p46
a(dp47
g5
F231.0
sg6
F230.5
sg7
F-1.0
sg8
F231.0
saa(lp48
V091325
p49
a(dp50
g5
F231.0
sg6
F230.5
sg7
F-1.0
sg8
F231.0
saa(lp51
V091330
p52
a(dp53
g5
F231.0
sg6
F230.5
sg7
F-1.0
sg8
F231.0
saa(lp54
V091335
p55
a(dp56
g5
F231.5
sg6
F231.0
sg7
F-1.0
sg8
F231.0
saa(lp57
V091350
p58
a(dp59
g5
F231.5
sg6
F231.0
sg7
F-0.5
sg8
F231.5
saa(lp60
V091355
p61
a(dp62
g5
F232.5
sg6
F231.0
sg7
F0.0
sg8
F232.0
saa(lp63
V091837
p64
a(dp65
g5
F232.0
sg6
F231.5
sg7
F0.0
sg8
F232.0
saa(lp66
V092019
p67
a(dp68
g5
F232.0
sg6
F231.5
sg7
F0.0
sg8
F232.0
saa(lp69
V092024
p70
a(dp71
g5
F232.0
sg6
F231.5
sg7
F0.0
sg8
F232.0
saa(lp72
V092030
p73
a(dp74
g5
F232.0
sg6
F231.5
sg7
F0.0
sg8
F232.0
saa(lp75
V092202
p76
a(dp77
g5
F232.5
sg6
F231.5
sg7
F0.5
sg8
F232.5
saa(lp78
V092212
p79
a(dp80
g5
F232.0
sg6
F231.5
sg7
F0.0
sg8
F232.0
saa(lp81
V092228
p82
a(dp83
g5
F232.0
sg6
F231.5
sg7
F0.0
sg8
F232.0
saa(lp84
V092451
p85
a(dp86
g5
F232.0
sg6
F231.5
sg7
F0.0
sg8
F232.0
saa(lp87
V092547
p88
a(dp89
g5
F233.0
sg6
F232.0
sg7
F1.0
sg8
F233.0
saa(lp90
V092755
p91
a(dp92
g5
F233.0
sg6
F232.5
sg7
F0.5
sg8
F232.5
saa(lp93
V092841
p94
a(dp95
g5
F233.0
sg6
F232.5
sg7
F0.5
sg8
F232.5
saa(lp96
V092847
p97
a(dp98
g5
F233.0
sg6
F232.5
sg7
F0.5
sg8
F232.5
saa(lp99
V092852
p100
a(dp101
g5
F232.5
sg6
F232.0
sg7
F0.0
sg8
F232.0
saa(lp102
V092857
p103
a(dp104
g5
F232.5
sg6
F232.0
sg7
F0.0
sg8
F232.0
saa(lp105
V092902
p106
a(dp107
g5
F232.5
sg6
F232.0
sg7
F0.0
sg8
F232.0
saa(lp108
V092907
p109
a(dp110
g5
F232.0
sg6
F231.5
sg7
F-0.5
sg8
F231.5
saa(lp111
V092922
p112
a(dp113
g5
F232.0
sg6
F231.5
sg7
F0.0
sg8
F232.0
saa(lp114
V092928
p115
a(dp116
g5
F232.0
sg6
F231.5
sg7
F0.0
sg8
F232.0
saa(lp117
V092933
p118
a(dp119
g5
F232.0
sg6
F231.5
sg7
F-0.5
sg8
F231.5
saa(lp120
V092938
p121
a(dp122
g5
F232.0
sg6
F231.5
sg7
F0.0
sg8
F232.0
saa(lp123
V092948
p124
a(dp125
g5
F232.0
sg6
F231.5
sg7
F0.0
sg8
F232.0
saa(lp126
V093029
p127
a(dp128
g5
F232.0
sg6
F231.5
sg7
F0.0
sg8
F232.0
saa(lp129
V093521
p130
a(dp131
g5
F232.0
sg6
F231.5
sg7
F0.0
sg8
F232.0
saa(lp132
V093526
p133
a(dp134
g5
F232.0
sg6
F231.5
sg7
F0.0
sg8
F232.0
saa(lp135
V093830
p136
a(dp137
g5
F232.0
sg6
F231.5
sg7
F0.0
sg8
F232.0
saa(lp138
V093835
p139
a(dp140
g5
F232.0
sg6
F231.5
sg7
F-0.5
sg8
F231.5
saa(lp141
V093937
p142
a(dp143
g5
F232.0
sg6
F231.5
sg7
F-0.5
sg8
F231.5
saa(lp144
V094104
p145
a(dp146
g5
F232.0
sg6
F231.5
sg7
F0.0
sg8
F232.0
saa(lp147
V094109
p148
a(dp149
g5
F232.5
sg6
F231.5
sg7
F0.5
sg8
F232.5
saa(lp150
V094125
p151
a(dp152
g5
F232.0
sg6
F231.5
sg7
F0.0
sg8
F232.0
saa(lp153
V094140
p154
a(dp155
g5
F233.0
sg6
F232.0
sg7
F1.0
sg8
F233.0
saa(lp156
V094252
p157
a(dp158
g5
F233.0
sg6
F232.5
sg7
F0.5
sg8
F232.5
saa(lp159
V094515
p160
a(dp161
g5
F233.0
sg6
F232.5
sg7
F0.5
sg8
F232.5
saa(lp162
V094525
p163
a(dp164
g5
F233.0
sg6
F232.5
sg7
F1.0
sg8
F233.0
saa(lp165
V094535
p166
a(dp167
g5
F233.0
sg6
F232.5
sg7
F1.0
sg8
F233.0
saa(lp168
V094743
p169
a(dp170
g5
F233.0
sg6
F232.5
sg7
F0.5
sg8
F232.5
saa(lp171
V094754
p172
a(dp173
g5
F233.0
sg6
F232.5
sg7
F0.5
sg8
F232.5
saa(lp174
V094759
p175
a(dp176
g5
F233.0
sg6
F232.5
sg7
F0.5
sg8
F232.5
saa(lp177
V094804
p178
a(dp179
g5
F233.0
sg6
F232.0
sg7
F0.5
sg8
F232.5
saa(lp180
V094814
p181
a(dp182
g5
F232.5
sg6
F232.0
sg7
F0.5
sg8
F232.5
saa(lp183
V094819
p184
a(dp185
g5
F232.5
sg6
F232.0
sg7
F0.5
sg8
F232.5
saa(lp186
V094900
p187
a(dp188
g5
F233.0
sg6
F232.5
sg7
F1.0
sg8
F233.0
saa(lp189
V094905
p190
a(dp191
g5
F233.0
sg6
F232.5
sg7
F1.0
sg8
F233.0
saa(lp192
V094926
p193
a(dp194
g5
F233.0
sg6
F232.5
sg7
F1.0
sg8
F233.0
saa(lp195
V094936
p196
a(dp197
g5
F233.0
sg6
F232.5
sg7
F1.0
sg8
F233.0
saa(lp198
V094941
p199
a(dp200
g5
F234.0
sg6
F232.5
sg7
F0.5
sg8
F232.5
saa(lp201
V094957
p202
a(dp203
g5
F233.0
sg6
F232.5
sg7
F1.0
sg8
F233.0
saa(lp204
V095007
p205
a(dp206
g5
F234.0
sg6
F233.0
sg7
F2.0
sg8
F234.0
saa(lp207
V095205
p208
a(dp209
g5
F234.0
sg6
F233.0
sg7
F1.0
sg8
F233.0
saa(lp210
V095327
p211
a(dp212
g5
F234.0
sg6
F233.0
sg7
F1.0
sg8
F233.0
saa(lp213
V095332
p214
a(dp215
g5
F234.0
sg6
F232.5
sg7
F1.5
sg8
F233.5
saa(lp216
V095342
p217
a(dp218
g5
F233.5
sg6
F232.5
sg7
F1.5
sg8
F233.5
saa(lp219
V095519
p220
a(dp221
g5
F233.0
sg6
F232.5
sg7
F1.0
sg8
F233.0
saa(lp222
V095530
p223
a(dp224
g5
F233.0
sg6
F232.5
sg7
F1.0
sg8
F233.0
saa(lp225
V095535
p226
a(dp227
g5
F233.0
sg6
F232.5
sg7
F1.0
sg8
F233.0
saa(lp228
V095545
p229
a(dp230
g5
F233.0
sg6
F232.5
sg7
F0.5
sg8
F232.5
saa(lp231
V095855
p232
a(dp233
g5
F233.0
sg6
F232.5
sg7
F1.0
sg8
F233.0
saa(lp234
V095905
p235
a(dp236
g5
F233.5
sg6
F233.0
sg7
F1.0
sg8
F233.0
saa(lp237
V095915
p238
a(dp239
g5
F233.5
sg6
F233.0
sg7
F1.5
sg8
F233.5
saa(lp240
V100402
p241
a(dp242
g5
F233.5
sg6
F233.0
sg7
F1.5
sg8
F233.5
saa(lp243
V100407
p244
a(dp245
g5
F233.5
sg6
F233.0
sg7
F1.5
sg8
F233.5
saa(lp246
V100412
p247
a(dp248
g5
F233.5
sg6
F233.0
sg7
F1.5
sg8
F233.5
saa(lp249
V100423
p250
a(dp251
g5
F233.5
sg6
F233.0
sg7
F1.5
sg8
F233.5
saa(lp252
V100438
p253
a(dp254
g5
F234.0
sg6
F233.0
sg7
F2.0
sg8
F234.0
saa(lp255
V100610
p256
a(dp257
g5
F234.0
sg6
F233.5
sg7
F1.5
sg8
F233.5
saa(lp258
V100620
p259
a(dp260
g5
F234.0
sg6
F233.5
sg7
F2.0
sg8
F234.0
saa(lp261
V100625
p262
a(dp263
g5
F234.5
sg6
F234.0
sg7
F2.0
sg8
F234.0
saa(lp264
V100701
p265
a(dp266
g5
F234.5
sg6
F234.0
sg7
F2.0
sg8
F234.0
saa(lp267
V100706
p268
a(dp269
g5
F234.5
sg6
F234.0
sg7
F2.0
sg8
F234.0
saa(lp270
V100711
p271
a(dp272
g5
F234.0
sg6
F233.5
sg7
F2.0
sg8
F234.0
saa(lp273
V101118
p274
a(dp275
g5
F234.0
sg6
F233.5
sg7
F2.0
sg8
F234.0
saa(lp276
V101123
p277
a(dp278
g5
F234.5
sg6
F233.5
sg7
F2.5
sg8
F234.5
saa(lp279
V101133
p280
a(dp281
g5
F234.0
sg6
F233.5
sg7
F2.0
sg8
F234.0
saa(lp282
V101138
p283
a(dp284
g5
F234.0
sg6
F233.5
sg7
F2.0
sg8
F234.0
saa(lp285
V101143
p286
a(dp287
g5
F234.0
sg6
F233.5
sg7
F2.0
sg8
F234.0
saa(lp288
V101148
p289
a(dp290
g5
F234.5
sg6
F234.0
sg7
F2.0
sg8
F234.0
saa(lp291
V101159
p292
a(dp293
g5
F234.5
sg6
F234.0
sg7
F2.0
sg8
F234.0
saa(lp294
V101250
p295
a(dp296
g5
F234.5
sg6
F234.0
sg7
F2.0
sg8
F234.0
saa(lp297
V101255
p298
a(dp299
g5
F234.5
sg6
F234.0
sg7
F2.0
sg8
F234.0
saa(lp300
V101401
p301
a(dp302
g5
F234.5
sg6
F234.0
sg7
F2.0
sg8
F234.0
saa(lp303
V101411
p304
a(dp305
g5
F234.5
sg6
F234.0
sg7
F2.0
sg8
F234.0
saa(lp306
V101655
p307
a(dp308
g5
F234.0
sg6
F233.5
sg7
F1.5
sg8
F233.5
saa(lp309
V101747
p310
a(dp311
g5
F234.0
sg6
F233.5
sg7
F1.5
sg8
F233.5
saa(lp312
V101802
p313
a(dp314
g5
F233.5
sg6
F233.0
sg7
F1.5
sg8
F233.5
saa(lp315
V102000
p316
a(dp317
g5
F233.5
sg6
F233.0
sg7
F1.5
sg8
F233.5
saa(lp318
V102031
p319
a(dp320
g5
F233.5
sg6
F233.0
sg7
F1.0
sg8
F233.0
saa(lp321
V102036
p322
a(dp323
g5
F233.5
sg6
F233.0
sg7
F1.0
sg8
F233.0
saa(lp324
V102644
p325
a(dp326
g5
F233.5
sg6
F233.0
sg7
F1.5
sg8
F233.5
saa(lp327
V102650
p328
a(dp329
g5
F233.5
sg6
F233.0
sg7
F1.5
sg8
F233.5
saa(lp330
V102720
p331
a(dp332
g5
F233.5
sg6
F233.0
sg7
F1.5
sg8
F233.5
saa(lp333
V102725
p334
a(dp335
g5
F234.0
sg6
F233.0
sg7
F2.0
sg8
F234.0
saa(lp336
V102736
p337
a(dp338
g5
F234.0
sg6
F233.0
sg7
F2.0
sg8
F234.0
saa(lp339
V102741
p340
a(dp341
g5
F234.0
sg6
F233.5
sg7
F1.5
sg8
F233.5
saa(lp342
V103030
p343
a(dp344
g5
F234.0
sg6
F233.5
sg7
F2.0
sg8
F234.0
saa(lp345
V103410
p346
a(dp347
g5
F234.0
sg6
F233.5
sg7
F2.0
sg8
F234.0
saa(lp348
V103537
p349
a(dp350
g5
F234.0
sg6
F233.5
sg7
F1.5
sg8
F233.5
saa(lp351
V103842
p352
a(dp353
g5
F234.0
sg6
F233.5
sg7
F2.0
sg8
F234.0
saa(lp354
V103847
p355
a(dp356
g5
F234.0
sg6
F233.5
sg7
F1.5
sg8
F233.5
saa(lp357
V104308
p358
a(dp359
g5
F234.0
sg6
F233.5
sg7
F1.5
sg8
F233.5
saa(lp360
V104313
p361
a(dp362
g5
F234.0
sg6
F233.5
sg7
F1.5
sg8
F233.5
saa(lp363
V104318
p364
a(dp365
g5
F234.0
sg6
F233.5
sg7
F1.5
sg8
F233.5
saa(lp366
V104324
p367
a(dp368
g5
F233.5
sg6
F233.0
sg7
F1.5
sg8
F233.5
saa(lp369
V104501
p370
a(dp371
g5
F233.5
sg6
F233.0
sg7
F1.5
sg8
F233.5
saa(lp372
V104506
p373
a(dp374
g5
F234.0
sg6
F233.0
sg7
F2.0
sg8
F234.0
saa(lp375
V104511
p376
a(dp377
g5
F234.5
sg6
F234.0
sg7
F2.0
sg8
F234.0
saa(lp378
V104516
p379
a(dp380
g5
F234.5
sg6
F234.0
sg7
F2.5
sg8
F234.5
saa(lp381
V104607
p382
a(dp383
g5
F234.5
sg6
F234.0
sg7
F2.5
sg8
F234.5
saa(lp384
V104820
p385
a(dp386
g5
F234.5
sg6
F234.0
sg7
F2.0
sg8
F234.0
saa(lp387
V104831
p388
a(dp389
g5
F234.5
sg6
F234.0
sg7
F2.0
sg8
F234.0
saa(lp390
V104851
p391
a(dp392
g5
F234.5
sg6
F234.0
sg7
F2.0
sg8
F234.0
saa(lp393
V104927
p394
a(dp395
g5
F234.5
sg6
F234.0
sg7
F2.0
sg8
F234.0
saa(lp396
V104932
p397
a(dp398
g5
F234.5
sg6
F233.5
sg7
F2.0
sg8
F234.0
saa(lp399
V105216
p400
a(dp401
g5
F233.5
sg6
F233.0
sg7
F1.5
sg8
F233.5
saa(lp402
V105221
p403
a(dp404
g5
F233.5
sg6
F233.0
sg7
F1.5
sg8
F233.5
saa(lp405
V110104
p406
a(dp407
g5
F233.5
sg6
F233.0
sg7
F1.0
sg8
F233.0
saa(lp408
V110348
p409
a(dp410
g5
F233.5
sg6
F233.0
sg7
F1.0
sg8
F233.0
saa(lp411
V110434
p412
a(dp413
g5
F233.5
sg6
F233.0
sg7
F1.0
sg8
F233.0
saa(lp414
V110444
p415
a(dp416
g5
F233.0
sg6
F232.5
sg7
F0.5
sg8
F232.5
saa(lp417
V110510
p418
a(dp419
g5
F233.0
sg6
F232.5
sg7
F0.5
sg8
F232.5
saa(lp420
V110551
p421
a(dp422
g5
F233.0
sg6
F232.5
sg7
F1.0
sg8
F233.0
saa(lp423
V110556
p424
a(dp425
g5
F234.0
sg6
F233.0
sg7
F1.0
sg8
F233.0
saa(lp426
V110606
p427
a(dp428
g5
F233.5
sg6
F233.0
sg7
F1.5
sg8
F233.5
saa(lp429
V110617
p430
a(dp431
g5
F234.0
sg6
F233.5
sg7
F2.0
sg8
F234.0
saa(lp432
V110622
p433
a(dp434
g5
F234.5
sg6
F233.0
sg7
F1.0
sg8
F233.0
saa(lp435
V111023
p436
a(dp437
g5
F233.5
sg6
F233.0
sg7
F1.5
sg8
F233.5
saa(lp438
V111429
p439
a(dp440
g5
F233.5
sg6
F233.0
sg7
F1.5
sg8
F233.5
saa(lp441
V111546
p442
a(dp443
g5
F233.5
sg6
F233.0
sg7
F1.5
sg8
F233.5
saa(lp444
V111708
p445
a(dp446
g5
F233.5
sg6
F233.0
sg7
F1.5
sg8
F233.5
saa(lp447
V111713
p448
a(dp449
g5
F234.0
sg6
F233.5
sg7
F1.5
sg8
F233.5
saa(lp450
V111819
p451
a(dp452
g5
F234.0
sg6
F233.5
sg7
F1.5
sg8
F233.5
saa(lp453
V111952
p454
a(dp455
g5
F233.5
sg6
F233.0
sg7
F1.5
sg8
F233.5
saa(lp456
V111957
p457
a(dp458
g5
F234.0
sg6
F233.0
sg7
F2.0
sg8
F234.0
saa(lp459
V112301
p460
a(dp461
g5
F234.0
sg6
F233.5
sg7
F2.0
sg8
F234.0
saa(lp462
V112306
p463
a(dp464
g5
F234.0
sg6
F233.5
sg7
F2.0
sg8
F234.0
saa(lp465
V112352
p466
a(dp467
g5
F234.0
sg6
F233.5
sg7
F2.0
sg8
F234.0
saa(lp468
V112357
p469
a(dp470
g5
F234.5
sg6
F233.5
sg7
F2.0
sg8
F234.0
saa(lp471
V112621
p472
a(dp473
g5
F234.0
sg6
F233.5
sg7
F1.5
sg8
F233.5
saa(lp474
V112743
p475
a(dp476
g5
F234.0
sg6
F233.5
sg7
F1.5
sg8
F233.5
saa(lp477
V112758
p478
a(dp479
g5
F234.0
sg6
F233.5
sg7
F1.5
sg8
F233.5
saa(lp480
V112803
p481
a(dp482
g5
F234.0
sg6
F233.5
sg7
F1.5
sg8
F233.5
saa(lp483
V112808
p484
a(dp485
g5
F234.0
sg6
F233.5
sg7
F1.5
sg8
F233.5
saa(lp486
V112813
p487
a(dp488
g5
F233.5
sg6
F233.0
sg7
F1.5
sg8
F233.5
saa(lp489
V112819
p490
a(dp491
g5
F233.5
sg6
F233.0
sg7
F1.0
sg8
F233.0
saa(lp492
V112824
p493
a(dp494
g5
F233.5
sg6
F233.0
sg7
F1.5
sg8
F233.5
saa(lp495
V113128
p496
a(dp497
g5
F233.5
sg6
F233.0
sg7
F1.5
sg8
F233.5
saa(lp498
V113133
p499
a(dp500
g5
F233.5
sg6
F233.0
sg7
F1.0
sg8
F233.0
saa(lp501
V113139
p502
a(dp503
g5
F233.5
sg6
F233.0
sg7
F1.0
sg8
F233.0
saa(lp504
V113225
p505
a(dp506
g5
F233.5
sg6
F233.0
sg7
F1.0
sg8
F233.0
saa(lp507
V113301
p508
a(dp509
g5
F233.5
sg6
F233.0
sg7
F1.0
sg8
F233.0
saa(lp510
V113534
p511
a(dp512
g5
F233.5
sg6
F233.0
sg7
F1.0
sg8
F233.0
saa(lp513
V113540
p514
a(dp515
g5
F233.5
sg6
F233.0
sg7
F1.0
sg8
F233.0
saa(lp516
V113545
p517
a(dp518
g5
F233.5
sg6
F233.0
sg7
F1.0
sg8
F233.0
saa(lp519
V113550
p520
a(dp521
g5
F233.5
sg6
F232.5
sg7
F1.0
sg8
F233.0
saa(lp522
V113712
p523
a(dp524
g5
F233.0
sg6
F232.5
sg7
F1.0
sg8
F233.0
saa(lp525
V113803
p526
a(dp527
g5
F233.0
sg6
F232.5
sg7
F1.0
sg8
F233.0
saa(lp528
V113808
p529
a(dp530
g5
F233.0
sg6
F232.5
sg7
F1.0
sg8
F233.0
saa(lp531
V113945
p532
a(dp533
g5
F233.0
sg6
F232.5
sg7
F0.5
sg8
F232.5
saa(lp534
V114001
p535
a(dp536
g5
F233.0
sg6
F232.5
sg7
F0.5
sg8
F232.5
saa(lp537
V114102
p538
a(dp539
g5
F233.0
sg6
F232.5
sg7
F0.5
sg8
F232.5
saa(lp540
V114321
p541
a(dp542
g5
F233.0
sg6
F232.5
sg7
F0.5
sg8
F232.5
saa(lp543
V114427
p544
a(dp545
g5
F233.0
sg6
F232.5
sg7
F0.5
sg8
F232.5
saa(lp546
V114737
p547
a(dp548
g5
F232.5
sg6
F232.0
sg7
F0.0
sg8
F232.0
saa(lp549
V114909
p550
a(dp551
g5
F232.5
sg6
F232.0
sg7
F0.0
sg8
F232.0
saa(lp552
V115132
p553
a(dp554
g5
F232.5
sg6
F232.0
sg7
F0.0
sg8
F232.0
saa(lp555
V115203
p556
a(dp557
g5
F232.5
sg6
F232.0
sg7
F0.0
sg8
F232.0
saa(lp558
V115219
p559
a(dp560
g5
F232.5
sg6
F232.0
sg7
F0.0
sg8
F232.0
saa(lp561
V115224
p562
a(dp563
g5
F232.5
sg6
F232.0
sg7
F0.0
sg8
F232.0
saa(lp564
V115336
p565
a(dp566
g5
F232.5
sg6
F232.0
sg7
F0.0
sg8
F232.0
saa(lp567
V115741
p568
a(dp569
g5
F232.5
sg6
F232.0
sg7
F0.5
sg8
F232.5
saa(lp570
V115812
p571
a(dp572
g5
F232.5
sg6
F232.0
sg7
F0.5
sg8
F232.5
saa(lp573
V115817
p574
a(dp575
g5
F233.0
sg6
F232.0
sg7
F1.0
sg8
F233.0
saa(lp576
V115827
p577
a(dp578
g5
F233.5
sg6
F232.5
sg7
F1.5
sg8
F233.5
saa(lp579
V115903
p580
a(dp581
g5
F233.5
sg6
F233.0
sg7
F1.0
sg8
F233.0
saa(lp582
V120330
p583
a(dp584
g5
F233.0
sg6
F232.5
sg7
F1.0
sg8
F233.0
saa(lp585
V120456
p586
a(dp587
g5
F233.0
sg6
F232.5
sg7
F0.5
sg8
F232.5
saa(lp588
V120522
p589
a(dp590
g5
F233.0
sg6
F232.5
sg7
F0.5
sg8
F232.5
saa(lp591
V120923
p592
a(dp593
g5
F233.0
sg6
F232.5
sg7
F0.5
sg8
F232.5
saa(lp594
V121004
p595
a(dp596
g5
F233.0
sg6
F232.5
sg7
F0.5
sg8
F232.5
saa(lp597
V121243
p598
a(dp599
g5
F233.0
sg6
F232.5
sg7
F0.5
sg8
F232.5
saa(lp600
V121329
p601
a(dp602
g5
F233.0
sg6
F232.5
sg7
F0.5
sg8
F232.5
saa(lp603
V121542
p604
a(dp605
g5
F232.5
sg6
F232.0
sg7
F0.0
sg8
F232.0
saa(lp606
V121933
p607
a(dp608
g5
F232.5
sg6
F232.0
sg7
F0.5
sg8
F232.5
saa(lp609
V121938
p610
a(dp611
g5
F232.5
sg6
F232.0
sg7
F0.5
sg8
F232.5
saa(lp612
V121954
p613
a(dp614
g5
F232.5
sg6
F232.0
sg7
F0.0
sg8
F232.0
saa(lp615
V122613
p616
a(dp617
g5
F232.5
sg6
F232.0
sg7
F0.0
sg8
F232.0
saa(lp618
V122953
p619
a(dp620
g5
F232.5
sg6
F232.0
sg7
F0.5
sg8
F232.5
saa(lp621
V122958
p622
a(dp623
g5
F232.5
sg6
F232.0
sg7
F0.0
sg8
F232.0
saa(lp624
V123003
p625
a(dp626
g5
F232.5
sg6
F232.0
sg7
F0.5
sg8
F232.5
saa(lp627
V123044
p628
a(dp629
g5
F233.0
sg6
F232.5
sg7
F0.5
sg8
F232.5
saa(lp630
V123217
p631
a(dp632
g5
F233.0
sg6
F232.5
sg7
F1.0
sg8
F233.0
saa(lp633
V123409
p634
a(dp635
g5
F233.0
sg6
F232.5
sg7
F1.0
sg8
F233.0
saa(lp636
V123511
p637
a(dp638
g5
F233.0
sg6
F232.5
sg7
F1.0
sg8
F233.0
saa(lp639
V123516
p640
a(dp641
g5
F233.5
sg6
F233.0
sg7
F1.5
sg8
F233.5
saa(lp642
V123531
p643
a(dp644
g5
F234.0
sg6
F233.0
sg7
F2.0
sg8
F234.0
saa(lp645
V123841
p646
a(dp647
g5
F234.0
sg6
F233.5
sg7
F1.5
sg8
F233.5
saa(lp648
V123917
p649
a(dp650
g5
F234.0
sg6
F233.5
sg7
F2.0
sg8
F234.0
saa(lp651
V124637
p652
a(dp653
g5
F234.0
sg6
F233.5
sg7
F1.5
sg8
F233.5
saa(lp654
V124713
p655
a(dp656
g5
F234.0
sg6
F233.5
sg7
F1.5
sg8
F233.5
saa(lp657
V125012
p658
a(dp659
g5
F234.0
sg6
F233.5
sg7
F2.0
sg8
F234.0
saa(lp660
V125114
p661
a(dp662
g5
F234.0
sg6
F233.5
sg7
F2.0
sg8
F234.0
saa(lp663
V125210
p664
a(dp665
g5
F234.0
sg6
F233.5
sg7
F2.0
sg8
F234.0
saa(lp666
V125215
p667
a(dp668
g5
F234.0
sg6
F233.5
sg7
F1.5
sg8
F233.5
saa(lp669
V125256
p670
a(dp671
g5
F234.0
sg6
F233.5
sg7
F1.5
sg8
F233.5
saa(lp672
V125332
p673
a(dp674
g5
F234.0
sg6
F233.5
sg7
F1.5
sg8
F233.5
saa(lp675
V125514
p676
a(dp677
g5
F233.5
sg6
F233.0
sg7
F1.5
sg8
F233.5
saa(lp678
V125738
p679
a(dp680
g5
F233.5
sg6
F233.0
sg7
F1.0
sg8
F233.0
saa(lp681
V125743
p682
a(dp683
g5
F233.5
sg6
F233.0
sg7
F1.0
sg8
F233.0
saa(lp684
V125748
p685
a(dp686
g5
F233.5
sg6
F233.0
sg7
F1.5
sg8
F233.5
saa(lp687
V125758
p688
a(dp689
g5
F233.5
sg6
F233.0
sg7
F1.5
sg8
F233.5
saa(lp690
V125824
p691
a(dp692
g5
F233.5
sg6
F233.0
sg7
F1.5
sg8
F233.5
saa(lp693
V125829
p694
a(dp695
g5
F234.0
sg6
F233.5
sg7
F1.5
sg8
F233.5
saa(lp696
V125854
p697
a(dp698
g5
F234.0
sg6
F233.5
sg7
F1.5
sg8
F233.5
saa(lp699
V130001
p700
a(dp701
g5
F234.0
sg6
F233.5
sg7
F1.5
sg8
F233.5
saa(lp702
V130042
p703
a(dp704
g5
F233.5
sg6
F233.0
sg7
F1.0
sg8
F233.0
saa(lp705
V130311
p706
a(dp707
g5
F233.5
sg6
F233.0
sg7
F1.0
sg8
F233.0
saa(lp708
V130412
p709
a(dp710
g5
F233.5
sg6
F233.0
sg7
F1.0
sg8
F233.0
saa(lp711
V130417
p712
a(dp713
g5
F233.5
sg6
F233.0
sg7
F1.0
sg8
F233.0
saa(lp714
V130534
p715
a(dp716
g5
F233.5
sg6
F233.0
sg7
F1.5
sg8
F233.5
saa(lp717
V130716
p718
a(dp719
g5
F233.5
sg6
F233.0
sg7
F1.5
sg8
F233.5
saa(lp720
V130726
p721
a(dp722
g5
F233.5
sg6
F233.0
sg7
F1.5
sg8
F233.5
saa(lp723
V130807
p724
a(dp725
g5
F233.5
sg6
F233.0
sg7
F1.5
sg8
F233.5
saa(lp726
V130822
p727
a(dp728
g5
F234.0
sg6
F233.0
sg7
F1.0
sg8
F233.0
saa(lp729
V130842
p730
a(dp731
g5
F233.5
sg6
F233.0
sg7
F1.0
sg8
F233.0
saa(lp732
V131232
p733
a(dp734
g5
F233.5
sg6
F233.0
sg7
F1.0
sg8
F233.0
saa(lp735
V131248
p736
a(dp737
g5
F233.5
sg6
F233.0
sg7
F1.5
sg8
F233.5
saa(lp738
V131253
p739
a(dp740
g5
F233.5
sg6
F233.0
sg7
F1.0
sg8
F233.0
saa(lp741
V131258
p742
a(dp743
g5
F233.5
sg6
F233.0
sg7
F1.0
sg8
F233.0
saa(lp744
V131333
p745
a(dp746
g5
F233.5
sg6
F233.0
sg7
F1.0
sg8
F233.0
saa(lp747
V131339
p748
a(dp749
g5
F233.5
sg6
F233.0
sg7
F1.0
sg8
F233.0
saa(lp750
V131354
p751
a(dp752
g5
F233.5
sg6
F233.0
sg7
F1.0
sg8
F233.0
saa(lp753
V131723
p754
a(dp755
g5
F233.5
sg6
F233.0
sg7
F1.0
sg8
F233.0
saa(lp756
V131926
p757
a(dp758
g5
F233.5
sg6
F233.0
sg7
F1.5
sg8
F233.5
saa(lp759
V132006
p760
a(dp761
g5
F233.5
sg6
F233.0
sg7
F1.0
sg8
F233.0
saa(lp762
V132108
p763
a(dp764
g5
F233.5
sg6
F233.0
sg7
F1.0
sg8
F233.0
saa(lp765
V132118
p766
a(dp767
g5
F233.5
sg6
F233.0
sg7
F1.0
sg8
F233.0
saa(lp768
V132123
p769
a(dp770
g5
F233.5
sg6
F233.0
sg7
F1.0
sg8
F233.0
saa(lp771
V132128
p772
a(dp773
g5
F233.5
sg6
F233.0
sg7
F1.0
sg8
F233.0
saa(lp774
V132204
p775
a(dp776
g5
F233.0
sg6
F232.5
sg7
F0.5
sg8
F232.5
saa(lp777
V132300
p778
a(dp779
g5
F233.0
sg6
F232.5
sg7
F0.5
sg8
F232.5
saa(lp780
V132305
p781
a(dp782
g5
F233.0
sg6
F232.5
sg7
F0.5
sg8
F232.5
saa(lp783
V132315
p784
a(dp785
g5
F232.5
sg6
F232.0
sg7
F0.0
sg8
F232.0
saa(lp786
V132341
p787
a(dp788
g5
F232.5
sg6
F232.0
sg7
F0.5
sg8
F232.5
saa(lp789
V132406
p790
a(dp791
g5
F232.5
sg6
F232.0
sg7
F0.0
sg8
F232.0
saa(lp792
V132416
p793
a(dp794
g5
F232.5
sg6
F232.0
sg7
F0.0
sg8
F232.0
saa(lp795
V132432
p796
a(dp797
g5
F232.5
sg6
F232.0
sg7
F0.0
sg8
F232.0
saa(lp798
V133000
p799
a(dp800
g5
F233.0
sg6
F232.0
sg7
F0.0
sg8
F232.0
saatp801
Rp802
.