ccollections
OrderedDict
p0
((lp1
(lp2
V090035
p3
a(dp4
S'sell'
p5
F229.5
sS'diff'
p6
F-1.5
sS'buy'
p7
F229.0
sS'count'
p8
F1.0
sS'deal'
p9
F229.5
saa(lp10
V090055
p11
a(dp12
g5
F229.5
sg6
F-1.5
sg7
F229.0
sg8
F2.0
sg9
F229.5
saa(lp13
V090115
p14
a(dp15
g5
F229.5
sg6
F-1.5
sg7
F229.0
sg8
F1.0
sg9
F229.5
saa(lp16
V090121
p17
a(dp18
g5
F229.5
sg6
F-1.5
sg7
F229.0
sg8
F1.0
sg9
F229.5
saa(lp19
V090126
p20
a(dp21
g5
F229.5
sg6
F-1.5
sg7
F229.0
sg8
F1.0
sg9
F229.5
saa(lp22
V090427
p23
a(dp24
g5
F230.0
sg6
F-1.0
sg7
F229.5
sg8
F1.0
sg9
F230.0
saa(lp25
V090437
p26
a(dp27
g5
F230.0
sg6
F-1.5
sg7
F229.5
sg8
F2.0
sg9
F229.5
saa(lp28
V090442
p29
a(dp30
g5
F230.0
sg6
F-1.0
sg7
F229.5
sg8
F1.0
sg9
F230.0
saa(lp31
V090512
p32
a(dp33
g5
F230.0
sg6
F-1.0
sg7
F229.5
sg8
F1.0
sg9
F230.0
saa(lp34
V090617
p35
a(dp36
g5
F230.0
sg6
F-1.0
sg7
F229.5
sg8
F1.0
sg9
F230.0
saa(lp37
V090853
p38
a(dp39
g5
F230.0
sg6
F-1.0
sg7
F229.5
sg8
F1.0
sg9
F230.0
saa(lp40
V090858
p41
a(dp42
g5
F230.0
sg6
F-1.0
sg7
F229.5
sg8
F6.0
sg9
F230.0
saa(lp43
V090903
p44
a(dp45
g5
F230.0
sg6
F-1.0
sg7
F229.5
sg8
F1.0
sg9
F230.0
saa(lp46
V090908
p47
a(dp48
g5
F230.0
sg6
F-1.0
sg7
F229.5
sg8
F1.0
sg9
F230.0
saa(lp49
V090923
p50
a(dp51
g5
F230.0
sg6
F-1.5
sg7
F229.5
sg8
F1.0
sg9
F229.5
saa(lp52
V090928
p53
a(dp54
g5
F230.0
sg6
F-2.0
sg7
F229.0
sg8
F3.0
sg9
F229.0
saa(lp55
V090938
p56
a(dp57
g5
F230.0
sg6
F-1.0
sg7
F229.5
sg8
F2.0
sg9
F230.0
saa(lp58
V090943
p59
a(dp60
g5
F230.0
sg6
F-2.0
sg7
F228.5
sg8
F1.0
sg9
F229.0
saa(lp61
V090958
p62
a(dp63
g5
F230.0
sg6
F-2.0
sg7
F228.5
sg8
F2.0
sg9
F229.0
saa(lp64
V091023
p65
a(dp66
g5
F229.0
sg6
F-2.0
sg7
F228.5
sg8
F9.0
sg9
F229.0
saa(lp67
V091028
p68
a(dp69
g5
F229.0
sg6
F-2.0
sg7
F228.5
sg8
F3.0
sg9
F229.0
saa(lp70
V091033
p71
a(dp72
g5
F230.0
sg6
F-1.0
sg7
F229.0
sg8
F2.0
sg9
F230.0
saa(lp73
V091043
p74
a(dp75
g5
F229.0
sg6
F-2.5
sg7
F228.5
sg8
F2.0
sg9
F228.5
saa(lp76
V091048
p77
a(dp78
g5
F229.0
sg6
F-2.5
sg7
F228.5
sg8
F2.0
sg9
F228.5
saa(lp79
V091053
p80
a(dp81
g5
F229.0
sg6
F-2.0
sg7
F228.5
sg8
F2.0
sg9
F229.0
saa(lp82
V091058
p83
a(dp84
g5
F229.0
sg6
F-2.0
sg7
F228.5
sg8
F6.0
sg9
F229.0
saa(lp85
V091103
p86
a(dp87
g5
F229.0
sg6
F-2.0
sg7
F228.5
sg8
F2.0
sg9
F229.0
saa(lp88
V091118
p89
a(dp90
g5
F229.5
sg6
F-2.0
sg7
F229.0
sg8
F1.0
sg9
F229.0
saa(lp91
V091123
p92
a(dp93
g5
F229.5
sg6
F-1.5
sg7
F229.0
sg8
F4.0
sg9
F229.5
saa(lp94
V091404
p95
a(dp96
g5
F229.5
sg6
F-2.5
sg7
F229.0
sg8
F6.0
sg9
F228.5
saa(lp97
V091409
p98
a(dp99
g5
F229.5
sg6
F-2.5
sg7
F228.5
sg8
F1.0
sg9
F228.5
saa(lp100
V091445
p101
a(dp102
g5
F229.0
sg6
F-3.0
sg7
F228.0
sg8
F1.0
sg9
F228.0
saa(lp103
V091505
p104
a(dp105
g5
F229.0
sg6
F-2.5
sg7
F228.0
sg8
F1.0
sg9
F228.5
saa(lp106
V091515
p107
a(dp108
g5
F228.5
sg6
F-2.5
sg7
F228.0
sg8
F1.0
sg9
F228.5
saa(lp109
V091545
p110
a(dp111
g5
F228.5
sg6
F-2.5
sg7
F228.0
sg8
F1.0
sg9
F228.5
saa(lp112
V091550
p113
a(dp114
g5
F228.5
sg6
F-2.5
sg7
F228.0
sg8
F1.0
sg9
F228.5
saa(lp115
V091600
p116
a(dp117
g5
F228.5
sg6
F-3.0
sg7
F228.0
sg8
F2.0
sg9
F228.0
saa(lp118
V091605
p119
a(dp120
g5
F228.5
sg6
F-2.5
sg7
F228.0
sg8
F1.0
sg9
F228.5
saa(lp121
V091610
p122
a(dp123
g5
F228.5
sg6
F-2.5
sg7
F228.0
sg8
F1.0
sg9
F228.5
saa(lp124
V091615
p125
a(dp126
g5
F228.5
sg6
F-3.0
sg7
F228.0
sg8
F1.0
sg9
F228.0
saa(lp127
V091620
p128
a(dp129
g5
F228.5
sg6
F-2.5
sg7
F228.0
sg8
F1.0
sg9
F228.5
saa(lp130
V091735
p131
a(dp132
g5
F228.5
sg6
F-3.0
sg7
F228.0
sg8
F2.0
sg9
F228.0
saa(lp133
V091740
p134
a(dp135
g5
F228.5
sg6
F-3.0
sg7
F228.0
sg8
F1.0
sg9
F228.0
saa(lp136
V091745
p137
a(dp138
g5
F228.5
sg6
F-3.0
sg7
F228.0
sg8
F2.0
sg9
F228.0
saa(lp139
V091750
p140
a(dp141
g5
F228.5
sg6
F-3.0
sg7
F228.0
sg8
F1.0
sg9
F228.0
saa(lp142
V091755
p143
a(dp144
g5
F228.0
sg6
F-4.0
sg7
F227.5
sg8
F4.0
sg9
F227.0
saa(lp145
V091800
p146
a(dp147
g5
F228.0
sg6
F-4.0
sg7
F227.0
sg8
F2.0
sg9
F227.0
saa(lp148
V091805
p149
a(dp150
g5
F227.0
sg6
F-4.5
sg7
F226.0
sg8
F1.0
sg9
F226.5
saa(lp151
V091820
p152
a(dp153
g5
F228.0
sg6
F-4.5
sg7
F226.5
sg8
F1.0
sg9
F226.5
saa(lp154
V091830
p155
a(dp156
g5
F228.0
sg6
F-3.0
sg7
F226.5
sg8
F1.0
sg9
F228.0
saa(lp157
V092121
p158
a(dp159
g5
F228.5
sg6
F-3.0
sg7
F228.0
sg8
F3.0
sg9
F228.0
saa(lp160
V092126
p161
a(dp162
g5
F228.5
sg6
F-3.0
sg7
F228.0
sg8
F2.0
sg9
F228.0
saa(lp163
V092131
p164
a(dp165
g5
F228.5
sg6
F-3.0
sg7
F228.0
sg8
F1.0
sg9
F228.0
saa(lp166
V092136
p167
a(dp168
g5
F228.0
sg6
F-3.5
sg7
F227.5
sg8
F3.0
sg9
F227.5
saa(lp169
V092206
p170
a(dp171
g5
F228.0
sg6
F-4.0
sg7
F227.0
sg8
F2.0
sg9
F227.0
saa(lp172
V092226
p173
a(dp174
g5
F227.5
sg6
F-4.0
sg7
F227.0
sg8
F1.0
sg9
F227.0
saa(lp175
V092231
p176
a(dp177
g5
F227.5
sg6
F-4.0
sg7
F227.0
sg8
F1.0
sg9
F227.0
saa(lp178
V092241
p179
a(dp180
g5
F227.5
sg6
F-4.0
sg7
F227.0
sg8
F2.0
sg9
F227.0
saa(lp181
V092251
p182
a(dp183
g5
F227.5
sg6
F-4.0
sg7
F227.0
sg8
F2.0
sg9
F227.0
saa(lp184
V092306
p185
a(dp186
g5
F227.5
sg6
F-3.5
sg7
F227.0
sg8
F1.0
sg9
F227.5
saa(lp187
V092442
p188
a(dp189
g5
F227.5
sg6
F-4.0
sg7
F227.0
sg8
F3.0
sg9
F227.0
saa(lp190
V092532
p191
a(dp192
g5
F227.5
sg6
F-4.0
sg7
F227.0
sg8
F1.0
sg9
F227.0
saa(lp193
V092537
p194
a(dp195
g5
F227.0
sg6
F-4.5
sg7
F226.5
sg8
F1.0
sg9
F226.5
saa(lp196
V092603
p197
a(dp198
g5
F227.0
sg6
F-4.5
sg7
F226.5
sg8
F1.0
sg9
F226.5
saa(lp199
V092628
p200
a(dp201
g5
F227.0
sg6
F-4.5
sg7
F226.5
sg8
F1.0
sg9
F226.5
saa(lp202
V092833
p203
a(dp204
g5
F227.0
sg6
F-4.5
sg7
F226.5
sg8
F7.0
sg9
F226.5
saa(lp205
V092913
p206
a(dp207
g5
F227.0
sg6
F-4.0
sg7
F226.5
sg8
F1.0
sg9
F227.0
saa(lp208
V093134
p209
a(dp210
g5
F227.0
sg6
F-4.0
sg7
F226.5
sg8
F1.0
sg9
F227.0
saa(lp211
V093209
p212
a(dp213
g5
F227.0
sg6
F-4.0
sg7
F226.5
sg8
F2.0
sg9
F227.0
saa(lp214
V093219
p215
a(dp216
g5
F227.0
sg6
F-4.0
sg7
F226.5
sg8
F1.0
sg9
F227.0
saa(lp217
V093224
p218
a(dp219
g5
F227.0
sg6
F-4.0
sg7
F226.5
sg8
F5.0
sg9
F227.0
saa(lp220
V093229
p221
a(dp222
g5
F227.5
sg6
F-4.0
sg7
F227.0
sg8
F2.0
sg9
F227.0
saa(lp223
V093249
p224
a(dp225
g5
F227.5
sg6
F-4.0
sg7
F227.0
sg8
F3.0
sg9
F227.0
saa(lp226
V094407
p227
a(dp228
g5
F227.5
sg6
F-4.0
sg7
F227.0
sg8
F1.0
sg9
F227.0
saa(lp229
V094638
p230
a(dp231
g5
F227.5
sg6
F-3.5
sg7
F227.0
sg8
F1.0
sg9
F227.5
saa(lp232
V094723
p233
a(dp234
g5
F227.5
sg6
F-3.5
sg7
F227.0
sg8
F1.0
sg9
F227.5
saa(lp235
V094738
p236
a(dp237
g5
F227.5
sg6
F-3.5
sg7
F227.0
sg8
F1.0
sg9
F227.5
saa(lp238
V094743
p239
a(dp240
g5
F227.5
sg6
F-3.5
sg7
F227.0
sg8
F2.0
sg9
F227.5
saa(lp241
V094748
p242
a(dp243
g5
F227.5
sg6
F-3.5
sg7
F227.0
sg8
F1.0
sg9
F227.5
saa(lp244
V094753
p245
a(dp246
g5
F228.0
sg6
F-3.5
sg7
F227.0
sg8
F1.0
sg9
F227.5
saa(lp247
V095159
p248
a(dp249
g5
F228.0
sg6
F-3.5
sg7
F227.5
sg8
F3.0
sg9
F227.5
saa(lp250
V095204
p251
a(dp252
g5
F228.0
sg6
F-3.0
sg7
F227.5
sg8
F1.0
sg9
F228.0
saa(lp253
V095229
p254
a(dp255
g5
F228.0
sg6
F-3.5
sg7
F227.5
sg8
F3.0
sg9
F227.5
saa(lp256
V095249
p257
a(dp258
g5
F228.0
sg6
F-3.5
sg7
F227.5
sg8
F1.0
sg9
F227.5
saa(lp259
V095516
p260
a(dp261
g5
F228.0
sg6
F-3.5
sg7
F227.5
sg8
F2.0
sg9
F227.5
saa(lp262
V095521
p263
a(dp264
g5
F228.0
sg6
F-3.0
sg7
F227.0
sg8
F1.0
sg9
F228.0
saa(lp265
V095546
p266
a(dp267
g5
F228.0
sg6
F-3.0
sg7
F227.0
sg8
F1.0
sg9
F228.0
saa(lp268
V095836
p269
a(dp270
g5
F228.0
sg6
F-3.0
sg7
F227.0
sg8
F1.0
sg9
F228.0
saa(lp271
V095947
p272
a(dp273
g5
F227.5
sg6
F-4.0
sg7
F227.0
sg8
F1.0
sg9
F227.0
saa(lp274
V100022
p275
a(dp276
g5
F227.5
sg6
F-4.0
sg7
F227.0
sg8
F7.0
sg9
F227.0
saa(lp277
V100027
p278
a(dp279
g5
F227.5
sg6
F-4.0
sg7
F227.0
sg8
F2.0
sg9
F227.0
saa(lp280
V100032
p281
a(dp282
g5
F227.5
sg6
F-4.0
sg7
F227.0
sg8
F2.0
sg9
F227.0
saa(lp283
V100152
p284
a(dp285
g5
F227.5
sg6
F-4.0
sg7
F227.0
sg8
F4.0
sg9
F227.0
saa(lp286
V100538
p287
a(dp288
g5
F227.5
sg6
F-4.0
sg7
F227.0
sg8
F1.0
sg9
F227.0
saa(lp289
V100543
p290
a(dp291
g5
F227.5
sg6
F-3.5
sg7
F227.0
sg8
F1.0
sg9
F227.5
saa(lp292
V101009
p293
a(dp294
g5
F227.5
sg6
F-4.0
sg7
F227.0
sg8
F1.0
sg9
F227.0
saa(lp295
V101120
p296
a(dp297
g5
F227.5
sg6
F-4.0
sg7
F227.0
sg8
F2.0
sg9
F227.0
saa(lp298
V101511
p299
a(dp300
g5
F227.5
sg6
F-4.0
sg7
F227.0
sg8
F1.0
sg9
F227.0
saa(lp301
V101927
p302
a(dp303
g5
F227.5
sg6
F-4.0
sg7
F227.0
sg8
F2.0
sg9
F227.0
saa(lp304
V102338
p305
a(dp306
g5
F227.5
sg6
F-4.0
sg7
F227.0
sg8
F1.0
sg9
F227.0
saa(lp307
V102444
p308
a(dp309
g5
F227.5
sg6
F-3.5
sg7
F227.0
sg8
F3.0
sg9
F227.5
saa(lp310
V102840
p311
a(dp312
g5
F227.5
sg6
F-4.0
sg7
F227.0
sg8
F1.0
sg9
F227.0
saa(lp313
V102900
p314
a(dp315
g5
F227.5
sg6
F-3.5
sg7
F227.0
sg8
F2.0
sg9
F227.5
saa(lp316
V102905
p317
a(dp318
g5
F227.5
sg6
F-3.5
sg7
F227.0
sg8
F1.0
sg9
F227.5
saa(lp319
V102910
p320
a(dp321
g5
F227.5
sg6
F-3.5
sg7
F227.0
sg8
F9.0
sg9
F227.5
saa(lp322
V102930
p323
a(dp324
g5
F227.5
sg6
F-3.5
sg7
F227.0
sg8
F1.0
sg9
F227.5
saa(lp325
V103105
p326
a(dp327
g5
F227.5
sg6
F-3.5
sg7
F227.0
sg8
F1.0
sg9
F227.5
saa(lp328
V103301
p329
a(dp330
g5
F228.0
sg6
F-4.0
sg7
F227.0
sg8
F1.0
sg9
F227.0
saa(lp331
V103306
p332
a(dp333
g5
F228.0
sg6
F-3.0
sg7
F227.0
sg8
F1.0
sg9
F228.0
saa(lp334
V103401
p335
a(dp336
g5
F228.0
sg6
F-3.5
sg7
F227.5
sg8
F2.0
sg9
F227.5
saa(lp337
V103406
p338
a(dp339
g5
F228.0
sg6
F-3.5
sg7
F227.5
sg8
F2.0
sg9
F227.5
saa(lp340
V103416
p341
a(dp342
g5
F228.0
sg6
F-3.0
sg7
F227.5
sg8
F1.0
sg9
F228.0
saa(lp343
V103622
p344
a(dp345
g5
F228.0
sg6
F-3.0
sg7
F227.5
sg8
F1.0
sg9
F228.0
saa(lp346
V103627
p347
a(dp348
g5
F228.0
sg6
F-3.0
sg7
F227.5
sg8
F1.0
sg9
F228.0
saa(lp349
V103712
p350
a(dp351
g5
F228.0
sg6
F-3.0
sg7
F227.5
sg8
F1.0
sg9
F228.0
saa(lp352
V104650
p353
a(dp354
g5
F228.0
sg6
F-3.5
sg7
F227.5
sg8
F1.0
sg9
F227.5
saa(lp355
V105031
p356
a(dp357
g5
F228.0
sg6
F-3.5
sg7
F227.5
sg8
F1.0
sg9
F227.5
saa(lp358
V105432
p359
a(dp360
g5
F228.0
sg6
F-3.0
sg7
F227.5
sg8
F2.0
sg9
F228.0
saa(lp361
V105437
p362
a(dp363
g5
F228.0
sg6
F-3.0
sg7
F227.5
sg8
F2.0
sg9
F228.0
saa(lp364
V105713
p365
a(dp366
g5
F228.0
sg6
F-3.0
sg7
F227.5
sg8
F1.0
sg9
F228.0
saa(lp367
V105718
p368
a(dp369
g5
F228.0
sg6
F-3.0
sg7
F227.5
sg8
F1.0
sg9
F228.0
saa(lp370
V105723
p371
a(dp372
g5
F228.0
sg6
F-3.0
sg7
F227.5
sg8
F2.0
sg9
F228.0
saa(lp373
V105728
p374
a(dp375
g5
F228.0
sg6
F-3.0
sg7
F227.5
sg8
F1.0
sg9
F228.0
saa(lp376
V110409
p377
a(dp378
g5
F228.0
sg6
F-3.5
sg7
F227.5
sg8
F1.0
sg9
F227.5
saa(lp379
V110545
p380
a(dp381
g5
F228.0
sg6
F-3.5
sg7
F227.5
sg8
F12.0
sg9
F227.5
saa(lp382
V110550
p383
a(dp384
g5
F228.0
sg6
F-3.5
sg7
F227.5
sg8
F7.0
sg9
F227.5
saa(lp385
V110555
p386
a(dp387
g5
F228.0
sg6
F-3.0
sg7
F227.5
sg8
F2.0
sg9
F228.0
saa(lp388
V110600
p389
a(dp390
g5
F228.0
sg6
F-3.0
sg7
F227.5
sg8
F3.0
sg9
F228.0
saa(lp391
V110605
p392
a(dp393
g5
F228.0
sg6
F-3.0
sg7
F227.5
sg8
F1.0
sg9
F228.0
saa(lp394
V110625
p395
a(dp396
g5
F228.0
sg6
F-3.0
sg7
F227.5
sg8
F8.0
sg9
F228.0
saa(lp397
V110630
p398
a(dp399
g5
F228.0
sg6
F-3.0
sg7
F227.5
sg8
F2.0
sg9
F228.0
saa(lp400
V110635
p401
a(dp402
g5
F228.0
sg6
F-3.0
sg7
F227.5
sg8
F1.0
sg9
F228.0
saa(lp403
V110640
p404
a(dp405
g5
F228.0
sg6
F-3.0
sg7
F227.5
sg8
F5.0
sg9
F228.0
saa(lp406
V110645
p407
a(dp408
g5
F228.0
sg6
F-3.0
sg7
F227.5
sg8
F1.0
sg9
F228.0
saa(lp409
V110650
p410
a(dp411
g5
F228.5
sg6
F-2.5
sg7
F228.0
sg8
F2.0
sg9
F228.5
saa(lp412
V110705
p413
a(dp414
g5
F228.5
sg6
F-2.5
sg7
F228.0
sg8
F5.0
sg9
F228.5
saa(lp415
V110710
p416
a(dp417
g5
F228.5
sg6
F-2.5
sg7
F228.0
sg8
F3.0
sg9
F228.5
saa(lp418
V110730
p419
a(dp420
g5
F229.0
sg6
F-2.0
sg7
F228.5
sg8
F2.0
sg9
F229.0
saa(lp421
V110735
p422
a(dp423
g5
F229.0
sg6
F-2.5
sg7
F228.5
sg8
F4.0
sg9
F228.5
saa(lp424
V110926
p425
a(dp426
g5
F229.0
sg6
F-2.0
sg7
F228.5
sg8
F1.0
sg9
F229.0
saa(lp427
V111357
p428
a(dp429
g5
F229.0
sg6
F-2.5
sg7
F228.5
sg8
F10.0
sg9
F228.5
saa(lp430
V111402
p431
a(dp432
g5
F229.0
sg6
F-2.5
sg7
F228.5
sg8
F1.0
sg9
F228.5
saa(lp433
V111448
p434
a(dp435
g5
F229.0
sg6
F-2.5
sg7
F228.5
sg8
F1.0
sg9
F228.5
saa(lp436
V111553
p437
a(dp438
g5
F229.0
sg6
F-2.5
sg7
F228.5
sg8
F1.0
sg9
F228.5
saa(lp439
V111558
p440
a(dp441
g5
F229.0
sg6
F-2.5
sg7
F228.5
sg8
F1.0
sg9
F228.5
saa(lp442
V111603
p443
a(dp444
g5
F229.0
sg6
F-3.0
sg7
F228.0
sg8
F2.0
sg9
F228.0
saa(lp445
V111608
p446
a(dp447
g5
F228.5
sg6
F-3.0
sg7
F228.0
sg8
F2.0
sg9
F228.0
saa(lp448
V112139
p449
a(dp450
g5
F228.0
sg6
F-3.0
sg7
F227.5
sg8
F1.0
sg9
F228.0
saa(lp451
V112916
p452
a(dp453
g5
F228.0
sg6
F-3.0
sg7
F227.5
sg8
F1.0
sg9
F228.0
saa(lp454
V113042
p455
a(dp456
g5
F228.0
sg6
F-3.5
sg7
F227.5
sg8
F1.0
sg9
F227.5
saa(lp457
V113047
p458
a(dp459
g5
F228.0
sg6
F-3.5
sg7
F227.5
sg8
F1.0
sg9
F227.5
saa(lp460
V113052
p461
a(dp462
g5
F228.0
sg6
F-3.0
sg7
F227.5
sg8
F1.0
sg9
F228.0
saa(lp463
V113132
p464
a(dp465
g5
F228.0
sg6
F-3.5
sg7
F227.5
sg8
F1.0
sg9
F227.5
saa(lp466
V113609
p467
a(dp468
g5
F228.0
sg6
F-3.5
sg7
F227.5
sg8
F1.0
sg9
F227.5
saa(lp469
V114010
p470
a(dp471
g5
F228.0
sg6
F-3.5
sg7
F227.5
sg8
F1.0
sg9
F227.5
saa(lp472
V114310
p473
a(dp474
g5
F228.0
sg6
F-3.5
sg7
F227.5
sg8
F1.0
sg9
F227.5
saa(lp475
V114541
p476
a(dp477
g5
F228.0
sg6
F-3.5
sg7
F227.5
sg8
F1.0
sg9
F227.5
saa(lp478
V114546
p479
a(dp480
g5
F228.0
sg6
F-3.0
sg7
F227.5
sg8
F1.0
sg9
F228.0
saa(lp481
V114551
p482
a(dp483
g5
F228.0
sg6
F-3.0
sg7
F227.5
sg8
F1.0
sg9
F228.0
saa(lp484
V114802
p485
a(dp486
g5
F228.0
sg6
F-3.5
sg7
F227.5
sg8
F1.0
sg9
F227.5
saa(lp487
V114922
p488
a(dp489
g5
F228.0
sg6
F-3.5
sg7
F227.5
sg8
F1.0
sg9
F227.5
saa(lp490
V115103
p491
a(dp492
g5
F228.0
sg6
F-3.5
sg7
F227.5
sg8
F1.0
sg9
F227.5
saa(lp493
V115123
p494
a(dp495
g5
F228.0
sg6
F-3.5
sg7
F227.5
sg8
F1.0
sg9
F227.5
saa(lp496
V115213
p497
a(dp498
g5
F228.0
sg6
F-3.5
sg7
F227.5
sg8
F1.0
sg9
F227.5
saa(lp499
V115549
p500
a(dp501
g5
F228.0
sg6
F-3.5
sg7
F227.5
sg8
F1.0
sg9
F227.5
saa(lp502
V115554
p503
a(dp504
g5
F228.0
sg6
F-3.0
sg7
F227.5
sg8
F1.0
sg9
F228.0
saa(lp505
V115855
p506
a(dp507
g5
F228.0
sg6
F-3.0
sg7
F227.5
sg8
F1.0
sg9
F228.0
saa(lp508
V120045
p509
a(dp510
g5
F228.0
sg6
F-3.5
sg7
F227.5
sg8
F1.0
sg9
F227.5
saa(lp511
V120401
p512
a(dp513
g5
F228.0
sg6
F-3.0
sg7
F227.5
sg8
F1.0
sg9
F228.0
saa(lp514
V120552
p515
a(dp516
g5
F228.0
sg6
F-3.5
sg7
F227.5
sg8
F1.0
sg9
F227.5
saa(lp517
V120632
p518
a(dp519
g5
F228.0
sg6
F-3.0
sg7
F227.5
sg8
F1.0
sg9
F228.0
saa(lp520
V121033
p521
a(dp522
g5
F228.0
sg6
F-3.0
sg7
F227.5
sg8
F1.0
sg9
F228.0
saa(lp523
V121048
p524
a(dp525
g5
F228.0
sg6
F-3.0
sg7
F227.5
sg8
F1.0
sg9
F228.0
saa(lp526
V121058
p527
a(dp528
g5
F228.0
sg6
F-3.5
sg7
F227.5
sg8
F1.0
sg9
F227.5
saa(lp529
V121118
p530
a(dp531
g5
F228.0
sg6
F-3.0
sg7
F227.5
sg8
F1.0
sg9
F228.0
saa(lp532
V121133
p533
a(dp534
g5
F228.0
sg6
F-3.5
sg7
F227.5
sg8
F1.0
sg9
F227.5
saa(lp535
V121153
p536
a(dp537
g5
F228.0
sg6
F-3.5
sg7
F227.5
sg8
F1.0
sg9
F227.5
saa(lp538
V121158
p539
a(dp540
g5
F228.0
sg6
F-3.5
sg7
F227.5
sg8
F2.0
sg9
F227.5
saa(lp541
V121213
p542
a(dp543
g5
F228.0
sg6
F-3.5
sg7
F227.5
sg8
F1.0
sg9
F227.5
saa(lp544
V121218
p545
a(dp546
g5
F228.0
sg6
F-3.5
sg7
F227.5
sg8
F1.0
sg9
F227.5
saa(lp547
V121239
p548
a(dp549
g5
F228.0
sg6
F-3.0
sg7
F227.5
sg8
F1.0
sg9
F228.0
saa(lp550
V121535
p551
a(dp552
g5
F228.0
sg6
F-3.0
sg7
F227.5
sg8
F1.0
sg9
F228.0
saa(lp553
V121600
p554
a(dp555
g5
F228.0
sg6
F-3.5
sg7
F227.5
sg8
F1.0
sg9
F227.5
saa(lp556
V122031
p557
a(dp558
g5
F228.0
sg6
F-3.5
sg7
F227.5
sg8
F5.0
sg9
F227.5
saa(lp559
V122056
p560
a(dp561
g5
F228.0
sg6
F-3.5
sg7
F227.5
sg8
F2.0
sg9
F227.5
saa(lp562
V122116
p563
a(dp564
g5
F228.0
sg6
F-3.5
sg7
F227.5
sg8
F1.0
sg9
F227.5
saa(lp565
V122151
p566
a(dp567
g5
F228.0
sg6
F-3.5
sg7
F227.5
sg8
F4.0
sg9
F227.5
saa(lp568
V122221
p569
a(dp570
g5
F228.0
sg6
F-3.5
sg7
F227.5
sg8
F1.0
sg9
F227.5
saa(lp571
V122246
p572
a(dp573
g5
F228.0
sg6
F-3.5
sg7
F227.5
sg8
F1.0
sg9
F227.5
saa(lp574
V122251
p575
a(dp576
g5
F228.0
sg6
F-3.5
sg7
F227.5
sg8
F1.0
sg9
F227.5
saa(lp577
V122306
p578
a(dp579
g5
F228.0
sg6
F-3.5
sg7
F227.5
sg8
F1.0
sg9
F227.5
saa(lp580
V122346
p581
a(dp582
g5
F228.0
sg6
F-3.5
sg7
F227.5
sg8
F1.0
sg9
F227.5
saa(lp583
V122422
p584
a(dp585
g5
F228.0
sg6
F-3.5
sg7
F227.5
sg8
F1.0
sg9
F227.5
saa(lp586
V122432
p587
a(dp588
g5
F228.0
sg6
F-3.5
sg7
F227.5
sg8
F2.0
sg9
F227.5
saa(lp589
V122437
p590
a(dp591
g5
F228.0
sg6
F-3.5
sg7
F227.5
sg8
F3.0
sg9
F227.5
saa(lp592
V122552
p593
a(dp594
g5
F227.5
sg6
F-4.0
sg7
F227.0
sg8
F1.0
sg9
F227.0
saa(lp595
V122918
p596
a(dp597
g5
F227.5
sg6
F-4.0
sg7
F227.0
sg8
F1.0
sg9
F227.0
saa(lp598
V122933
p599
a(dp600
g5
F227.5
sg6
F-4.0
sg7
F227.0
sg8
F1.0
sg9
F227.0
saa(lp601
V123003
p602
a(dp603
g5
F227.5
sg6
F-4.0
sg7
F227.0
sg8
F1.0
sg9
F227.0
saa(lp604
V123013
p605
a(dp606
g5
F227.5
sg6
F-4.0
sg7
F227.0
sg8
F1.0
sg9
F227.0
saa(lp607
V123059
p608
a(dp609
g5
F227.5
sg6
F-4.0
sg7
F227.0
sg8
F5.0
sg9
F227.0
saa(lp610
V123104
p611
a(dp612
g5
F227.5
sg6
F-4.0
sg7
F227.0
sg8
F1.0
sg9
F227.0
saa(lp613
V123129
p614
a(dp615
g5
F227.5
sg6
F-4.0
sg7
F227.0
sg8
F1.0
sg9
F227.0
saa(lp616
V123214
p617
a(dp618
g5
F227.5
sg6
F-4.0
sg7
F227.0
sg8
F1.0
sg9
F227.0
saa(lp619
V123329
p620
a(dp621
g5
F227.5
sg6
F-3.5
sg7
F227.0
sg8
F1.0
sg9
F227.5
saa(lp622
V123505
p623
a(dp624
g5
F227.5
sg6
F-4.0
sg7
F227.0
sg8
F1.0
sg9
F227.0
saa(lp625
V123946
p626
a(dp627
g5
F227.5
sg6
F-4.0
sg7
F227.0
sg8
F1.0
sg9
F227.0
saa(lp628
V123956
p629
a(dp630
g5
F227.5
sg6
F-4.0
sg7
F227.0
sg8
F1.0
sg9
F227.0
saa(lp631
V124026
p632
a(dp633
g5
F227.5
sg6
F-4.0
sg7
F227.0
sg8
F1.0
sg9
F227.0
saa(lp634
V124031
p635
a(dp636
g5
F227.5
sg6
F-4.0
sg7
F227.0
sg8
F2.0
sg9
F227.0
saa(lp637
V124041
p638
a(dp639
g5
F227.5
sg6
F-3.5
sg7
F227.0
sg8
F1.0
sg9
F227.5
saa(lp640
V124458
p641
a(dp642
g5
F227.5
sg6
F-4.0
sg7
F227.0
sg8
F1.0
sg9
F227.0
saa(lp643
V124528
p644
a(dp645
g5
F227.5
sg6
F-4.0
sg7
F227.0
sg8
F1.0
sg9
F227.0
saa(lp646
V124533
p647
a(dp648
g5
F227.5
sg6
F-3.5
sg7
F227.0
sg8
F1.0
sg9
F227.5
saa(lp649
V124833
p650
a(dp651
g5
F227.5
sg6
F-3.5
sg7
F227.0
sg8
F15.0
sg9
F227.5
saa(lp652
V124934
p653
a(dp654
g5
F227.5
sg6
F-3.5
sg7
F227.0
sg8
F1.0
sg9
F227.5
saa(lp655
V125350
p656
a(dp657
g5
F228.0
sg6
F-3.5
sg7
F227.5
sg8
F1.0
sg9
F227.5
saa(lp658
V125551
p659
a(dp660
g5
F228.0
sg6
F-3.5
sg7
F227.5
sg8
F4.0
sg9
F227.5
saa(lp661
V125556
p662
a(dp663
g5
F228.0
sg6
F-3.5
sg7
F227.5
sg8
F1.0
sg9
F227.5
saa(lp664
V125656
p665
a(dp666
g5
F228.0
sg6
F-3.5
sg7
F227.5
sg8
F1.0
sg9
F227.5
saa(lp667
V125746
p668
a(dp669
g5
F228.0
sg6
F-3.5
sg7
F227.5
sg8
F1.0
sg9
F227.5
saa(lp670
V125756
p671
a(dp672
g5
F228.0
sg6
F-3.5
sg7
F227.5
sg8
F1.0
sg9
F227.5
saa(lp673
V130032
p674
a(dp675
g5
F228.0
sg6
F-3.5
sg7
F227.5
sg8
F4.0
sg9
F227.5
saa(lp676
V130037
p677
a(dp678
g5
F228.0
sg6
F-3.5
sg7
F227.5
sg8
F4.0
sg9
F227.5
saa(lp679
V130042
p680
a(dp681
g5
F227.5
sg6
F-4.0
sg7
F227.0
sg8
F1.0
sg9
F227.0
saa(lp682
V130147
p683
a(dp684
g5
F227.5
sg6
F-4.0
sg7
F227.0
sg8
F10.0
sg9
F227.0
saa(lp685
V130152
p686
a(dp687
g5
F227.5
sg6
F-4.0
sg7
F227.0
sg8
F1.0
sg9
F227.0
saa(lp688
V130428
p689
a(dp690
g5
F227.5
sg6
F-4.0
sg7
F227.0
sg8
F1.0
sg9
F227.0
saa(lp691
V130508
p692
a(dp693
g5
F227.5
sg6
F-4.0
sg7
F227.0
sg8
F1.0
sg9
F227.0
saa(lp694
V130528
p695
a(dp696
g5
F227.5
sg6
F-4.0
sg7
F227.0
sg8
F1.0
sg9
F227.0
saa(lp697
V130704
p698
a(dp699
g5
F227.5
sg6
F-3.5
sg7
F227.0
sg8
F1.0
sg9
F227.5
saa(lp700
V130814
p701
a(dp702
g5
F227.5
sg6
F-4.0
sg7
F227.0
sg8
F1.0
sg9
F227.0
saa(lp703
V130829
p704
a(dp705
g5
F227.5
sg6
F-4.0
sg7
F227.0
sg8
F1.0
sg9
F227.0
saa(lp706
V130944
p707
a(dp708
g5
F227.5
sg6
F-4.0
sg7
F227.0
sg8
F1.0
sg9
F227.0
saa(lp709
V130959
p710
a(dp711
g5
F227.5
sg6
F-4.0
sg7
F227.0
sg8
F1.0
sg9
F227.0
saa(lp712
V131145
p713
a(dp714
g5
F227.5
sg6
F-4.0
sg7
F227.0
sg8
F1.0
sg9
F227.0
saa(lp715
V131235
p716
a(dp717
g5
F227.5
sg6
F-4.0
sg7
F227.0
sg8
F1.0
sg9
F227.0
saa(lp718
V131300
p719
a(dp720
g5
F227.5
sg6
F-4.0
sg7
F227.0
sg8
F1.0
sg9
F227.0
saa(lp721
V131616
p722
a(dp723
g5
F227.5
sg6
F-3.5
sg7
F227.0
sg8
F1.0
sg9
F227.5
saa(lp724
V131626
p725
a(dp726
g5
F227.5
sg6
F-4.0
sg7
F227.0
sg8
F1.0
sg9
F227.0
saa(lp727
V131726
p728
a(dp729
g5
F227.5
sg6
F-4.0
sg7
F227.0
sg8
F1.0
sg9
F227.0
saa(lp730
V131741
p731
a(dp732
g5
F227.5
sg6
F-4.0
sg7
F227.0
sg8
F1.0
sg9
F227.0
saa(lp733
V131802
p734
a(dp735
g5
F227.5
sg6
F-3.5
sg7
F227.0
sg8
F1.0
sg9
F227.5
saa(lp736
V132042
p737
a(dp738
g5
F227.5
sg6
F-4.0
sg7
F227.0
sg8
F4.0
sg9
F227.0
saa(lp739
V132158
p740
a(dp741
g5
F227.5
sg6
F-3.5
sg7
F227.0
sg8
F2.0
sg9
F227.5
saa(lp742
V132233
p743
a(dp744
g5
F227.5
sg6
F-4.0
sg7
F227.0
sg8
F1.0
sg9
F227.0
saa(lp745
V132313
p746
a(dp747
g5
F227.5
sg6
F-4.0
sg7
F227.0
sg8
F1.0
sg9
F227.0
saa(lp748
V132328
p749
a(dp750
g5
F227.5
sg6
F-4.0
sg7
F227.0
sg8
F1.0
sg9
F227.0
saa(lp751
V132333
p752
a(dp753
g5
F227.5
sg6
F-4.0
sg7
F227.0
sg8
F1.0
sg9
F227.0
saa(lp754
V132348
p755
a(dp756
g5
F227.5
sg6
F-4.0
sg7
F227.0
sg8
F2.0
sg9
F227.0
saa(lp757
V132353
p758
a(dp759
g5
F227.5
sg6
F-4.0
sg7
F227.0
sg8
F1.0
sg9
F227.0
saa(lp760
V132358
p761
a(dp762
g5
F227.5
sg6
F-4.0
sg7
F227.0
sg8
F2.0
sg9
F227.0
saa(lp763
V132408
p764
a(dp765
g5
F227.5
sg6
F-4.0
sg7
F227.0
sg8
F1.0
sg9
F227.0
saa(lp766
V132413
p767
a(dp768
g5
F227.5
sg6
F-4.0
sg7
F227.0
sg8
F1.0
sg9
F227.0
saa(lp769
V132418
p770
a(dp771
g5
F227.5
sg6
F-4.0
sg7
F227.0
sg8
F2.0
sg9
F227.0
saa(lp772
V132449
p773
a(dp774
g5
F227.5
sg6
F-4.0
sg7
F227.0
sg8
F7.0
sg9
F227.0
saa(lp775
V132454
p776
a(dp777
g5
F227.5
sg6
F-3.5
sg7
F227.0
sg8
F1.0
sg9
F227.5
saa(lp778
V133000
p779
a(dp780
g5
F228.0
sg6
F-4.5
sg7
F226.5
sg8
F25.0
sg9
F226.5
saatp781
Rp782
.