ccollections
OrderedDict
p0
((lp1
(lp2
V090021
p3
a(dp4
S'sell'
p5
F226.5
sS'diff'
p6
F-1.5
sS'buy'
p7
F225.5
sS'count'
p8
F1.0
sS'deal'
p9
F225.5
saa(lp10
V090026
p11
a(dp12
g5
F226.0
sg6
F-1.5
sg7
F225.5
sg8
F1.0
sg9
F225.5
saa(lp13
V090106
p14
a(dp15
g5
F225.5
sg6
F-1.5
sg7
F225.0
sg8
F1.0
sg9
F225.5
saa(lp16
V090237
p17
a(dp18
g5
F226.0
sg6
F-1.0
sg7
F225.5
sg8
F1.0
sg9
F226.0
saa(lp19
V090322
p20
a(dp21
g5
F226.5
sg6
F-0.5
sg7
F225.5
sg8
F1.0
sg9
F226.5
saa(lp22
V090337
p23
a(dp24
g5
F226.0
sg6
F-1.0
sg7
F225.5
sg8
F2.0
sg9
F226.0
saa(lp25
V090357
p26
a(dp27
g5
F226.5
sg6
F-1.0
sg7
F226.0
sg8
F1.0
sg9
F226.0
saa(lp28
V090412
p29
a(dp30
g5
F226.5
sg6
F-0.5
sg7
F226.0
sg8
F3.0
sg9
F226.5
saa(lp31
V090428
p32
a(dp33
g5
F226.5
sg6
F-0.5
sg7
F226.0
sg8
F1.0
sg9
F226.5
saa(lp34
V090433
p35
a(dp36
g5
F226.5
sg6
F-0.5
sg7
F226.0
sg8
F2.0
sg9
F226.5
saa(lp37
V090443
p38
a(dp39
g5
F228.5
sg6
F1.5
sg7
F228.0
sg8
F1.0
sg9
F228.5
saa(lp40
V090448
p41
a(dp42
g5
F229.0
sg6
F1.5
sg7
F228.5
sg8
F2.0
sg9
F228.5
saa(lp43
V090533
p44
a(dp45
g5
F228.5
sg6
F1.5
sg7
F227.0
sg8
F1.0
sg9
F228.5
saa(lp46
V090618
p47
a(dp48
g5
F228.5
sg6
F1.0
sg7
F227.0
sg8
F1.0
sg9
F228.0
saa(lp49
V090703
p50
a(dp51
g5
F227.5
sg6
F0.0
sg7
F227.0
sg8
F2.0
sg9
F227.0
saa(lp52
V090753
p53
a(dp54
g5
F227.0
sg6
F-0.5
sg7
F226.5
sg8
F1.0
sg9
F226.5
saa(lp55
V090838
p56
a(dp57
g5
F227.0
sg6
F0.0
sg7
F226.5
sg8
F1.0
sg9
F227.0
saa(lp58
V090853
p59
a(dp60
g5
F227.0
sg6
F0.0
sg7
F226.5
sg8
F1.0
sg9
F227.0
saa(lp61
V090858
p62
a(dp63
g5
F227.0
sg6
F0.0
sg7
F226.5
sg8
F1.0
sg9
F227.0
saa(lp64
V090908
p65
a(dp66
g5
F228.0
sg6
F-0.5
sg7
F226.5
sg8
F1.0
sg9
F226.5
saa(lp67
V090924
p68
a(dp69
g5
F228.0
sg6
F1.0
sg7
F226.5
sg8
F1.0
sg9
F228.0
saa(lp70
V090959
p71
a(dp72
g5
F227.5
sg6
F0.5
sg7
F227.0
sg8
F2.0
sg9
F227.5
saa(lp73
V091009
p74
a(dp75
g5
F228.0
sg6
F0.0
sg7
F227.0
sg8
F1.0
sg9
F227.0
saa(lp76
V091014
p77
a(dp78
g5
F228.0
sg6
F1.0
sg7
F227.0
sg8
F1.0
sg9
F228.0
saa(lp79
V091039
p80
a(dp81
g5
F228.0
sg6
F0.0
sg7
F227.0
sg8
F4.0
sg9
F227.0
saa(lp82
V091044
p83
a(dp84
g5
F228.0
sg6
F1.0
sg7
F227.0
sg8
F1.0
sg9
F228.0
saa(lp85
V091104
p86
a(dp87
g5
F227.5
sg6
F0.5
sg7
F227.0
sg8
F1.0
sg9
F227.5
saa(lp88
V091109
p89
a(dp90
g5
F227.5
sg6
F0.5
sg7
F227.0
sg8
F2.0
sg9
F227.5
saa(lp91
V091114
p92
a(dp93
g5
F227.5
sg6
F0.5
sg7
F227.0
sg8
F2.0
sg9
F227.5
saa(lp94
V091119
p95
a(dp96
g5
F228.0
sg6
F1.0
sg7
F227.5
sg8
F2.0
sg9
F228.0
saa(lp97
V091124
p98
a(dp99
g5
F228.0
sg6
F1.0
sg7
F227.0
sg8
F1.0
sg9
F228.0
saa(lp100
V091129
p101
a(dp102
g5
F228.0
sg6
F1.0
sg7
F227.0
sg8
F1.0
sg9
F228.0
saa(lp103
V091144
p104
a(dp105
g5
F228.0
sg6
F1.0
sg7
F227.0
sg8
F1.0
sg9
F228.0
saa(lp106
V091149
p107
a(dp108
g5
F228.5
sg6
F1.5
sg7
F227.0
sg8
F1.0
sg9
F228.5
saa(lp109
V091154
p110
a(dp111
g5
F228.5
sg6
F1.5
sg7
F227.0
sg8
F1.0
sg9
F228.5
saa(lp112
V091455
p113
a(dp114
g5
F227.5
sg6
F1.0
sg7
F227.0
sg8
F1.0
sg9
F228.0
saa(lp115
V091711
p116
a(dp117
g5
F228.0
sg6
F1.0
sg7
F227.0
sg8
F1.0
sg9
F228.0
saa(lp118
V091716
p119
a(dp120
g5
F228.0
sg6
F1.0
sg7
F227.0
sg8
F2.0
sg9
F228.0
saa(lp121
V091946
p122
a(dp123
g5
F228.0
sg6
F1.0
sg7
F227.0
sg8
F3.0
sg9
F228.0
saa(lp124
V091951
p125
a(dp126
g5
F228.5
sg6
F1.5
sg7
F227.0
sg8
F1.0
sg9
F228.5
saa(lp127
V091957
p128
a(dp129
g5
F228.5
sg6
F1.5
sg7
F227.0
sg8
F1.0
sg9
F228.5
saa(lp130
V092127
p131
a(dp132
g5
F228.0
sg6
F1.0
sg7
F227.5
sg8
F2.0
sg9
F228.0
saa(lp133
V092142
p134
a(dp135
g5
F228.0
sg6
F1.0
sg7
F227.5
sg8
F1.0
sg9
F228.0
saa(lp136
V092202
p137
a(dp138
g5
F228.0
sg6
F1.0
sg7
F227.5
sg8
F1.0
sg9
F228.0
saa(lp139
V092217
p140
a(dp141
g5
F228.5
sg6
F1.5
sg7
F227.5
sg8
F1.0
sg9
F228.5
saa(lp142
V092227
p143
a(dp144
g5
F228.5
sg6
F1.5
sg7
F228.0
sg8
F2.0
sg9
F228.5
saa(lp145
V092232
p146
a(dp147
g5
F229.0
sg6
F2.5
sg7
F228.5
sg8
F4.0
sg9
F229.5
saa(lp148
V092237
p149
a(dp150
g5
F229.5
sg6
F2.5
sg7
F229.0
sg8
F4.0
sg9
F229.5
saa(lp151
V092312
p152
a(dp153
g5
F229.5
sg6
F2.5
sg7
F229.0
sg8
F1.0
sg9
F229.5
saa(lp154
V092317
p155
a(dp156
g5
F229.5
sg6
F2.5
sg7
F229.0
sg8
F3.0
sg9
F229.5
saa(lp157
V092322
p158
a(dp159
g5
F230.0
sg6
F3.0
sg7
F229.0
sg8
F1.0
sg9
F230.0
saa(lp160
V092327
p161
a(dp162
g5
F230.0
sg6
F3.0
sg7
F229.0
sg8
F1.0
sg9
F230.0
saa(lp163
V092352
p164
a(dp165
g5
F230.0
sg6
F2.5
sg7
F229.5
sg8
F1.0
sg9
F229.5
saa(lp166
V092357
p167
a(dp168
g5
F230.0
sg6
F2.0
sg7
F229.0
sg8
F1.0
sg9
F229.0
saa(lp169
V092402
p170
a(dp171
g5
F230.0
sg6
F3.0
sg7
F228.5
sg8
F1.0
sg9
F230.0
saa(lp172
V092428
p173
a(dp174
g5
F230.0
sg6
F3.0
sg7
F229.0
sg8
F1.0
sg9
F230.0
saa(lp175
V092543
p176
a(dp177
g5
F229.0
sg6
F2.5
sg7
F228.5
sg8
F1.0
sg9
F229.5
saa(lp178
V092804
p179
a(dp180
g5
F229.0
sg6
F1.5
sg7
F228.5
sg8
F2.0
sg9
F228.5
saa(lp181
V092854
p182
a(dp183
g5
F228.5
sg6
F1.5
sg7
F228.0
sg8
F2.0
sg9
F228.5
saa(lp184
V092914
p185
a(dp186
g5
F229.0
sg6
F1.5
sg7
F228.5
sg8
F1.0
sg9
F228.5
saa(lp187
V092924
p188
a(dp189
g5
F229.0
sg6
F1.5
sg7
F228.5
sg8
F4.0
sg9
F228.5
saa(lp190
V092929
p191
a(dp192
g5
F229.0
sg6
F1.5
sg7
F228.5
sg8
F1.0
sg9
F228.5
saa(lp193
V092934
p194
a(dp195
g5
F228.5
sg6
F0.0
sg7
F228.0
sg8
F4.0
sg9
F227.0
saa(lp196
V092949
p197
a(dp198
g5
F227.5
sg6
F0.5
sg7
F227.0
sg8
F1.0
sg9
F227.5
saa(lp199
V092954
p200
a(dp201
g5
F227.5
sg6
F0.5
sg7
F227.0
sg8
F1.0
sg9
F227.5
saa(lp202
V092959
p203
a(dp204
g5
F227.5
sg6
F0.5
sg7
F227.0
sg8
F4.0
sg9
F227.5
saa(lp205
V093004
p206
a(dp207
g5
F228.0
sg6
F1.0
sg7
F227.5
sg8
F1.0
sg9
F228.0
saa(lp208
V093009
p209
a(dp210
g5
F228.0
sg6
F1.0
sg7
F227.5
sg8
F1.0
sg9
F228.0
saa(lp211
V093416
p212
a(dp213
g5
F229.0
sg6
F2.0
sg7
F227.5
sg8
F1.0
sg9
F229.0
saa(lp214
V093812
p215
a(dp216
g5
F228.5
sg6
F1.5
sg7
F227.5
sg8
F1.0
sg9
F228.5
saa(lp217
V093847
p218
a(dp219
g5
F228.0
sg6
F1.5
sg7
F227.5
sg8
F1.0
sg9
F228.5
saa(lp220
V093857
p221
a(dp222
g5
F228.5
sg6
F1.5
sg7
F228.0
sg8
F2.0
sg9
F228.5
saa(lp223
V093902
p224
a(dp225
g5
F228.5
sg6
F1.5
sg7
F228.0
sg8
F2.0
sg9
F228.5
saa(lp226
V093927
p227
a(dp228
g5
F229.0
sg6
F2.0
sg7
F228.0
sg8
F1.0
sg9
F229.0
saa(lp229
V094027
p230
a(dp231
g5
F229.0
sg6
F2.0
sg7
F228.0
sg8
F3.0
sg9
F229.0
saa(lp232
V094032
p233
a(dp234
g5
F229.5
sg6
F2.5
sg7
F229.0
sg8
F1.0
sg9
F229.5
saa(lp235
V094037
p236
a(dp237
g5
F229.5
sg6
F2.5
sg7
F229.0
sg8
F10.0
sg9
F229.5
saa(lp238
V094047
p239
a(dp240
g5
F229.5
sg6
F2.5
sg7
F229.0
sg8
F3.0
sg9
F229.5
saa(lp241
V094052
p242
a(dp243
g5
F230.0
sg6
F3.0
sg7
F229.5
sg8
F1.0
sg9
F230.0
saa(lp244
V094057
p245
a(dp246
g5
F230.0
sg6
F3.0
sg7
F229.5
sg8
F1.0
sg9
F230.0
saa(lp247
V094208
p248
a(dp249
g5
F230.0
sg6
F3.0
sg7
F229.5
sg8
F1.0
sg9
F230.0
saa(lp250
V094243
p251
a(dp252
g5
F230.0
sg6
F3.0
sg7
F229.5
sg8
F1.0
sg9
F230.0
saa(lp253
V094248
p254
a(dp255
g5
F230.0
sg6
F3.0
sg7
F229.5
sg8
F1.0
sg9
F230.0
saa(lp256
V094253
p257
a(dp258
g5
F230.0
sg6
F3.0
sg7
F229.5
sg8
F5.0
sg9
F230.0
saa(lp259
V094258
p260
a(dp261
g5
F230.0
sg6
F3.0
sg7
F229.5
sg8
F3.0
sg9
F230.0
saa(lp262
V094303
p263
a(dp264
g5
F230.0
sg6
F3.0
sg7
F229.5
sg8
F3.0
sg9
F230.0
saa(lp265
V094308
p266
a(dp267
g5
F230.0
sg6
F3.0
sg7
F229.5
sg8
F3.0
sg9
F230.0
saa(lp268
V094318
p269
a(dp270
g5
F230.0
sg6
F3.0
sg7
F229.5
sg8
F1.0
sg9
F230.0
saa(lp271
V094454
p272
a(dp273
g5
F230.0
sg6
F3.0
sg7
F229.5
sg8
F1.0
sg9
F230.0
saa(lp274
V094459
p275
a(dp276
g5
F230.0
sg6
F3.0
sg7
F229.5
sg8
F1.0
sg9
F230.0
saa(lp277
V094509
p278
a(dp279
g5
F230.0
sg6
F2.5
sg7
F229.5
sg8
F1.0
sg9
F229.5
saa(lp280
V094719
p281
a(dp282
g5
F230.0
sg6
F3.0
sg7
F229.5
sg8
F1.0
sg9
F230.0
saa(lp283
V094804
p284
a(dp285
g5
F230.0
sg6
F2.5
sg7
F229.5
sg8
F1.0
sg9
F229.5
saa(lp286
V095120
p287
a(dp288
g5
F230.0
sg6
F3.0
sg7
F229.5
sg8
F1.0
sg9
F230.0
saa(lp289
V095145
p290
a(dp291
g5
F230.0
sg6
F3.0
sg7
F229.5
sg8
F1.0
sg9
F230.0
saa(lp292
V095457
p293
a(dp294
g5
F230.0
sg6
F3.0
sg7
F229.5
sg8
F1.0
sg9
F230.0
saa(lp295
V095502
p296
a(dp297
g5
F230.0
sg6
F3.0
sg7
F229.5
sg8
F1.0
sg9
F230.0
saa(lp298
V095547
p299
a(dp300
g5
F230.0
sg6
F3.0
sg7
F229.5
sg8
F1.0
sg9
F230.0
saa(lp301
V095552
p302
a(dp303
g5
F230.0
sg6
F3.0
sg7
F229.5
sg8
F1.0
sg9
F230.0
saa(lp304
V095627
p305
a(dp306
g5
F230.0
sg6
F3.0
sg7
F229.5
sg8
F4.0
sg9
F230.0
saa(lp307
V095632
p308
a(dp309
g5
F230.5
sg6
F3.5
sg7
F230.0
sg8
F2.0
sg9
F230.5
saa(lp310
V095757
p311
a(dp312
g5
F230.5
sg6
F3.5
sg7
F230.0
sg8
F1.0
sg9
F230.5
saa(lp313
V095953
p314
a(dp315
g5
F230.5
sg6
F3.5
sg7
F230.0
sg8
F1.0
sg9
F230.5
saa(lp316
V095958
p317
a(dp318
g5
F230.5
sg6
F3.5
sg7
F230.0
sg8
F1.0
sg9
F230.5
saa(lp319
V100138
p320
a(dp321
g5
F230.5
sg6
F3.5
sg7
F230.0
sg8
F6.0
sg9
F230.5
saa(lp322
V100143
p323
a(dp324
g5
F231.0
sg6
F4.0
sg7
F230.5
sg8
F5.0
sg9
F231.0
saa(lp325
V100153
p326
a(dp327
g5
F231.0
sg6
F4.0
sg7
F230.5
sg8
F1.0
sg9
F231.0
saa(lp328
V100158
p329
a(dp330
g5
F231.0
sg6
F4.0
sg7
F230.5
sg8
F1.0
sg9
F231.0
saa(lp331
V100203
p332
a(dp333
g5
F231.0
sg6
F3.5
sg7
F230.5
sg8
F2.0
sg9
F230.5
saa(lp334
V100208
p335
a(dp336
g5
F231.0
sg6
F4.0
sg7
F230.5
sg8
F1.0
sg9
F231.0
saa(lp337
V100213
p338
a(dp339
g5
F231.0
sg6
F3.5
sg7
F230.5
sg8
F1.0
sg9
F230.5
saa(lp340
V100238
p341
a(dp342
g5
F231.0
sg6
F4.0
sg7
F230.5
sg8
F1.0
sg9
F231.0
saa(lp343
V100253
p344
a(dp345
g5
F231.0
sg6
F4.0
sg7
F230.5
sg8
F10.0
sg9
F231.0
saa(lp346
V100258
p347
a(dp348
g5
F231.0
sg6
F4.0
sg7
F230.5
sg8
F1.0
sg9
F231.0
saa(lp349
V100303
p350
a(dp351
g5
F231.5
sg6
F4.5
sg7
F231.0
sg8
F8.0
sg9
F231.5
saa(lp352
V100308
p353
a(dp354
g5
F232.0
sg6
F5.0
sg7
F231.5
sg8
F10.0
sg9
F232.0
saa(lp355
V100313
p356
a(dp357
g5
F232.0
sg6
F5.5
sg7
F231.5
sg8
F7.0
sg9
F232.5
saa(lp358
V100318
p359
a(dp360
g5
F232.5
sg6
F5.5
sg7
F232.0
sg8
F5.0
sg9
F232.5
saa(lp361
V100324
p362
a(dp363
g5
F233.0
sg6
F6.0
sg7
F232.5
sg8
F4.0
sg9
F233.0
saa(lp364
V100329
p365
a(dp366
g5
F233.0
sg6
F6.0
sg7
F232.5
sg8
F2.0
sg9
F233.0
saa(lp367
V100334
p368
a(dp369
g5
F233.0
sg6
F6.0
sg7
F232.5
sg8
F1.0
sg9
F233.0
saa(lp370
V100339
p371
a(dp372
g5
F233.5
sg6
F6.5
sg7
F233.0
sg8
F2.0
sg9
F233.5
saa(lp373
V100344
p374
a(dp375
g5
F233.5
sg6
F7.0
sg7
F233.0
sg8
F6.0
sg9
F234.0
saa(lp376
V100349
p377
a(dp378
g5
F234.0
sg6
F6.5
sg7
F233.0
sg8
F1.0
sg9
F233.5
saa(lp379
V100354
p380
a(dp381
g5
F233.5
sg6
F6.5
sg7
F233.0
sg8
F1.0
sg9
F233.5
saa(lp382
V100359
p383
a(dp384
g5
F233.5
sg6
F6.5
sg7
F233.0
sg8
F2.0
sg9
F233.5
saa(lp385
V100404
p386
a(dp387
g5
F233.5
sg6
F6.5
sg7
F233.0
sg8
F1.0
sg9
F233.5
saa(lp388
V100409
p389
a(dp390
g5
F233.5
sg6
F6.0
sg7
F233.0
sg8
F5.0
sg9
F233.0
saa(lp391
V100414
p392
a(dp393
g5
F233.5
sg6
F6.0
sg7
F232.5
sg8
F1.0
sg9
F233.0
saa(lp394
V100419
p395
a(dp396
g5
F233.5
sg6
F5.5
sg7
F232.5
sg8
F2.0
sg9
F232.5
saa(lp397
V100424
p398
a(dp399
g5
F233.5
sg6
F5.0
sg7
F232.0
sg8
F1.0
sg9
F232.0
saa(lp400
V100429
p401
a(dp402
g5
F233.5
sg6
F5.0
sg7
F232.0
sg8
F2.0
sg9
F232.0
saa(lp403
V100449
p404
a(dp405
g5
F232.0
sg6
F5.0
sg7
F231.5
sg8
F1.0
sg9
F232.0
saa(lp406
V100454
p407
a(dp408
g5
F232.0
sg6
F5.0
sg7
F231.5
sg8
F1.0
sg9
F232.0
saa(lp409
V100504
p410
a(dp411
g5
F232.0
sg6
F5.0
sg7
F231.5
sg8
F1.0
sg9
F232.0
saa(lp412
V100535
p413
a(dp414
g5
F232.5
sg6
F5.5
sg7
F231.5
sg8
F1.0
sg9
F232.5
saa(lp415
V100545
p416
a(dp417
g5
F232.5
sg6
F4.5
sg7
F231.5
sg8
F1.0
sg9
F231.5
saa(lp418
V100825
p419
a(dp420
g5
F232.0
sg6
F4.5
sg7
F231.0
sg8
F1.0
sg9
F231.5
saa(lp421
V100915
p422
a(dp423
g5
F232.0
sg6
F4.5
sg7
F231.0
sg8
F1.0
sg9
F231.5
saa(lp424
V101241
p425
a(dp426
g5
F232.0
sg6
F5.0
sg7
F231.5
sg8
F4.0
sg9
F232.0
saa(lp427
V101612
p428
a(dp429
g5
F232.0
sg6
F5.0
sg7
F231.5
sg8
F1.0
sg9
F232.0
saa(lp430
V101617
p431
a(dp432
g5
F232.0
sg6
F5.0
sg7
F231.5
sg8
F2.0
sg9
F232.0
saa(lp433
V101622
p434
a(dp435
g5
F232.0
sg6
F5.0
sg7
F231.5
sg8
F1.0
sg9
F232.0
saa(lp436
V101658
p437
a(dp438
g5
F232.0
sg6
F5.0
sg7
F231.5
sg8
F1.0
sg9
F232.0
saa(lp439
V101708
p440
a(dp441
g5
F232.0
sg6
F5.0
sg7
F231.5
sg8
F1.0
sg9
F232.0
saa(lp442
V101818
p443
a(dp444
g5
F232.0
sg6
F4.5
sg7
F231.5
sg8
F1.0
sg9
F231.5
saa(lp445
V101853
p446
a(dp447
g5
F232.0
sg6
F4.5
sg7
F231.5
sg8
F1.0
sg9
F231.5
saa(lp448
V101858
p449
a(dp450
g5
F232.0
sg6
F4.5
sg7
F231.5
sg8
F1.0
sg9
F231.5
saa(lp451
V101908
p452
a(dp453
g5
F232.0
sg6
F4.5
sg7
F231.5
sg8
F1.0
sg9
F231.5
saa(lp454
V101913
p455
a(dp456
g5
F232.0
sg6
F4.5
sg7
F231.5
sg8
F1.0
sg9
F231.5
saa(lp457
V101928
p458
a(dp459
g5
F231.5
sg6
F4.5
sg7
F231.0
sg8
F1.0
sg9
F231.5
saa(lp460
V102018
p461
a(dp462
g5
F232.0
sg6
F5.0
sg7
F231.0
sg8
F1.0
sg9
F232.0
saa(lp463
V102214
p464
a(dp465
g5
F232.0
sg6
F5.0
sg7
F231.0
sg8
F1.0
sg9
F232.0
saa(lp466
V102535
p467
a(dp468
g5
F232.0
sg6
F5.0
sg7
F231.0
sg8
F1.0
sg9
F232.0
saa(lp469
V102951
p470
a(dp471
g5
F231.5
sg6
F4.5
sg7
F231.0
sg8
F1.0
sg9
F231.5
saa(lp472
V103021
p473
a(dp474
g5
F231.5
sg6
F4.0
sg7
F231.0
sg8
F2.0
sg9
F231.0
saa(lp475
V103046
p476
a(dp477
g5
F231.5
sg6
F4.0
sg7
F231.0
sg8
F1.0
sg9
F231.0
saa(lp478
V103051
p479
a(dp480
g5
F231.5
sg6
F4.0
sg7
F231.0
sg8
F1.0
sg9
F231.0
saa(lp481
V103111
p482
a(dp483
g5
F231.5
sg6
F4.0
sg7
F231.0
sg8
F1.0
sg9
F231.0
saa(lp484
V103141
p485
a(dp486
g5
F231.5
sg6
F4.0
sg7
F231.0
sg8
F1.0
sg9
F231.0
saa(lp487
V103332
p488
a(dp489
g5
F231.5
sg6
F4.0
sg7
F231.0
sg8
F5.0
sg9
F231.0
saa(lp490
V103337
p491
a(dp492
g5
F231.5
sg6
F4.0
sg7
F231.0
sg8
F1.0
sg9
F231.0
saa(lp493
V103342
p494
a(dp495
g5
F231.0
sg6
F3.5
sg7
F230.5
sg8
F1.0
sg9
F230.5
saa(lp496
V103407
p497
a(dp498
g5
F231.0
sg6
F4.0
sg7
F230.5
sg8
F1.0
sg9
F231.0
saa(lp499
V103412
p500
a(dp501
g5
F231.0
sg6
F3.5
sg7
F230.5
sg8
F1.0
sg9
F230.5
saa(lp502
V103848
p503
a(dp504
g5
F231.0
sg6
F3.5
sg7
F230.5
sg8
F1.0
sg9
F230.5
saa(lp505
V104149
p506
a(dp507
g5
F231.0
sg6
F3.5
sg7
F230.5
sg8
F2.0
sg9
F230.5
saa(lp508
V104239
p509
a(dp510
g5
F231.0
sg6
F4.0
sg7
F230.5
sg8
F1.0
sg9
F231.0
saa(lp511
V104244
p512
a(dp513
g5
F231.0
sg6
F4.0
sg7
F230.5
sg8
F1.0
sg9
F231.0
saa(lp514
V104249
p515
a(dp516
g5
F231.0
sg6
F4.0
sg7
F230.5
sg8
F1.0
sg9
F231.0
saa(lp517
V104254
p518
a(dp519
g5
F231.0
sg6
F4.0
sg7
F230.5
sg8
F3.0
sg9
F231.0
saa(lp520
V104355
p521
a(dp522
g5
F231.5
sg6
F4.5
sg7
F231.0
sg8
F1.0
sg9
F231.5
saa(lp523
V104601
p524
a(dp525
g5
F231.5
sg6
F4.0
sg7
F231.0
sg8
F2.0
sg9
F231.0
saa(lp526
V104606
p527
a(dp528
g5
F231.5
sg6
F4.5
sg7
F231.0
sg8
F1.0
sg9
F231.5
saa(lp529
V105112
p530
a(dp531
g5
F231.5
sg6
F4.5
sg7
F231.0
sg8
F1.0
sg9
F231.5
saa(lp532
V105237
p533
a(dp534
g5
F231.5
sg6
F4.5
sg7
F231.0
sg8
F1.0
sg9
F231.5
saa(lp535
V105317
p536
a(dp537
g5
F231.5
sg6
F4.5
sg7
F231.0
sg8
F1.0
sg9
F231.5
saa(lp538
V105629
p539
a(dp540
g5
F231.5
sg6
F4.5
sg7
F231.0
sg8
F1.0
sg9
F231.5
saa(lp541
V105934
p542
a(dp543
g5
F231.5
sg6
F4.0
sg7
F231.0
sg8
F1.0
sg9
F231.0
saa(lp544
V105939
p545
a(dp546
g5
F231.5
sg6
F4.0
sg7
F231.0
sg8
F1.0
sg9
F231.0
saa(lp547
V105944
p548
a(dp549
g5
F231.0
sg6
F4.0
sg7
F230.5
sg8
F1.0
sg9
F231.0
saa(lp550
V110035
p551
a(dp552
g5
F231.0
sg6
F3.5
sg7
F230.5
sg8
F1.0
sg9
F230.5
saa(lp553
V110100
p554
a(dp555
g5
F231.0
sg6
F3.0
sg7
F230.0
sg8
F1.0
sg9
F230.0
saa(lp556
V110240
p557
a(dp558
g5
F231.0
sg6
F3.5
sg7
F230.5
sg8
F1.0
sg9
F230.5
saa(lp559
V110325
p560
a(dp561
g5
F231.0
sg6
F4.0
sg7
F230.5
sg8
F1.0
sg9
F231.0
saa(lp562
V111012
p563
a(dp564
g5
F231.0
sg6
F4.0
sg7
F230.5
sg8
F6.0
sg9
F231.0
saa(lp565
V111017
p566
a(dp567
g5
F231.5
sg6
F4.5
sg7
F231.0
sg8
F2.0
sg9
F231.5
saa(lp568
V111022
p569
a(dp570
g5
F231.5
sg6
F4.5
sg7
F231.0
sg8
F1.0
sg9
F231.5
saa(lp571
V111218
p572
a(dp573
g5
F231.5
sg6
F4.5
sg7
F231.0
sg8
F1.0
sg9
F231.5
saa(lp574
V111228
p575
a(dp576
g5
F231.5
sg6
F4.5
sg7
F231.0
sg8
F1.0
sg9
F231.5
saa(lp577
V111419
p578
a(dp579
g5
F231.5
sg6
F4.0
sg7
F231.0
sg8
F2.0
sg9
F231.0
saa(lp580
V112110
p581
a(dp582
g5
F231.0
sg6
F4.0
sg7
F230.5
sg8
F1.0
sg9
F231.0
saa(lp583
V112316
p584
a(dp585
g5
F231.0
sg6
F4.0
sg7
F230.5
sg8
F1.0
sg9
F231.0
saa(lp586
V112918
p587
a(dp588
g5
F231.0
sg6
F4.0
sg7
F230.5
sg8
F1.0
sg9
F231.0
saa(lp589
V112958
p590
a(dp591
g5
F231.0
sg6
F4.0
sg7
F230.5
sg8
F1.0
sg9
F231.0
saa(lp592
V113113
p593
a(dp594
g5
F231.0
sg6
F4.0
sg7
F230.5
sg8
F1.0
sg9
F231.0
saa(lp595
V113304
p596
a(dp597
g5
F231.0
sg6
F4.0
sg7
F230.5
sg8
F1.0
sg9
F231.0
saa(lp598
V113630
p599
a(dp600
g5
F231.0
sg6
F3.5
sg7
F230.5
sg8
F2.0
sg9
F230.5
saa(lp601
V113735
p602
a(dp603
g5
F231.0
sg6
F3.5
sg7
F230.5
sg8
F1.0
sg9
F230.5
saa(lp604
V113755
p605
a(dp606
g5
F231.0
sg6
F3.5
sg7
F230.5
sg8
F1.0
sg9
F230.5
saa(lp607
V113850
p608
a(dp609
g5
F231.0
sg6
F4.0
sg7
F230.5
sg8
F2.0
sg9
F231.0
saa(lp610
V114648
p611
a(dp612
g5
F231.0
sg6
F4.0
sg7
F230.5
sg8
F1.0
sg9
F231.0
saa(lp613
V114708
p614
a(dp615
g5
F231.0
sg6
F4.0
sg7
F230.5
sg8
F1.0
sg9
F231.0
saa(lp616
V114743
p617
a(dp618
g5
F231.0
sg6
F4.0
sg7
F230.5
sg8
F1.0
sg9
F231.0
saa(lp619
V115048
p620
a(dp621
g5
F231.0
sg6
F4.0
sg7
F230.5
sg8
F1.0
sg9
F231.0
saa(lp622
V115209
p623
a(dp624
g5
F231.0
sg6
F3.5
sg7
F230.5
sg8
F5.0
sg9
F230.5
saa(lp625
V115229
p626
a(dp627
g5
F231.0
sg6
F3.5
sg7
F230.5
sg8
F1.0
sg9
F230.5
saa(lp628
V115329
p629
a(dp630
g5
F231.0
sg6
F4.0
sg7
F230.5
sg8
F1.0
sg9
F231.0
saa(lp631
V115339
p632
a(dp633
g5
F231.0
sg6
F4.0
sg7
F230.5
sg8
F1.0
sg9
F231.0
saa(lp634
V115349
p635
a(dp636
g5
F231.0
sg6
F3.5
sg7
F230.5
sg8
F1.0
sg9
F230.5
saa(lp637
V115635
p638
a(dp639
g5
F231.0
sg6
F4.0
sg7
F230.5
sg8
F1.0
sg9
F231.0
saa(lp640
V120342
p641
a(dp642
g5
F231.0
sg6
F4.0
sg7
F230.5
sg8
F1.0
sg9
F231.0
saa(lp643
V120523
p644
a(dp645
g5
F231.0
sg6
F4.0
sg7
F230.5
sg8
F1.0
sg9
F231.0
saa(lp646
V120528
p647
a(dp648
g5
F231.0
sg6
F4.0
sg7
F230.5
sg8
F1.0
sg9
F231.0
saa(lp649
V120959
p650
a(dp651
g5
F231.0
sg6
F3.5
sg7
F230.5
sg8
F2.0
sg9
F230.5
saa(lp652
V121019
p653
a(dp654
g5
F231.0
sg6
F4.0
sg7
F230.5
sg8
F1.0
sg9
F231.0
saa(lp655
V121024
p656
a(dp657
g5
F231.0
sg6
F3.5
sg7
F230.5
sg8
F1.0
sg9
F230.5
saa(lp658
V121044
p659
a(dp660
g5
F231.0
sg6
F4.0
sg7
F230.5
sg8
F1.0
sg9
F231.0
saa(lp661
V121340
p662
a(dp663
g5
F231.0
sg6
F4.0
sg7
F230.5
sg8
F1.0
sg9
F231.0
saa(lp664
V121400
p665
a(dp666
g5
F231.0
sg6
F4.0
sg7
F230.5
sg8
F1.0
sg9
F231.0
saa(lp667
V121405
p668
a(dp669
g5
F231.0
sg6
F4.0
sg7
F230.5
sg8
F1.0
sg9
F231.0
saa(lp670
V121410
p671
a(dp672
g5
F231.0
sg6
F4.0
sg7
F230.5
sg8
F1.0
sg9
F231.0
saa(lp673
V121415
p674
a(dp675
g5
F231.0
sg6
F4.0
sg7
F230.5
sg8
F1.0
sg9
F231.0
saa(lp676
V121706
p677
a(dp678
g5
F231.0
sg6
F3.5
sg7
F230.5
sg8
F2.0
sg9
F230.5
saa(lp679
V122307
p680
a(dp681
g5
F231.0
sg6
F4.0
sg7
F230.5
sg8
F1.0
sg9
F231.0
saa(lp682
V122508
p683
a(dp684
g5
F231.0
sg6
F4.0
sg7
F230.5
sg8
F1.0
sg9
F231.0
saa(lp685
V122744
p686
a(dp687
g5
F231.0
sg6
F4.0
sg7
F230.5
sg8
F1.0
sg9
F231.0
saa(lp688
V123200
p689
a(dp690
g5
F231.0
sg6
F4.0
sg7
F230.5
sg8
F1.0
sg9
F231.0
saa(lp691
V123205
p692
a(dp693
g5
F231.0
sg6
F4.0
sg7
F230.5
sg8
F1.0
sg9
F231.0
saa(lp694
V123300
p695
a(dp696
g5
F231.0
sg6
F4.0
sg7
F230.5
sg8
F2.0
sg9
F231.0
saa(lp697
V123436
p698
a(dp699
g5
F231.0
sg6
F3.5
sg7
F230.5
sg8
F1.0
sg9
F230.5
saa(lp700
V123501
p701
a(dp702
g5
F231.0
sg6
F3.5
sg7
F230.5
sg8
F1.0
sg9
F230.5
saa(lp703
V123621
p704
a(dp705
g5
F231.0
sg6
F4.0
sg7
F230.5
sg8
F6.0
sg9
F231.0
saa(lp706
V123626
p707
a(dp708
g5
F231.5
sg6
F4.5
sg7
F230.5
sg8
F1.0
sg9
F231.5
saa(lp709
V123631
p710
a(dp711
g5
F231.5
sg6
F4.5
sg7
F230.5
sg8
F1.0
sg9
F231.5
saa(lp712
V123706
p713
a(dp714
g5
F231.5
sg6
F4.5
sg7
F230.5
sg8
F11.0
sg9
F231.5
saa(lp715
V123711
p716
a(dp717
g5
F232.0
sg6
F5.0
sg7
F230.5
sg8
F3.0
sg9
F232.0
saa(lp718
V123716
p719
a(dp720
g5
F232.0
sg6
F5.0
sg7
F230.5
sg8
F1.0
sg9
F232.0
saa(lp721
V123722
p722
a(dp723
g5
F232.0
sg6
F5.0
sg7
F230.5
sg8
F30.0
sg9
F232.0
saa(lp724
V123727
p725
a(dp726
g5
F232.0
sg6
F5.5
sg7
F230.5
sg8
F7.0
sg9
F232.5
saa(lp727
V123732
p728
a(dp729
g5
F232.5
sg6
F5.5
sg7
F231.5
sg8
F1.0
sg9
F232.5
saa(lp730
V123817
p731
a(dp732
g5
F232.5
sg6
F5.5
sg7
F231.5
sg8
F10.0
sg9
F232.5
saa(lp733
V123822
p734
a(dp735
g5
F232.5
sg6
F6.0
sg7
F231.5
sg8
F27.0
sg9
F233.0
saa(lp736
V123827
p737
a(dp738
g5
F233.0
sg6
F6.0
sg7
F231.5
sg8
F3.0
sg9
F233.0
saa(lp739
V123832
p740
a(dp741
g5
F233.0
sg6
F5.5
sg7
F231.5
sg8
F1.0
sg9
F232.5
saa(lp742
V123837
p743
a(dp744
g5
F232.5
sg6
F5.5
sg7
F231.5
sg8
F1.0
sg9
F232.5
saa(lp745
V124047
p746
a(dp747
g5
F232.0
sg6
F5.0
sg7
F230.5
sg8
F1.0
sg9
F232.0
saa(lp748
V124052
p749
a(dp750
g5
F232.0
sg6
F4.5
sg7
F230.5
sg8
F1.0
sg9
F231.5
saa(lp751
V124734
p752
a(dp753
g5
F231.5
sg6
F4.0
sg7
F231.0
sg8
F1.0
sg9
F231.0
saa(lp754
V124739
p755
a(dp756
g5
F231.5
sg6
F4.5
sg7
F230.5
sg8
F2.0
sg9
F231.5
saa(lp757
V124744
p758
a(dp759
g5
F231.5
sg6
F4.5
sg7
F230.5
sg8
F2.0
sg9
F231.5
saa(lp760
V124915
p761
a(dp762
g5
F232.0
sg6
F4.5
sg7
F231.5
sg8
F1.0
sg9
F231.5
saa(lp763
V124920
p764
a(dp765
g5
F232.0
sg6
F4.5
sg7
F231.5
sg8
F1.0
sg9
F231.5
saa(lp766
V124940
p767
a(dp768
g5
F232.0
sg6
F5.0
sg7
F230.5
sg8
F1.0
sg9
F232.0
saa(lp769
V125236
p770
a(dp771
g5
F232.0
sg6
F3.5
sg7
F230.5
sg8
F1.0
sg9
F230.5
saa(lp772
V125326
p773
a(dp774
g5
F232.0
sg6
F5.0
sg7
F230.5
sg8
F1.0
sg9
F232.0
saa(lp775
V125812
p776
a(dp777
g5
F232.0
sg6
F5.0
sg7
F230.5
sg8
F3.0
sg9
F232.0
saa(lp778
V125832
p779
a(dp780
g5
F232.0
sg6
F5.0
sg7
F231.0
sg8
F1.0
sg9
F232.0
saa(lp781
V130048
p782
a(dp783
g5
F232.0
sg6
F5.0
sg7
F231.0
sg8
F1.0
sg9
F232.0
saa(lp784
V130319
p785
a(dp786
g5
F231.5
sg6
F4.5
sg7
F231.0
sg8
F3.0
sg9
F231.5
saa(lp787
V130329
p788
a(dp789
g5
F232.0
sg6
F5.0
sg7
F231.0
sg8
F1.0
sg9
F232.0
saa(lp790
V130344
p791
a(dp792
g5
F232.0
sg6
F4.0
sg7
F231.0
sg8
F1.0
sg9
F231.0
saa(lp793
V130635
p794
a(dp795
g5
F231.5
sg6
F4.0
sg7
F230.5
sg8
F1.0
sg9
F231.0
saa(lp796
V131005
p797
a(dp798
g5
F231.5
sg6
F4.5
sg7
F231.0
sg8
F2.0
sg9
F231.5
saa(lp799
V131010
p800
a(dp801
g5
F231.5
sg6
F4.5
sg7
F231.0
sg8
F1.0
sg9
F231.5
saa(lp802
V131151
p803
a(dp804
g5
F231.5
sg6
F4.5
sg7
F231.0
sg8
F1.0
sg9
F231.5
saa(lp805
V131201
p806
a(dp807
g5
F232.0
sg6
F4.5
sg7
F231.5
sg8
F2.0
sg9
F231.5
saa(lp808
V131221
p809
a(dp810
g5
F232.0
sg6
F5.0
sg7
F231.0
sg8
F1.0
sg9
F232.0
saa(lp811
V131346
p812
a(dp813
g5
F232.0
sg6
F4.5
sg7
F231.5
sg8
F1.0
sg9
F231.5
saa(lp814
V131356
p815
a(dp816
g5
F232.0
sg6
F5.0
sg7
F231.0
sg8
F1.0
sg9
F232.0
saa(lp817
V131437
p818
a(dp819
g5
F232.0
sg6
F4.0
sg7
F231.0
sg8
F1.0
sg9
F231.0
saa(lp820
V131602
p821
a(dp822
g5
F232.0
sg6
F4.0
sg7
F231.5
sg8
F1.0
sg9
F231.0
saa(lp823
V131657
p824
a(dp825
g5
F232.0
sg6
F4.0
sg7
F231.0
sg8
F1.0
sg9
F231.0
saa(lp826
V132204
p827
a(dp828
g5
F231.0
sg6
F3.5
sg7
F230.5
sg8
F2.0
sg9
F230.5
saa(lp829
V132339
p830
a(dp831
g5
F231.0
sg6
F4.0
sg7
F230.5
sg8
F1.0
sg9
F231.0
saa(lp832
V132354
p833
a(dp834
g5
F231.5
sg6
F3.5
sg7
F230.5
sg8
F2.0
sg9
F230.5
saa(lp835
V132359
p836
a(dp837
g5
F231.5
sg6
F4.5
sg7
F230.5
sg8
F1.0
sg9
F231.5
saa(lp838
V132404
p839
a(dp840
g5
F231.5
sg6
F4.5
sg7
F230.5
sg8
F1.0
sg9
F231.5
saa(lp841
V132409
p842
a(dp843
g5
F231.5
sg6
F5.0
sg7
F230.5
sg8
F1.0
sg9
F232.0
saa(lp844
V132414
p845
a(dp846
g5
F232.0
sg6
F3.5
sg7
F230.5
sg8
F1.0
sg9
F230.5
saa(lp847
V132420
p848
a(dp849
g5
F231.0
sg6
F4.0
sg7
F230.5
sg8
F1.0
sg9
F231.0
saa(lp850
V133000
p851
a(dp852
g5
F231.5
sg6
F4.0
sg7
F231.0
sg8
F126.0
sg9
F231.0
saatp853
Rp854
.