ccollections
OrderedDict
p1
((lp2
(lp3
V090049
p4
a(dp5
S'sell'
p6
F62.299999999999997
sS'diff'
p7
F0
sS'buy'
p8
F62.200000000000003
sS'count'
p9
F1
sS'deal'
p10
F62.299999999999997
saa(lp11
V090124
p12
a(dp13
g6
F62.299999999999997
sg7
F0
sg8
F62.200000000000003
sg9
F2
sg10
F62.299999999999997
saa(lp14
V090134
p15
a(dp16
g6
F62.299999999999997
sg7
F0
sg8
F62.200000000000003
sg9
F1
sg10
F62.299999999999997
saa(lp17
V090159
p18
a(dp19
g6
F62.299999999999997
sg7
F0
sg8
F62.200000000000003
sg9
F1
sg10
F62.299999999999997
saa(lp20
V090204
p21
a(dp22
g6
F62.299999999999997
sg7
F-0.10000000000000001
sg8
F62.200000000000003
sg9
F1
sg10
F62.200000000000003
saa(lp23
V090220
p24
a(dp25
g6
F62.299999999999997
sg7
F-0.10000000000000001
sg8
F62.200000000000003
sg9
F13
sg10
F62.200000000000003
saa(lp26
V090225
p27
a(dp28
g6
F62.299999999999997
sg7
F-0.10000000000000001
sg8
F62.200000000000003
sg9
F2
sg10
F62.200000000000003
saa(lp29
V090230
p30
a(dp31
g6
F62.299999999999997
sg7
F-0.10000000000000001
sg8
F62.200000000000003
sg9
F7
sg10
F62.200000000000003
saa(lp32
V090235
p33
a(dp34
g6
F62.200000000000003
sg7
F-0.20000000000000001
sg8
F62.100000000000001
sg9
F9
sg10
F62.100000000000001
saa(lp35
V090300
p36
a(dp37
g6
F62.200000000000003
sg7
F-0.20000000000000001
sg8
F62.100000000000001
sg9
F2
sg10
F62.100000000000001
saa(lp38
V090310
p39
a(dp40
g6
F62.200000000000003
sg7
F-0.20000000000000001
sg8
F62.100000000000001
sg9
F11
sg10
F62.100000000000001
saa(lp41
V090315
p42
a(dp43
g6
F62.200000000000003
sg7
F-0.29999999999999999
sg8
F62.100000000000001
sg9
F3
sg10
F62
saa(lp44
V090320
p45
a(dp46
g6
F62.200000000000003
sg7
F-0.29999999999999999
sg8
F62
sg9
F4
sg10
F62
saa(lp47
V090325
p48
a(dp49
g6
F62.200000000000003
sg7
F-0.29999999999999999
sg8
F62
sg9
F11
sg10
F62
saa(lp50
V090330
p51
a(dp52
g6
F62.100000000000001
sg7
F-0.29999999999999999
sg8
F62
sg9
F5
sg10
F62
saa(lp53
V090335
p54
a(dp55
g6
F62.100000000000001
sg7
F-0.29999999999999999
sg8
F62
sg9
F1
sg10
F62
saa(lp56
V090340
p57
a(dp58
g6
F62.100000000000001
sg7
F-0.29999999999999999
sg8
F62
sg9
F20
sg10
F62
saa(lp59
V090345
p60
a(dp61
g6
F62
sg7
F-0.40000000000000002
sg8
F61.899999999999999
sg9
F4
sg10
F61.899999999999999
saa(lp62
V090350
p63
a(dp64
g6
F62
sg7
F-0.40000000000000002
sg8
F61.899999999999999
sg9
F1
sg10
F61.899999999999999
saa(lp65
V090355
p66
a(dp67
g6
F62
sg7
F-0.29999999999999999
sg8
F61.899999999999999
sg9
F1
sg10
F62
saa(lp68
V090400
p69
a(dp70
g6
F62
sg7
F-0.40000000000000002
sg8
F61.899999999999999
sg9
F2
sg10
F61.899999999999999
saa(lp71
V090405
p72
a(dp73
g6
F62
sg7
F-0.40000000000000002
sg8
F61.899999999999999
sg9
F2
sg10
F61.899999999999999
saa(lp74
V090420
p75
a(dp76
g6
F61.899999999999999
sg7
F-0.40000000000000002
sg8
F61.799999999999997
sg9
F1
sg10
F61.899999999999999
saa(lp77
V090425
p78
a(dp79
g6
F61.899999999999999
sg7
F-0.40000000000000002
sg8
F61.799999999999997
sg9
F6
sg10
F61.899999999999999
saa(lp80
V090430
p81
a(dp82
g6
F61.899999999999999
sg7
F-0.40000000000000002
sg8
F61.799999999999997
sg9
F9
sg10
F61.899999999999999
saa(lp83
V090435
p84
a(dp85
g6
F62
sg7
F-0.29999999999999999
sg8
F61.899999999999999
sg9
F1
sg10
F62
saa(lp86
V090440
p87
a(dp88
g6
F62
sg7
F-0.29999999999999999
sg8
F61.899999999999999
sg9
F1
sg10
F62
saa(lp89
V090450
p90
a(dp91
g6
F62
sg7
F-0.29999999999999999
sg8
F61.899999999999999
sg9
F10
sg10
F62
saa(lp92
V090500
p93
a(dp94
g6
F62
sg7
F-0.29999999999999999
sg8
F61.899999999999999
sg9
F1
sg10
F62
saa(lp95
V090505
p96
a(dp97
g6
F62
sg7
F-0.29999999999999999
sg8
F61.899999999999999
sg9
F1
sg10
F62
saa(lp98
V090510
p99
a(dp100
g6
F62
sg7
F-0.29999999999999999
sg8
F61.899999999999999
sg9
F2
sg10
F62
saa(lp101
V090515
p102
a(dp103
g6
F62
sg7
F-0.29999999999999999
sg8
F61.899999999999999
sg9
F2
sg10
F62
saa(lp104
V090521
p105
a(dp106
g6
F62
sg7
F-0.29999999999999999
sg8
F61.899999999999999
sg9
F2
sg10
F62
saa(lp107
V090526
p108
a(dp109
g6
F62
sg7
F-0.29999999999999999
sg8
F61.899999999999999
sg9
F6
sg10
F62
saa(lp110
V090531
p111
a(dp112
g6
F62.100000000000001
sg7
F-0.29999999999999999
sg8
F62
sg9
F2
sg10
F62
saa(lp113
V090541
p114
a(dp115
g6
F62.100000000000001
sg7
F-0.29999999999999999
sg8
F62
sg9
F12
sg10
F62
saa(lp116
V090601
p117
a(dp118
g6
F62.100000000000001
sg7
F-0.29999999999999999
sg8
F62
sg9
F2
sg10
F62
saa(lp119
V090611
p120
a(dp121
g6
F62.100000000000001
sg7
F-0.29999999999999999
sg8
F62
sg9
F5
sg10
F62
saa(lp122
V090621
p123
a(dp124
g6
F62.100000000000001
sg7
F-0.29999999999999999
sg8
F62
sg9
F2
sg10
F62
saa(lp125
V090646
p126
a(dp127
g6
F62.100000000000001
sg7
F-0.40000000000000002
sg8
F61.899999999999999
sg9
F4
sg10
F61.899999999999999
saa(lp128
V090706
p129
a(dp130
g6
F62
sg7
F-0.40000000000000002
sg8
F61.899999999999999
sg9
F2
sg10
F61.899999999999999
saa(lp131
V090711
p132
a(dp133
g6
F62
sg7
F-0.40000000000000002
sg8
F61.899999999999999
sg9
F1
sg10
F61.899999999999999
saa(lp134
V090721
p135
a(dp136
g6
F62
sg7
F-0.29999999999999999
sg8
F61.899999999999999
sg9
F3
sg10
F62
saa(lp137
V090736
p138
a(dp139
g6
F62
sg7
F-0.29999999999999999
sg8
F61.899999999999999
sg9
F5
sg10
F62
saa(lp140
V090741
p141
a(dp142
g6
F62.100000000000001
sg7
F-0.29999999999999999
sg8
F62
sg9
F1
sg10
F62
saa(lp143
V090801
p144
a(dp145
g6
F62.100000000000001
sg7
F-0.29999999999999999
sg8
F61.899999999999999
sg9
F1
sg10
F62
saa(lp146
V090811
p147
a(dp148
g6
F62.100000000000001
sg7
F-0.29999999999999999
sg8
F62
sg9
F5
sg10
F62
saa(lp149
V090816
p150
a(dp151
g6
F62.100000000000001
sg7
F-0.29999999999999999
sg8
F62
sg9
F1
sg10
F62
saa(lp152
V090836
p153
a(dp154
g6
F62.100000000000001
sg7
F-0.20000000000000001
sg8
F62
sg9
F1
sg10
F62.100000000000001
saa(lp155
V090846
p156
a(dp157
g6
F62.100000000000001
sg7
F-0.20000000000000001
sg8
F62
sg9
F3
sg10
F62.100000000000001
saa(lp158
V090851
p159
a(dp160
g6
F62.100000000000001
sg7
F-0.20000000000000001
sg8
F62
sg9
F1
sg10
F62.100000000000001
saa(lp161
V090906
p162
a(dp163
g6
F62.100000000000001
sg7
F-0.20000000000000001
sg8
F62
sg9
F3
sg10
F62.100000000000001
saa(lp164
V090927
p165
a(dp166
g6
F62.100000000000001
sg7
F-0.29999999999999999
sg8
F62
sg9
F2
sg10
F62
saa(lp167
V090937
p168
a(dp169
g6
F62.100000000000001
sg7
F-0.20000000000000001
sg8
F62
sg9
F1
sg10
F62.100000000000001
saa(lp170
V090947
p171
a(dp172
g6
F62.100000000000001
sg7
F-0.20000000000000001
sg8
F62
sg9
F3
sg10
F62.100000000000001
saa(lp173
V090957
p174
a(dp175
g6
F62.100000000000001
sg7
F-0.20000000000000001
sg8
F62
sg9
F3
sg10
F62.100000000000001
saa(lp176
V091002
p177
a(dp178
g6
F62.100000000000001
sg7
F-0.20000000000000001
sg8
F62
sg9
F1
sg10
F62.100000000000001
saa(lp179
V091007
p180
a(dp181
g6
F62.100000000000001
sg7
F-0.20000000000000001
sg8
F62
sg9
F2
sg10
F62.100000000000001
saa(lp182
V091012
p183
a(dp184
g6
F62.100000000000001
sg7
F-0.20000000000000001
sg8
F62
sg9
F1
sg10
F62.100000000000001
saa(lp185
V091017
p186
a(dp187
g6
F62.100000000000001
sg7
F-0.20000000000000001
sg8
F62
sg9
F3
sg10
F62.100000000000001
saa(lp188
V091022
p189
a(dp190
g6
F62.100000000000001
sg7
F-0.20000000000000001
sg8
F62
sg9
F1
sg10
F62.100000000000001
saa(lp191
V091027
p192
a(dp193
g6
F62.100000000000001
sg7
F-0.20000000000000001
sg8
F62
sg9
F2
sg10
F62.100000000000001
saa(lp194
V091037
p195
a(dp196
g6
F62.200000000000003
sg7
F-0.20000000000000001
sg8
F62.100000000000001
sg9
F3
sg10
F62.100000000000001
saa(lp197
V091047
p198
a(dp199
g6
F62.100000000000001
sg7
F-0.20000000000000001
sg8
F62
sg9
F1
sg10
F62.100000000000001
saa(lp200
V091102
p201
a(dp202
g6
F62.100000000000001
sg7
F-0.20000000000000001
sg8
F62
sg9
F1
sg10
F62.100000000000001
saa(lp203
V091112
p204
a(dp205
g6
F62.100000000000001
sg7
F-0.20000000000000001
sg8
F62
sg9
F1
sg10
F62.100000000000001
saa(lp206
V091152
p207
a(dp208
g6
F62.100000000000001
sg7
F-0.29999999999999999
sg8
F62
sg9
F1
sg10
F62
saa(lp209
V091212
p210
a(dp211
g6
F62.100000000000001
sg7
F-0.20000000000000001
sg8
F62
sg9
F1
sg10
F62.100000000000001
saa(lp212
V091217
p213
a(dp214
g6
F62.100000000000001
sg7
F-0.20000000000000001
sg8
F62
sg9
F1
sg10
F62.100000000000001
saa(lp215
V091222
p216
a(dp217
g6
F62.100000000000001
sg7
F-0.20000000000000001
sg8
F62
sg9
F1
sg10
F62.100000000000001
saa(lp218
V091318
p219
a(dp220
g6
F62.200000000000003
sg7
F-0.29999999999999999
sg8
F62
sg9
F1
sg10
F62
saa(lp221
V091333
p222
a(dp223
g6
F62.100000000000001
sg7
F-0.29999999999999999
sg8
F62
sg9
F10
sg10
F62
saa(lp224
V091338
p225
a(dp226
g6
F62.100000000000001
sg7
F-0.29999999999999999
sg8
F62
sg9
F8
sg10
F62
saa(lp227
V091343
p228
a(dp229
g6
F62.100000000000001
sg7
F-0.29999999999999999
sg8
F62
sg9
F4
sg10
F62
saa(lp230
V091358
p231
a(dp232
g6
F62.100000000000001
sg7
F-0.29999999999999999
sg8
F61.899999999999999
sg9
F4
sg10
F62
saa(lp233
V091529
p234
a(dp235
g6
F62
sg7
F-0.29999999999999999
sg8
F61.899999999999999
sg9
F1
sg10
F62
saa(lp236
V091534
p237
a(dp238
g6
F62
sg7
F-0.40000000000000002
sg8
F61.899999999999999
sg9
F1
sg10
F61.899999999999999
saa(lp239
V091539
p240
a(dp241
g6
F62
sg7
F-0.29999999999999999
sg8
F61.899999999999999
sg9
F2
sg10
F62
saa(lp242
V091559
p243
a(dp244
g6
F62
sg7
F-0.29999999999999999
sg8
F61.899999999999999
sg9
F3
sg10
F62
saa(lp245
V091609
p246
a(dp247
g6
F62
sg7
F-0.29999999999999999
sg8
F61.899999999999999
sg9
F1
sg10
F62
saa(lp248
V091624
p249
a(dp250
g6
F62
sg7
F-0.40000000000000002
sg8
F61.899999999999999
sg9
F5
sg10
F61.899999999999999
saa(lp251
V091654
p252
a(dp253
g6
F62
sg7
F-0.40000000000000002
sg8
F61.899999999999999
sg9
F1
sg10
F61.899999999999999
saa(lp254
V091739
p255
a(dp256
g6
F62
sg7
F-0.40000000000000002
sg8
F61.899999999999999
sg9
F1
sg10
F61.899999999999999
saa(lp257
V091814
p258
a(dp259
g6
F62
sg7
F-0.40000000000000002
sg8
F61.899999999999999
sg9
F1
sg10
F61.899999999999999
saa(lp260
V091844
p261
a(dp262
g6
F62
sg7
F-0.40000000000000002
sg8
F61.899999999999999
sg9
F5
sg10
F61.899999999999999
saa(lp263
V091909
p264
a(dp265
g6
F62
sg7
F-0.40000000000000002
sg8
F61.899999999999999
sg9
F1
sg10
F61.899999999999999
saa(lp266
V091914
p267
a(dp268
g6
F62
sg7
F-0.40000000000000002
sg8
F61.899999999999999
sg9
F3
sg10
F61.899999999999999
saa(lp269
V091919
p270
a(dp271
g6
F62
sg7
F-0.40000000000000002
sg8
F61.899999999999999
sg9
F3
sg10
F61.899999999999999
saa(lp272
V091929
p273
a(dp274
g6
F62
sg7
F-0.40000000000000002
sg8
F61.899999999999999
sg9
F4
sg10
F61.899999999999999
saa(lp275
V091934
p276
a(dp277
g6
F62
sg7
F-0.5
sg8
F61.899999999999999
sg9
F3
sg10
F61.799999999999997
saa(lp278
V091939
p279
a(dp280
g6
F61.899999999999999
sg7
F-0.5
sg8
F61.799999999999997
sg9
F1
sg10
F61.799999999999997
saa(lp281
V091949
p282
a(dp283
g6
F61.899999999999999
sg7
F-0.5
sg8
F61.799999999999997
sg9
F1
sg10
F61.799999999999997
saa(lp284
V091954
p285
a(dp286
g6
F61.899999999999999
sg7
F-0.5
sg8
F61.799999999999997
sg9
F2
sg10
F61.799999999999997
saa(lp287
V092004
p288
a(dp289
g6
F61.899999999999999
sg7
F-0.5
sg8
F61.799999999999997
sg9
F13
sg10
F61.799999999999997
saa(lp290
V092009
p291
a(dp292
g6
F61.799999999999997
sg7
F-0.40000000000000002
sg8
F61.700000000000003
sg9
F5
sg10
F61.899999999999999
saa(lp293
V092020
p294
a(dp295
g6
F61.899999999999999
sg7
F-0.59999999999999998
sg8
F61.700000000000003
sg9
F3
sg10
F61.700000000000003
saa(lp296
V092040
p297
a(dp298
g6
F61.899999999999999
sg7
F-0.5
sg8
F61.799999999999997
sg9
F3
sg10
F61.799999999999997
saa(lp299
V092045
p300
a(dp301
g6
F61.899999999999999
sg7
F-0.5
sg8
F61.799999999999997
sg9
F1
sg10
F61.799999999999997
saa(lp302
V092100
p303
a(dp304
g6
F61.799999999999997
sg7
F-0.59999999999999998
sg8
F61.700000000000003
sg9
F1
sg10
F61.700000000000003
saa(lp305
V092110
p306
a(dp307
g6
F61.799999999999997
sg7
F-0.5
sg8
F61.700000000000003
sg9
F1
sg10
F61.799999999999997
saa(lp308
V092125
p309
a(dp310
g6
F61.799999999999997
sg7
F-0.59999999999999998
sg8
F61.700000000000003
sg9
F10
sg10
F61.700000000000003
saa(lp311
V092135
p312
a(dp313
g6
F61.799999999999997
sg7
F-0.59999999999999998
sg8
F61.700000000000003
sg9
F1
sg10
F61.700000000000003
saa(lp314
V092140
p315
a(dp316
g6
F61.799999999999997
sg7
F-0.59999999999999998
sg8
F61.700000000000003
sg9
F2
sg10
F61.700000000000003
saa(lp317
V092155
p318
a(dp319
g6
F61.799999999999997
sg7
F-0.69999999999999996
sg8
F61.700000000000003
sg9
F10
sg10
F61.600000000000001
saa(lp320
V092200
p321
a(dp322
g6
F61.799999999999997
sg7
F-0.5
sg8
F61.600000000000001
sg9
F1
sg10
F61.799999999999997
saa(lp323
V092220
p324
a(dp325
g6
F61.799999999999997
sg7
F-0.5
sg8
F61.700000000000003
sg9
F3
sg10
F61.799999999999997
saa(lp326
V092250
p327
a(dp328
g6
F61.799999999999997
sg7
F-0.5
sg8
F61.700000000000003
sg9
F2
sg10
F61.799999999999997
saa(lp329
V092300
p330
a(dp331
g6
F61.799999999999997
sg7
F-0.5
sg8
F61.700000000000003
sg9
F10
sg10
F61.799999999999997
saa(lp332
V092305
p333
a(dp334
g6
F61.799999999999997
sg7
F-0.5
sg8
F61.700000000000003
sg9
F4
sg10
F61.799999999999997
saa(lp335
V092310
p336
a(dp337
g6
F61.799999999999997
sg7
F-0.59999999999999998
sg8
F61.700000000000003
sg9
F6
sg10
F61.700000000000003
saa(lp338
V092315
p339
a(dp340
g6
F61.799999999999997
sg7
F-0.5
sg8
F61.700000000000003
sg9
F2
sg10
F61.799999999999997
saa(lp341
V092320
p342
a(dp343
g6
F61.799999999999997
sg7
F-0.5
sg8
F61.700000000000003
sg9
F6
sg10
F61.799999999999997
saa(lp344
V092330
p345
a(dp346
g6
F61.899999999999999
sg7
F-0.5
sg8
F61.799999999999997
sg9
F1
sg10
F61.799999999999997
saa(lp347
V092406
p348
a(dp349
g6
F61.899999999999999
sg7
F-0.40000000000000002
sg8
F61.799999999999997
sg9
F1
sg10
F61.899999999999999
saa(lp350
V092416
p351
a(dp352
g6
F61.899999999999999
sg7
F-0.40000000000000002
sg8
F61.799999999999997
sg9
F9
sg10
F61.899999999999999
saa(lp353
V092426
p354
a(dp355
g6
F62
sg7
F-0.29999999999999999
sg8
F61.899999999999999
sg9
F1
sg10
F62
saa(lp356
V092446
p357
a(dp358
g6
F62
sg7
F-0.29999999999999999
sg8
F61.899999999999999
sg9
F1
sg10
F62
saa(lp359
V092451
p360
a(dp361
g6
F62
sg7
F-0.40000000000000002
sg8
F61.899999999999999
sg9
F4
sg10
F61.899999999999999
saa(lp362
V092456
p363
a(dp364
g6
F61.899999999999999
sg7
F-0.40000000000000002
sg8
F61.799999999999997
sg9
F2
sg10
F61.899999999999999
saa(lp365
V092501
p366
a(dp367
g6
F61.899999999999999
sg7
F-0.40000000000000002
sg8
F61.799999999999997
sg9
F1
sg10
F61.899999999999999
saa(lp368
V092516
p369
a(dp370
g6
F61.899999999999999
sg7
F-0.40000000000000002
sg8
F61.799999999999997
sg9
F1
sg10
F61.899999999999999
saa(lp371
V092521
p372
a(dp373
g6
F61.899999999999999
sg7
F-0.5
sg8
F61.799999999999997
sg9
F2
sg10
F61.799999999999997
saa(lp374
V092537
p375
a(dp376
g6
F61.899999999999999
sg7
F-0.59999999999999998
sg8
F61.799999999999997
sg9
F20
sg10
F61.700000000000003
saa(lp377
V092542
p378
a(dp379
g6
F61.799999999999997
sg7
F-0.59999999999999998
sg8
F61.700000000000003
sg9
F12
sg10
F61.700000000000003
saa(lp380
V092617
p381
a(dp382
g6
F61.799999999999997
sg7
F-0.59999999999999998
sg8
F61.700000000000003
sg9
F2
sg10
F61.700000000000003
saa(lp383
V092627
p384
a(dp385
g6
F61.799999999999997
sg7
F-0.59999999999999998
sg8
F61.700000000000003
sg9
F16
sg10
F61.700000000000003
saa(lp386
V092642
p387
a(dp388
g6
F61.700000000000003
sg7
F-0.59999999999999998
sg8
F61.600000000000001
sg9
F1
sg10
F61.700000000000003
saa(lp389
V092647
p390
a(dp391
g6
F61.700000000000003
sg7
F-0.69999999999999996
sg8
F61.600000000000001
sg9
F20
sg10
F61.600000000000001
saa(lp392
V092652
p393
a(dp394
g6
F61.700000000000003
sg7
F-0.59999999999999998
sg8
F61.600000000000001
sg9
F6
sg10
F61.700000000000003
saa(lp395
V092657
p396
a(dp397
g6
F61.700000000000003
sg7
F-0.59999999999999998
sg8
F61.600000000000001
sg9
F1
sg10
F61.700000000000003
saa(lp398
V092702
p399
a(dp400
g6
F61.700000000000003
sg7
F-0.59999999999999998
sg8
F61.600000000000001
sg9
F3
sg10
F61.700000000000003
saa(lp401
V092707
p402
a(dp403
g6
F61.700000000000003
sg7
F-0.59999999999999998
sg8
F61.600000000000001
sg9
F1
sg10
F61.700000000000003
saa(lp404
V092712
p405
a(dp406
g6
F61.700000000000003
sg7
F-0.69999999999999996
sg8
F61.600000000000001
sg9
F20
sg10
F61.600000000000001
saa(lp407
V092717
p408
a(dp409
g6
F61.700000000000003
sg7
F-0.59999999999999998
sg8
F61.600000000000001
sg9
F2
sg10
F61.700000000000003
saa(lp410
V092727
p411
a(dp412
g6
F61.700000000000003
sg7
F-0.59999999999999998
sg8
F61.600000000000001
sg9
F1
sg10
F61.700000000000003
saa(lp413
V092737
p414
a(dp415
g6
F61.700000000000003
sg7
F-0.59999999999999998
sg8
F61.600000000000001
sg9
F2
sg10
F61.700000000000003
saa(lp416
V092742
p417
a(dp418
g6
F61.700000000000003
sg7
F-0.59999999999999998
sg8
F61.600000000000001
sg9
F6
sg10
F61.700000000000003
saa(lp419
V092747
p420
a(dp421
g6
F61.799999999999997
sg7
F-0.59999999999999998
sg8
F61.700000000000003
sg9
F1
sg10
F61.700000000000003
saa(lp422
V092757
p423
a(dp424
g6
F61.799999999999997
sg7
F-0.59999999999999998
sg8
F61.700000000000003
sg9
F5
sg10
F61.700000000000003
saa(lp425
V092802
p426
a(dp427
g6
F61.799999999999997
sg7
F-0.5
sg8
F61.700000000000003
sg9
F1
sg10
F61.799999999999997
saa(lp428
V092807
p429
a(dp430
g6
F61.799999999999997
sg7
F-0.5
sg8
F61.700000000000003
sg9
F1
sg10
F61.799999999999997
saa(lp431
V092822
p432
a(dp433
g6
F61.799999999999997
sg7
F-0.5
sg8
F61.700000000000003
sg9
F1
sg10
F61.799999999999997
saa(lp434
V092832
p435
a(dp436
g6
F61.799999999999997
sg7
F-0.5
sg8
F61.700000000000003
sg9
F1
sg10
F61.799999999999997
saa(lp437
V092847
p438
a(dp439
g6
F61.799999999999997
sg7
F-0.5
sg8
F61.700000000000003
sg9
F1
sg10
F61.799999999999997
saa(lp440
V092852
p441
a(dp442
g6
F61.799999999999997
sg7
F-0.5
sg8
F61.700000000000003
sg9
F3
sg10
F61.799999999999997
saa(lp443
V092902
p444
a(dp445
g6
F61.899999999999999
sg7
F-0.40000000000000002
sg8
F61.799999999999997
sg9
F2
sg10
F61.899999999999999
saa(lp446
V092947
p447
a(dp448
g6
F62
sg7
F-0.5
sg8
F61.799999999999997
sg9
F5
sg10
F61.799999999999997
saa(lp449
V092952
p450
a(dp451
g6
F62
sg7
F-0.5
sg8
F61.799999999999997
sg9
F1
sg10
F61.799999999999997
saa(lp452
V093053
p453
a(dp454
g6
F61.899999999999999
sg7
F-0.5
sg8
F61.799999999999997
sg9
F8
sg10
F61.799999999999997
saa(lp455
V093058
p456
a(dp457
g6
F61.899999999999999
sg7
F-0.5
sg8
F61.799999999999997
sg9
F1
sg10
F61.799999999999997
saa(lp458
V093148
p459
a(dp460
g6
F61.899999999999999
sg7
F-0.59999999999999998
sg8
F61.799999999999997
sg9
F10
sg10
F61.700000000000003
saa(lp461
V093238
p462
a(dp463
g6
F61.799999999999997
sg7
F-0.59999999999999998
sg8
F61.700000000000003
sg9
F8
sg10
F61.700000000000003
saa(lp464
V093323
p465
a(dp466
g6
F61.799999999999997
sg7
F-0.59999999999999998
sg8
F61.700000000000003
sg9
F1
sg10
F61.700000000000003
saa(lp467
V093348
p468
a(dp469
g6
F61.799999999999997
sg7
F-0.59999999999999998
sg8
F61.700000000000003
sg9
F1
sg10
F61.700000000000003
saa(lp470
V093413
p471
a(dp472
g6
F61.799999999999997
sg7
F-0.59999999999999998
sg8
F61.700000000000003
sg9
F1
sg10
F61.700000000000003
saa(lp473
V093423
p474
a(dp475
g6
F61.799999999999997
sg7
F-0.59999999999999998
sg8
F61.700000000000003
sg9
F23
sg10
F61.700000000000003
saa(lp476
V093428
p477
a(dp478
g6
F61.700000000000003
sg7
F-0.59999999999999998
sg8
F61.600000000000001
sg9
F3
sg10
F61.700000000000003
saa(lp479
V093433
p480
a(dp481
g6
F61.700000000000003
sg7
F-0.59999999999999998
sg8
F61.600000000000001
sg9
F1
sg10
F61.700000000000003
saa(lp482
V093443
p483
a(dp484
g6
F61.700000000000003
sg7
F-0.59999999999999998
sg8
F61.600000000000001
sg9
F2
sg10
F61.700000000000003
saa(lp485
V093448
p486
a(dp487
g6
F61.700000000000003
sg7
F-0.59999999999999998
sg8
F61.600000000000001
sg9
F1
sg10
F61.700000000000003
saa(lp488
V093509
p489
a(dp490
g6
F61.700000000000003
sg7
F-0.59999999999999998
sg8
F61.600000000000001
sg9
F13
sg10
F61.700000000000003
saa(lp491
V093514
p492
a(dp493
g6
F61.700000000000003
sg7
F-0.59999999999999998
sg8
F61.600000000000001
sg9
F1
sg10
F61.700000000000003
saa(lp494
V093524
p495
a(dp496
g6
F61.700000000000003
sg7
F-0.59999999999999998
sg8
F61.600000000000001
sg9
F2
sg10
F61.700000000000003
saa(lp497
V093534
p498
a(dp499
g6
F61.700000000000003
sg7
F-0.69999999999999996
sg8
F61.600000000000001
sg9
F3
sg10
F61.600000000000001
saa(lp500
V093539
p501
a(dp502
g6
F61.700000000000003
sg7
F-0.59999999999999998
sg8
F61.600000000000001
sg9
F2
sg10
F61.700000000000003
saa(lp503
V093544
p504
a(dp505
g6
F61.700000000000003
sg7
F-0.59999999999999998
sg8
F61.600000000000001
sg9
F8
sg10
F61.700000000000003
saa(lp506
V093554
p507
a(dp508
g6
F61.700000000000003
sg7
F-0.59999999999999998
sg8
F61.600000000000001
sg9
F14
sg10
F61.700000000000003
saa(lp509
V093559
p510
a(dp511
g6
F61.799999999999997
sg7
F-0.59999999999999998
sg8
F61.700000000000003
sg9
F5
sg10
F61.700000000000003
saa(lp512
V093609
p513
a(dp514
g6
F61.799999999999997
sg7
F-0.5
sg8
F61.700000000000003
sg9
F1
sg10
F61.799999999999997
saa(lp515
V093619
p516
a(dp517
g6
F61.799999999999997
sg7
F-0.5
sg8
F61.700000000000003
sg9
F2
sg10
F61.799999999999997
saa(lp518
V093624
p519
a(dp520
g6
F61.799999999999997
sg7
F-0.5
sg8
F61.700000000000003
sg9
F2
sg10
F61.799999999999997
saa(lp521
V093629
p522
a(dp523
g6
F61.799999999999997
sg7
F-0.5
sg8
F61.700000000000003
sg9
F2
sg10
F61.799999999999997
saa(lp524
V093634
p525
a(dp526
g6
F61.799999999999997
sg7
F-0.5
sg8
F61.700000000000003
sg9
F3
sg10
F61.799999999999997
saa(lp527
V093704
p528
a(dp529
g6
F61.799999999999997
sg7
F-0.59999999999999998
sg8
F61.700000000000003
sg9
F2
sg10
F61.700000000000003
saa(lp530
V093709
p531
a(dp532
g6
F61.799999999999997
sg7
F-0.5
sg8
F61.700000000000003
sg9
F1
sg10
F61.799999999999997
saa(lp533
V093714
p534
a(dp535
g6
F61.799999999999997
sg7
F-0.5
sg8
F61.700000000000003
sg9
F1
sg10
F61.799999999999997
saa(lp536
V093719
p537
a(dp538
g6
F61.799999999999997
sg7
F-0.5
sg8
F61.700000000000003
sg9
F5
sg10
F61.799999999999997
saa(lp539
V093724
p540
a(dp541
g6
F61.799999999999997
sg7
F-0.5
sg8
F61.700000000000003
sg9
F1
sg10
F61.799999999999997
saa(lp542
V093739
p543
a(dp544
g6
F61.899999999999999
sg7
F-0.5
sg8
F61.799999999999997
sg9
F1
sg10
F61.799999999999997
saa(lp545
V093749
p546
a(dp547
g6
F61.899999999999999
sg7
F-0.5
sg8
F61.799999999999997
sg9
F1
sg10
F61.799999999999997
saa(lp548
V093840
p549
a(dp550
g6
F61.899999999999999
sg7
F-0.40000000000000002
sg8
F61.799999999999997
sg9
F1
sg10
F61.899999999999999
saa(lp551
V093845
p552
a(dp553
g6
F61.899999999999999
sg7
F-0.40000000000000002
sg8
F61.799999999999997
sg9
F2
sg10
F61.899999999999999
saa(lp554
V093855
p555
a(dp556
g6
F61.899999999999999
sg7
F-0.40000000000000002
sg8
F61.799999999999997
sg9
F1
sg10
F61.899999999999999
saa(lp557
V093910
p558
a(dp559
g6
F62
sg7
F-0.40000000000000002
sg8
F61.899999999999999
sg9
F1
sg10
F61.899999999999999
saa(lp560
V093935
p561
a(dp562
g6
F62
sg7
F-0.29999999999999999
sg8
F61.899999999999999
sg9
F15
sg10
F62
saa(lp563
V093955
p564
a(dp565
g6
F62
sg7
F-0.29999999999999999
sg8
F61.899999999999999
sg9
F1
sg10
F62
saa(lp566
V094020
p567
a(dp568
g6
F62
sg7
F-0.40000000000000002
sg8
F61.899999999999999
sg9
F6
sg10
F61.899999999999999
saa(lp569
V094040
p570
a(dp571
g6
F62
sg7
F-0.29999999999999999
sg8
F61.899999999999999
sg9
F1
sg10
F62
saa(lp572
V094055
p573
a(dp574
g6
F62
sg7
F-0.29999999999999999
sg8
F61.899999999999999
sg9
F1
sg10
F62
saa(lp575
V094115
p576
a(dp577
g6
F62
sg7
F-0.29999999999999999
sg8
F61.899999999999999
sg9
F5
sg10
F62
saa(lp578
V094135
p579
a(dp580
g6
F62
sg7
F-0.29999999999999999
sg8
F61.899999999999999
sg9
F3
sg10
F62
saa(lp581
V094145
p582
a(dp583
g6
F62
sg7
F-0.40000000000000002
sg8
F61.899999999999999
sg9
F1
sg10
F61.899999999999999
saa(lp584
V094316
p585
a(dp586
g6
F62
sg7
F-0.40000000000000002
sg8
F61.899999999999999
sg9
F1
sg10
F61.899999999999999
saa(lp587
V094351
p588
a(dp589
g6
F62
sg7
F-0.40000000000000002
sg8
F61.899999999999999
sg9
F1
sg10
F61.899999999999999
saa(lp590
V094516
p591
a(dp592
g6
F62
sg7
F-0.29999999999999999
sg8
F61.899999999999999
sg9
F16
sg10
F62
saa(lp593
V094522
p594
a(dp595
g6
F62.100000000000001
sg7
F-0.20000000000000001
sg8
F62
sg9
F2
sg10
F62.100000000000001
saa(lp596
V094532
p597
a(dp598
g6
F62.100000000000001
sg7
F-0.20000000000000001
sg8
F62
sg9
F1
sg10
F62.100000000000001
saa(lp599
V094617
p600
a(dp601
g6
F62.100000000000001
sg7
F-0.20000000000000001
sg8
F62
sg9
F2
sg10
F62.100000000000001
saa(lp602
V094622
p603
a(dp604
g6
F62.200000000000003
sg7
F-0.10000000000000001
sg8
F62
sg9
F1
sg10
F62.200000000000003
saa(lp605
V094627
p606
a(dp607
g6
F62.200000000000003
sg7
F-0.10000000000000001
sg8
F62
sg9
F3
sg10
F62.200000000000003
saa(lp608
V094657
p609
a(dp610
g6
F62.200000000000003
sg7
F-0.10000000000000001
sg8
F62.100000000000001
sg9
F1
sg10
F62.200000000000003
saa(lp611
V094702
p612
a(dp613
g6
F62.200000000000003
sg7
F-0.20000000000000001
sg8
F62.100000000000001
sg9
F1
sg10
F62.100000000000001
saa(lp614
V094722
p615
a(dp616
g6
F62.200000000000003
sg7
F-0.20000000000000001
sg8
F62.100000000000001
sg9
F1
sg10
F62.100000000000001
saa(lp617
V094747
p618
a(dp619
g6
F62.200000000000003
sg7
F-0.10000000000000001
sg8
F62.100000000000001
sg9
F6
sg10
F62.200000000000003
saa(lp620
V094752
p621
a(dp622
g6
F62.299999999999997
sg7
F0
sg8
F62.200000000000003
sg9
F4
sg10
F62.299999999999997
saa(lp623
V094757
p624
a(dp625
g6
F62.299999999999997
sg7
F-0.10000000000000001
sg8
F62.200000000000003
sg9
F1
sg10
F62.200000000000003
saa(lp626
V094802
p627
a(dp628
g6
F62.299999999999997
sg7
F0
sg8
F62.200000000000003
sg9
F1
sg10
F62.299999999999997
saa(lp629
V094807
p630
a(dp631
g6
F62.299999999999997
sg7
F0
sg8
F62.200000000000003
sg9
F1
sg10
F62.299999999999997
saa(lp632
V094827
p633
a(dp634
g6
F62.299999999999997
sg7
F0
sg8
F62.200000000000003
sg9
F1
sg10
F62.299999999999997
saa(lp635
V094842
p636
a(dp637
g6
F62.299999999999997
sg7
F-0.10000000000000001
sg8
F62.200000000000003
sg9
F1
sg10
F62.200000000000003
saa(lp638
V094847
p639
a(dp640
g6
F62.299999999999997
sg7
F-0.10000000000000001
sg8
F62.200000000000003
sg9
F2
sg10
F62.200000000000003
saa(lp641
V094852
p642
a(dp643
g6
F62.299999999999997
sg7
F-0.10000000000000001
sg8
F62.200000000000003
sg9
F1
sg10
F62.200000000000003
saa(lp644
V094857
p645
a(dp646
g6
F62.299999999999997
sg7
F-0.10000000000000001
sg8
F62.200000000000003
sg9
F7
sg10
F62.200000000000003
saa(lp647
V095018
p648
a(dp649
g6
F62.200000000000003
sg7
F-0.20000000000000001
sg8
F62.100000000000001
sg9
F1
sg10
F62.100000000000001
saa(lp650
V095023
p651
a(dp652
g6
F62.200000000000003
sg7
F-0.20000000000000001
sg8
F62.100000000000001
sg9
F3
sg10
F62.100000000000001
saa(lp653
V095108
p654
a(dp655
g6
F62.200000000000003
sg7
F-0.10000000000000001
sg8
F62.100000000000001
sg9
F10
sg10
F62.200000000000003
saa(lp656
V095113
p657
a(dp658
g6
F62.299999999999997
sg7
F0
sg8
F62.100000000000001
sg9
F2
sg10
F62.299999999999997
saa(lp659
V095133
p660
a(dp661
g6
F62.299999999999997
sg7
F0
sg8
F62.200000000000003
sg9
F2
sg10
F62.299999999999997
saa(lp662
V095143
p663
a(dp664
g6
F62.299999999999997
sg7
F-0.10000000000000001
sg8
F62.200000000000003
sg9
F1
sg10
F62.200000000000003
saa(lp665
V095148
p666
a(dp667
g6
F62.299999999999997
sg7
F0
sg8
F62.200000000000003
sg9
F10
sg10
F62.299999999999997
saa(lp668
V095153
p669
a(dp670
g6
F62.299999999999997
sg7
F0
sg8
F62.200000000000003
sg9
F2
sg10
F62.299999999999997
saa(lp671
V095158
p672
a(dp673
g6
F62.299999999999997
sg7
F0
sg8
F62.200000000000003
sg9
F1
sg10
F62.299999999999997
saa(lp674
V095203
p675
a(dp676
g6
F62.299999999999997
sg7
F0
sg8
F62.200000000000003
sg9
F10
sg10
F62.299999999999997
saa(lp677
V095208
p678
a(dp679
g6
F62.299999999999997
sg7
F0
sg8
F62.200000000000003
sg9
F8
sg10
F62.299999999999997
saa(lp680
V095213
p681
a(dp682
g6
F62.399999999999999
sg7
F0.10000000000000001
sg8
F62.299999999999997
sg9
F4
sg10
F62.399999999999999
saa(lp683
V095218
p684
a(dp685
g6
F62.399999999999999
sg7
F0
sg8
F62.299999999999997
sg9
F1
sg10
F62.299999999999997
saa(lp686
V095303
p687
a(dp688
g6
F62.399999999999999
sg7
F0
sg8
F62.299999999999997
sg9
F10
sg10
F62.299999999999997
saa(lp689
V095308
p690
a(dp691
g6
F62.399999999999999
sg7
F0
sg8
F62.299999999999997
sg9
F4
sg10
F62.299999999999997
saa(lp692
V095314
p693
a(dp694
g6
F62.399999999999999
sg7
F0
sg8
F62.299999999999997
sg9
F3
sg10
F62.299999999999997
saa(lp695
V095349
p696
a(dp697
g6
F62.299999999999997
sg7
F-0.10000000000000001
sg8
F62.200000000000003
sg9
F1
sg10
F62.200000000000003
saa(lp698
V095404
p699
a(dp700
g6
F62.299999999999997
sg7
F-0.10000000000000001
sg8
F62.200000000000003
sg9
F3
sg10
F62.200000000000003
saa(lp701
V095429
p702
a(dp703
g6
F62.299999999999997
sg7
F-0.10000000000000001
sg8
F62.200000000000003
sg9
F3
sg10
F62.200000000000003
saa(lp704
V095434
p705
a(dp706
g6
F62.299999999999997
sg7
F-0.10000000000000001
sg8
F62.200000000000003
sg9
F2
sg10
F62.200000000000003
saa(lp707
V095439
p708
a(dp709
g6
F62.299999999999997
sg7
F-0.10000000000000001
sg8
F62.200000000000003
sg9
F2
sg10
F62.200000000000003
saa(lp710
V095504
p711
a(dp712
g6
F62.200000000000003
sg7
F-0.10000000000000001
sg8
F62.100000000000001
sg9
F1
sg10
F62.200000000000003
saa(lp713
V095705
p714
a(dp715
g6
F62.200000000000003
sg7
F-0.20000000000000001
sg8
F62.100000000000001
sg9
F1
sg10
F62.100000000000001
saa(lp716
V095715
p717
a(dp718
g6
F62.200000000000003
sg7
F-0.20000000000000001
sg8
F62.100000000000001
sg9
F1
sg10
F62.100000000000001
saa(lp719
V095720
p720
a(dp721
g6
F62.200000000000003
sg7
F-0.20000000000000001
sg8
F62.100000000000001
sg9
F9
sg10
F62.100000000000001
saa(lp722
V095750
p723
a(dp724
g6
F62.100000000000001
sg7
F-0.29999999999999999
sg8
F62
sg9
F1
sg10
F62
saa(lp725
V095855
p726
a(dp727
g6
F62.100000000000001
sg7
F-0.29999999999999999
sg8
F62
sg9
F1
sg10
F62
saa(lp728
V095900
p729
a(dp730
g6
F62.100000000000001
sg7
F-0.29999999999999999
sg8
F62
sg9
F1
sg10
F62
saa(lp731
V095905
p732
a(dp733
g6
F62.100000000000001
sg7
F-0.29999999999999999
sg8
F62
sg9
F5
sg10
F62
saa(lp734
V095920
p735
a(dp736
g6
F62.100000000000001
sg7
F-0.29999999999999999
sg8
F62
sg9
F2
sg10
F62
saa(lp737
V095945
p738
a(dp739
g6
F62.100000000000001
sg7
F-0.20000000000000001
sg8
F62
sg9
F2
sg10
F62.100000000000001
saa(lp740
V100000
p741
a(dp742
g6
F62.100000000000001
sg7
F-0.29999999999999999
sg8
F62
sg9
F1
sg10
F62
saa(lp743
V100025
p744
a(dp745
g6
F62.100000000000001
sg7
F-0.29999999999999999
sg8
F62
sg9
F1
sg10
F62
saa(lp746
V100131
p747
a(dp748
g6
F62.100000000000001
sg7
F-0.29999999999999999
sg8
F62
sg9
F1
sg10
F62
saa(lp749
V100356
p750
a(dp751
g6
F62.100000000000001
sg7
F-0.29999999999999999
sg8
F62
sg9
F3
sg10
F62
saa(lp752
V100416
p753
a(dp754
g6
F62.100000000000001
sg7
F-0.29999999999999999
sg8
F62
sg9
F1
sg10
F62
saa(lp755
V100431
p756
a(dp757
g6
F62.100000000000001
sg7
F-0.29999999999999999
sg8
F62
sg9
F3
sg10
F62
saa(lp758
V100446
p759
a(dp760
g6
F62.100000000000001
sg7
F-0.29999999999999999
sg8
F62
sg9
F2
sg10
F62
saa(lp761
V100637
p762
a(dp763
g6
F62.100000000000001
sg7
F-0.20000000000000001
sg8
F62
sg9
F3
sg10
F62.100000000000001
saa(lp764
V100658
p765
a(dp766
g6
F62.100000000000001
sg7
F-0.20000000000000001
sg8
F62
sg9
F1
sg10
F62.100000000000001
saa(lp767
V100708
p768
a(dp769
g6
F62.100000000000001
sg7
F-0.20000000000000001
sg8
F62
sg9
F1
sg10
F62.100000000000001
saa(lp770
V100713
p771
a(dp772
g6
F62.100000000000001
sg7
F-0.20000000000000001
sg8
F62
sg9
F3
sg10
F62.100000000000001
saa(lp773
V100828
p774
a(dp775
g6
F62.100000000000001
sg7
F-0.20000000000000001
sg8
F62
sg9
F1
sg10
F62.100000000000001
saa(lp776
V100838
p777
a(dp778
g6
F62.100000000000001
sg7
F-0.20000000000000001
sg8
F62
sg9
F1
sg10
F62.100000000000001
saa(lp779
V100903
p780
a(dp781
g6
F62.100000000000001
sg7
F-0.20000000000000001
sg8
F62
sg9
F2
sg10
F62.100000000000001
saa(lp782
V100913
p783
a(dp784
g6
F62.200000000000003
sg7
F-0.10000000000000001
sg8
F62.100000000000001
sg9
F1
sg10
F62.200000000000003
saa(lp785
V100928
p786
a(dp787
g6
F62.200000000000003
sg7
F-0.10000000000000001
sg8
F62.100000000000001
sg9
F1
sg10
F62.200000000000003
saa(lp788
V100938
p789
a(dp790
g6
F62.200000000000003
sg7
F-0.10000000000000001
sg8
F62.100000000000001
sg9
F1
sg10
F62.200000000000003
saa(lp791
V101113
p792
a(dp793
g6
F62.200000000000003
sg7
F-0.20000000000000001
sg8
F62.100000000000001
sg9
F1
sg10
F62.100000000000001
saa(lp794
V101129
p795
a(dp796
g6
F62.200000000000003
sg7
F-0.20000000000000001
sg8
F62.100000000000001
sg9
F7
sg10
F62.100000000000001
saa(lp797
V101134
p798
a(dp799
g6
F62.100000000000001
sg7
F-0.20000000000000001
sg8
F62
sg9
F1
sg10
F62.100000000000001
saa(lp800
V101204
p801
a(dp802
g6
F62.100000000000001
sg7
F-0.20000000000000001
sg8
F62
sg9
F1
sg10
F62.100000000000001
saa(lp803
V101234
p804
a(dp805
g6
F62.100000000000001
sg7
F-0.20000000000000001
sg8
F62
sg9
F1
sg10
F62.100000000000001
saa(lp806
V101249
p807
a(dp808
g6
F62.100000000000001
sg7
F-0.20000000000000001
sg8
F62
sg9
F1
sg10
F62.100000000000001
saa(lp809
V101334
p810
a(dp811
g6
F62.100000000000001
sg7
F-0.20000000000000001
sg8
F62
sg9
F1
sg10
F62.100000000000001
saa(lp812
V101409
p813
a(dp814
g6
F62.100000000000001
sg7
F-0.20000000000000001
sg8
F62
sg9
F2
sg10
F62.100000000000001
saa(lp815
V101444
p816
a(dp817
g6
F62.100000000000001
sg7
F-0.20000000000000001
sg8
F62
sg9
F1
sg10
F62.100000000000001
saa(lp818
V101520
p819
a(dp820
g6
F62.100000000000001
sg7
F-0.29999999999999999
sg8
F62
sg9
F1
sg10
F62
saa(lp821
V101615
p822
a(dp823
g6
F62.100000000000001
sg7
F-0.20000000000000001
sg8
F62
sg9
F10
sg10
F62.100000000000001
saa(lp824
V101620
p825
a(dp826
g6
F62.100000000000001
sg7
F-0.20000000000000001
sg8
F62
sg9
F1
sg10
F62.100000000000001
saa(lp827
V101701
p828
a(dp829
g6
F62.100000000000001
sg7
F-0.20000000000000001
sg8
F62
sg9
F9
sg10
F62.100000000000001
saa(lp830
V101706
p831
a(dp832
g6
F62.200000000000003
sg7
F-0.20000000000000001
sg8
F62.100000000000001
sg9
F1
sg10
F62.100000000000001
saa(lp833
V101741
p834
a(dp835
g6
F62.200000000000003
sg7
F-0.20000000000000001
sg8
F62.100000000000001
sg9
F10
sg10
F62.100000000000001
saa(lp836
V101751
p837
a(dp838
g6
F62.100000000000001
sg7
F-0.20000000000000001
sg8
F62
sg9
F1
sg10
F62.100000000000001
saa(lp839
V101816
p840
a(dp841
g6
F62.100000000000001
sg7
F-0.20000000000000001
sg8
F62
sg9
F1
sg10
F62.100000000000001
saa(lp842
V101836
p843
a(dp844
g6
F62.100000000000001
sg7
F-0.20000000000000001
sg8
F62
sg9
F1
sg10
F62.100000000000001
saa(lp845
V101916
p846
a(dp847
g6
F62.200000000000003
sg7
F-0.29999999999999999
sg8
F62
sg9
F1
sg10
F62
saa(lp848
V102001
p849
a(dp850
g6
F62.200000000000003
sg7
F-0.20000000000000001
sg8
F62.100000000000001
sg9
F3
sg10
F62.100000000000001
saa(lp851
V102111
p852
a(dp853
g6
F62.100000000000001
sg7
F-0.29999999999999999
sg8
F62
sg9
F2
sg10
F62
saa(lp854
V102252
p855
a(dp856
g6
F62.100000000000001
sg7
F-0.20000000000000001
sg8
F62
sg9
F1
sg10
F62.100000000000001
saa(lp857
V102352
p858
a(dp859
g6
F62.100000000000001
sg7
F-0.20000000000000001
sg8
F62
sg9
F1
sg10
F62.100000000000001
saa(lp860
V102412
p861
a(dp862
g6
F62.100000000000001
sg7
F-0.29999999999999999
sg8
F62
sg9
F1
sg10
F62
saa(lp863
V102427
p864
a(dp865
g6
F62.100000000000001
sg7
F-0.20000000000000001
sg8
F62
sg9
F1
sg10
F62.100000000000001
saa(lp866
V102618
p867
a(dp868
g6
F62.100000000000001
sg7
F-0.29999999999999999
sg8
F62
sg9
F20
sg10
F62
saa(lp869
V102623
p870
a(dp871
g6
F62.100000000000001
sg7
F-0.20000000000000001
sg8
F62
sg9
F1
sg10
F62.100000000000001
saa(lp872
V102758
p873
a(dp874
g6
F62.100000000000001
sg7
F-0.29999999999999999
sg8
F62
sg9
F10
sg10
F62
saa(lp875
V102819
p876
a(dp877
g6
F62.100000000000001
sg7
F-0.29999999999999999
sg8
F62
sg9
F1
sg10
F62
saa(lp878
V102854
p879
a(dp880
g6
F62.100000000000001
sg7
F-0.20000000000000001
sg8
F62
sg9
F1
sg10
F62.100000000000001
saa(lp881
V103014
p882
a(dp883
g6
F62.100000000000001
sg7
F-0.20000000000000001
sg8
F62
sg9
F1
sg10
F62.100000000000001
saa(lp884
V103054
p885
a(dp886
g6
F62.100000000000001
sg7
F-0.29999999999999999
sg8
F62
sg9
F1
sg10
F62
saa(lp887
V103114
p888
a(dp889
g6
F62.100000000000001
sg7
F-0.20000000000000001
sg8
F62
sg9
F1
sg10
F62.100000000000001
saa(lp890
V103250
p891
a(dp892
g6
F62.100000000000001
sg7
F-0.29999999999999999
sg8
F62
sg9
F2
sg10
F62
saa(lp893
V103320
p894
a(dp895
g6
F62.100000000000001
sg7
F-0.20000000000000001
sg8
F62
sg9
F1
sg10
F62.100000000000001
saa(lp896
V103405
p897
a(dp898
g6
F62.100000000000001
sg7
F-0.29999999999999999
sg8
F62
sg9
F1
sg10
F62
saa(lp899
V103415
p900
a(dp901
g6
F62.100000000000001
sg7
F-0.29999999999999999
sg8
F62
sg9
F34
sg10
F62
saa(lp902
V103420
p903
a(dp904
g6
F62
sg7
F-0.29999999999999999
sg8
F61.899999999999999
sg9
F1
sg10
F62
saa(lp905
V103621
p906
a(dp907
g6
F62
sg7
F-0.29999999999999999
sg8
F61.899999999999999
sg9
F1
sg10
F62
saa(lp908
V103626
p909
a(dp910
g6
F62
sg7
F-0.29999999999999999
sg8
F61.899999999999999
sg9
F1
sg10
F62
saa(lp911
V103711
p912
a(dp913
g6
F62
sg7
F-0.29999999999999999
sg8
F61.899999999999999
sg9
F2
sg10
F62
saa(lp914
V103836
p915
a(dp916
g6
F62
sg7
F-0.40000000000000002
sg8
F61.899999999999999
sg9
F2
sg10
F61.899999999999999
saa(lp917
V104127
p918
a(dp919
g6
F62
sg7
F-0.29999999999999999
sg8
F61.899999999999999
sg9
F1
sg10
F62
saa(lp920
V104137
p921
a(dp922
g6
F62
sg7
F-0.29999999999999999
sg8
F61.899999999999999
sg9
F1
sg10
F62
saa(lp923
V104217
p924
a(dp925
g6
F62
sg7
F-0.29999999999999999
sg8
F61.899999999999999
sg9
F5
sg10
F62
saa(lp926
V104237
p927
a(dp928
g6
F62
sg7
F-0.40000000000000002
sg8
F61.899999999999999
sg9
F1
sg10
F61.899999999999999
saa(lp929
V104252
p930
a(dp931
g6
F62
sg7
F-0.40000000000000002
sg8
F61.899999999999999
sg9
F8
sg10
F61.899999999999999
saa(lp932
V104418
p933
a(dp934
g6
F62
sg7
F-0.40000000000000002
sg8
F61.899999999999999
sg9
F2
sg10
F61.899999999999999
saa(lp935
V104423
p936
a(dp937
g6
F62
sg7
F-0.40000000000000002
sg8
F61.899999999999999
sg9
F3
sg10
F61.899999999999999
saa(lp938
V104503
p939
a(dp940
g6
F62
sg7
F-0.40000000000000002
sg8
F61.899999999999999
sg9
F1
sg10
F61.899999999999999
saa(lp941
V104529
p942
a(dp943
g6
F62
sg7
F-0.29999999999999999
sg8
F61.899999999999999
sg9
F1
sg10
F62
saa(lp944
V104559
p945
a(dp946
g6
F62
sg7
F-0.29999999999999999
sg8
F61.899999999999999
sg9
F2
sg10
F62
saa(lp947
V104629
p948
a(dp949
g6
F62
sg7
F-0.29999999999999999
sg8
F61.899999999999999
sg9
F1
sg10
F62
saa(lp950
V104719
p951
a(dp952
g6
F62
sg7
F-0.29999999999999999
sg8
F61.899999999999999
sg9
F1
sg10
F62
saa(lp953
V104724
p954
a(dp955
g6
F62
sg7
F-0.40000000000000002
sg8
F61.899999999999999
sg9
F1
sg10
F61.899999999999999
saa(lp956
V104859
p957
a(dp958
g6
F62
sg7
F-0.29999999999999999
sg8
F61.899999999999999
sg9
F15
sg10
F62
saa(lp959
V104914
p960
a(dp961
g6
F62
sg7
F-0.29999999999999999
sg8
F61.899999999999999
sg9
F1
sg10
F62
saa(lp962
V104919
p963
a(dp964
g6
F62
sg7
F-0.29999999999999999
sg8
F61.899999999999999
sg9
F1
sg10
F62
saa(lp965
V104924
p966
a(dp967
g6
F62
sg7
F-0.29999999999999999
sg8
F61.899999999999999
sg9
F1
sg10
F62
saa(lp968
V104954
p969
a(dp970
g6
F62
sg7
F-0.29999999999999999
sg8
F61.899999999999999
sg9
F1
sg10
F62
saa(lp971
V105009
p972
a(dp973
g6
F62
sg7
F-0.29999999999999999
sg8
F61.899999999999999
sg9
F3
sg10
F62
saa(lp974
V105015
p975
a(dp976
g6
F62
sg7
F-0.40000000000000002
sg8
F61.899999999999999
sg9
F1
sg10
F61.899999999999999
saa(lp977
V105045
p978
a(dp979
g6
F62
sg7
F-0.29999999999999999
sg8
F61.899999999999999
sg9
F7
sg10
F62
saa(lp980
V105125
p981
a(dp982
g6
F62.100000000000001
sg7
F-0.29999999999999999
sg8
F62
sg9
F7
sg10
F62
saa(lp983
V105155
p984
a(dp985
g6
F62
sg7
F-0.29999999999999999
sg8
F61.899999999999999
sg9
F1
sg10
F62
saa(lp986
V105310
p987
a(dp988
g6
F62
sg7
F-0.29999999999999999
sg8
F61.899999999999999
sg9
F1
sg10
F62
saa(lp989
V105335
p990
a(dp991
g6
F62
sg7
F-0.29999999999999999
sg8
F61.899999999999999
sg9
F8
sg10
F62
saa(lp992
V105411
p993
a(dp994
g6
F62.100000000000001
sg7
F-0.29999999999999999
sg8
F62
sg9
F7
sg10
F62
saa(lp995
V105426
p996
a(dp997
g6
F62
sg7
F-0.29999999999999999
sg8
F61.899999999999999
sg9
F1
sg10
F62
saa(lp998
V105501
p999
a(dp1000
g6
F62
sg7
F-0.29999999999999999
sg8
F61.899999999999999
sg9
F1
sg10
F62
saa(lp1001
V105506
p1002
a(dp1003
g6
F62
sg7
F-0.29999999999999999
sg8
F61.899999999999999
sg9
F1
sg10
F62
saa(lp1004
V105511
p1005
a(dp1006
g6
F62
sg7
F-0.29999999999999999
sg8
F61.899999999999999
sg9
F1
sg10
F62
saa(lp1007
V105526
p1008
a(dp1009
g6
F62
sg7
F-0.29999999999999999
sg8
F61.899999999999999
sg9
F1
sg10
F62
saa(lp1010
V105627
p1011
a(dp1012
g6
F62
sg7
F-0.29999999999999999
sg8
F61.899999999999999
sg9
F10
sg10
F62
saa(lp1013
V105632
p1014
a(dp1015
g6
F62
sg7
F-0.29999999999999999
sg8
F61.899999999999999
sg9
F1
sg10
F62
saa(lp1016
V105637
p1017
a(dp1018
g6
F62
sg7
F-0.29999999999999999
sg8
F61.899999999999999
sg9
F4
sg10
F62
saa(lp1019
V105917
p1020
a(dp1021
g6
F62.100000000000001
sg7
F-0.20000000000000001
sg8
F62
sg9
F1
sg10
F62.100000000000001
saa(lp1022
V105922
p1023
a(dp1024
g6
F62.100000000000001
sg7
F-0.20000000000000001
sg8
F62
sg9
F1
sg10
F62.100000000000001
saa(lp1025
V110128
p1026
a(dp1027
g6
F62.100000000000001
sg7
F-0.29999999999999999
sg8
F62
sg9
F1
sg10
F62
saa(lp1028
V110138
p1029
a(dp1030
g6
F62.100000000000001
sg7
F-0.29999999999999999
sg8
F62
sg9
F1
sg10
F62
saa(lp1031
V110203
p1032
a(dp1033
g6
F62.100000000000001
sg7
F-0.29999999999999999
sg8
F62
sg9
F1
sg10
F62
saa(lp1034
V110233
p1035
a(dp1036
g6
F62.100000000000001
sg7
F-0.20000000000000001
sg8
F62
sg9
F1
sg10
F62.100000000000001
saa(lp1037
V110404
p1038
a(dp1039
g6
F62.100000000000001
sg7
F-0.20000000000000001
sg8
F62
sg9
F2
sg10
F62.100000000000001
saa(lp1040
V110459
p1041
a(dp1042
g6
F62.100000000000001
sg7
F-0.29999999999999999
sg8
F62
sg9
F3
sg10
F62
saa(lp1043
V110539
p1044
a(dp1045
g6
F62.100000000000001
sg7
F-0.29999999999999999
sg8
F62
sg9
F1
sg10
F62
saa(lp1046
V110549
p1047
a(dp1048
g6
F62.100000000000001
sg7
F-0.29999999999999999
sg8
F62
sg9
F1
sg10
F62
saa(lp1049
V110554
p1050
a(dp1051
g6
F62.100000000000001
sg7
F-0.29999999999999999
sg8
F62
sg9
F1
sg10
F62
saa(lp1052
V110624
p1053
a(dp1054
g6
F62.100000000000001
sg7
F-0.20000000000000001
sg8
F62
sg9
F5
sg10
F62.100000000000001
saa(lp1055
V110715
p1056
a(dp1057
g6
F62.100000000000001
sg7
F-0.20000000000000001
sg8
F62
sg9
F1
sg10
F62.100000000000001
saa(lp1058
V110725
p1059
a(dp1060
g6
F62.100000000000001
sg7
F-0.20000000000000001
sg8
F62
sg9
F1
sg10
F62.100000000000001
saa(lp1061
V110750
p1062
a(dp1063
g6
F62.100000000000001
sg7
F-0.20000000000000001
sg8
F62
sg9
F3
sg10
F62.100000000000001
saa(lp1064
V110820
p1065
a(dp1066
g6
F62.100000000000001
sg7
F-0.20000000000000001
sg8
F62
sg9
F2
sg10
F62.100000000000001
saa(lp1067
V110840
p1068
a(dp1069
g6
F62.100000000000001
sg7
F-0.20000000000000001
sg8
F62
sg9
F7
sg10
F62.100000000000001
saa(lp1070
V110900
p1071
a(dp1072
g6
F62.100000000000001
sg7
F-0.20000000000000001
sg8
F62
sg9
F1
sg10
F62.100000000000001
saa(lp1073
V110910
p1074
a(dp1075
g6
F62.200000000000003
sg7
F-0.10000000000000001
sg8
F62.100000000000001
sg9
F1
sg10
F62.200000000000003
saa(lp1076
V110925
p1077
a(dp1078
g6
F62.200000000000003
sg7
F-0.10000000000000001
sg8
F62.100000000000001
sg9
F1
sg10
F62.200000000000003
saa(lp1079
V110945
p1080
a(dp1081
g6
F62.200000000000003
sg7
F-0.10000000000000001
sg8
F62.100000000000001
sg9
F1
sg10
F62.200000000000003
saa(lp1082
V110955
p1083
a(dp1084
g6
F62.200000000000003
sg7
F-0.10000000000000001
sg8
F62.100000000000001
sg9
F2
sg10
F62.200000000000003
saa(lp1085
V111000
p1086
a(dp1087
g6
F62.200000000000003
sg7
F-0.10000000000000001
sg8
F62.100000000000001
sg9
F1
sg10
F62.200000000000003
saa(lp1088
V111050
p1089
a(dp1090
g6
F62.200000000000003
sg7
F-0.20000000000000001
sg8
F62.100000000000001
sg9
F6
sg10
F62.100000000000001
saa(lp1091
V111111
p1092
a(dp1093
g6
F62.100000000000001
sg7
F-0.20000000000000001
sg8
F62
sg9
F1
sg10
F62.100000000000001
saa(lp1094
V111251
p1095
a(dp1096
g6
F62.100000000000001
sg7
F-0.20000000000000001
sg8
F62
sg9
F1
sg10
F62.100000000000001
saa(lp1097
V111301
p1098
a(dp1099
g6
F62.100000000000001
sg7
F-0.29999999999999999
sg8
F62
sg9
F8
sg10
F62
saa(lp1100
V111311
p1101
a(dp1102
g6
F62.100000000000001
sg7
F-0.29999999999999999
sg8
F62
sg9
F4
sg10
F62
saa(lp1103
V111336
p1104
a(dp1105
g6
F62.100000000000001
sg7
F-0.29999999999999999
sg8
F62
sg9
F2
sg10
F62
saa(lp1106
V111416
p1107
a(dp1108
g6
F62.100000000000001
sg7
F-0.29999999999999999
sg8
F62
sg9
F1
sg10
F62
saa(lp1109
V111436
p1110
a(dp1111
g6
F62.100000000000001
sg7
F-0.20000000000000001
sg8
F62
sg9
F4
sg10
F62.100000000000001
saa(lp1112
V111506
p1113
a(dp1114
g6
F62.100000000000001
sg7
F-0.29999999999999999
sg8
F62
sg9
F3
sg10
F62
saa(lp1115
V111527
p1116
a(dp1117
g6
F62.100000000000001
sg7
F-0.20000000000000001
sg8
F62
sg9
F1
sg10
F62.100000000000001
saa(lp1118
V111748
p1119
a(dp1120
g6
F62.100000000000001
sg7
F-0.20000000000000001
sg8
F62
sg9
F1
sg10
F62.100000000000001
saa(lp1121
V111803
p1122
a(dp1123
g6
F62.100000000000001
sg7
F-0.29999999999999999
sg8
F62
sg9
F2
sg10
F62
saa(lp1124
V111818
p1125
a(dp1126
g6
F62.100000000000001
sg7
F-0.20000000000000001
sg8
F62
sg9
F15
sg10
F62.100000000000001
saa(lp1127
V111838
p1128
a(dp1129
g6
F62.100000000000001
sg7
F-0.20000000000000001
sg8
F62
sg9
F5
sg10
F62.100000000000001
saa(lp1130
V111953
p1131
a(dp1132
g6
F62.100000000000001
sg7
F-0.20000000000000001
sg8
F62
sg9
F1
sg10
F62.100000000000001
saa(lp1133
V112053
p1134
a(dp1135
g6
F62.100000000000001
sg7
F-0.20000000000000001
sg8
F62
sg9
F5
sg10
F62.100000000000001
saa(lp1136
V112143
p1137
a(dp1138
g6
F62.100000000000001
sg7
F-0.20000000000000001
sg8
F62
sg9
F1
sg10
F62.100000000000001
saa(lp1139
V112254
p1140
a(dp1141
g6
F62.100000000000001
sg7
F-0.20000000000000001
sg8
F62
sg9
F1
sg10
F62.100000000000001
saa(lp1142
V112409
p1143
a(dp1144
g6
F62.100000000000001
sg7
F-0.20000000000000001
sg8
F62
sg9
F1
sg10
F62.100000000000001
saa(lp1145
V112449
p1146
a(dp1147
g6
F62.100000000000001
sg7
F-0.29999999999999999
sg8
F62
sg9
F1
sg10
F62
saa(lp1148
V112514
p1149
a(dp1150
g6
F62.100000000000001
sg7
F-0.29999999999999999
sg8
F62
sg9
F50
sg10
F62
saa(lp1151
V112519
p1152
a(dp1153
g6
F62
sg7
F-0.29999999999999999
sg8
F61.899999999999999
sg9
F1
sg10
F62
saa(lp1154
V112550
p1155
a(dp1156
g6
F62
sg7
F-0.40000000000000002
sg8
F61.899999999999999
sg9
F1
sg10
F61.899999999999999
saa(lp1157
V112655
p1158
a(dp1159
g6
F62
sg7
F-0.40000000000000002
sg8
F61.899999999999999
sg9
F1
sg10
F61.899999999999999
saa(lp1160
V112835
p1161
a(dp1162
g6
F62
sg7
F-0.40000000000000002
sg8
F61.899999999999999
sg9
F1
sg10
F61.899999999999999
saa(lp1163
V113001
p1164
a(dp1165
g6
F62
sg7
F-0.40000000000000002
sg8
F61.899999999999999
sg9
F1
sg10
F61.899999999999999
saa(lp1166
V113251
p1167
a(dp1168
g6
F62
sg7
F-0.29999999999999999
sg8
F61.899999999999999
sg9
F2
sg10
F62
saa(lp1169
V113256
p1170
a(dp1171
g6
F62
sg7
F-0.29999999999999999
sg8
F61.899999999999999
sg9
F1
sg10
F62
saa(lp1172
V113301
p1173
a(dp1174
g6
F62
sg7
F-0.29999999999999999
sg8
F61.899999999999999
sg9
F2
sg10
F62
saa(lp1175
V113306
p1176
a(dp1177
g6
F62
sg7
F-0.29999999999999999
sg8
F61.899999999999999
sg9
F1
sg10
F62
saa(lp1178
V113321
p1179
a(dp1180
g6
F62
sg7
F-0.40000000000000002
sg8
F61.899999999999999
sg9
F10
sg10
F61.899999999999999
saa(lp1181
V113437
p1182
a(dp1183
g6
F62
sg7
F-0.40000000000000002
sg8
F61.899999999999999
sg9
F1
sg10
F61.899999999999999
saa(lp1184
V113533
p1185
a(dp1186
g6
F62
sg7
F-0.29999999999999999
sg8
F61.899999999999999
sg9
F1
sg10
F62
saa(lp1187
V113553
p1188
a(dp1189
g6
F62
sg7
F-0.29999999999999999
sg8
F61.899999999999999
sg9
F3
sg10
F62
saa(lp1190
V113853
p1191
a(dp1192
g6
F62
sg7
F-0.40000000000000002
sg8
F61.899999999999999
sg9
F1
sg10
F61.899999999999999
saa(lp1193
V113903
p1194
a(dp1195
g6
F62
sg7
F-0.40000000000000002
sg8
F61.899999999999999
sg9
F1
sg10
F61.899999999999999
saa(lp1196
V113948
p1197
a(dp1198
g6
F62
sg7
F-0.40000000000000002
sg8
F61.899999999999999
sg9
F1
sg10
F61.899999999999999
saa(lp1199
V114003
p1200
a(dp1201
g6
F62
sg7
F-0.40000000000000002
sg8
F61.899999999999999
sg9
F1
sg10
F61.899999999999999
saa(lp1202
V114059
p1203
a(dp1204
g6
F62
sg7
F-0.40000000000000002
sg8
F61.899999999999999
sg9
F1
sg10
F61.899999999999999
saa(lp1205
V114119
p1206
a(dp1207
g6
F62
sg7
F-0.40000000000000002
sg8
F61.899999999999999
sg9
F1
sg10
F61.899999999999999
saa(lp1208
V114244
p1209
a(dp1210
g6
F62
sg7
F-0.40000000000000002
sg8
F61.899999999999999
sg9
F1
sg10
F61.899999999999999
saa(lp1211
V114304
p1212
a(dp1213
g6
F62
sg7
F-0.40000000000000002
sg8
F61.899999999999999
sg9
F4
sg10
F61.899999999999999
saa(lp1214
V114309
p1215
a(dp1216
g6
F62
sg7
F-0.40000000000000002
sg8
F61.899999999999999
sg9
F1
sg10
F61.899999999999999
saa(lp1217
V114314
p1218
a(dp1219
g6
F62
sg7
F-0.40000000000000002
sg8
F61.899999999999999
sg9
F3
sg10
F61.899999999999999
saa(lp1220
V114319
p1221
a(dp1222
g6
F62
sg7
F-0.40000000000000002
sg8
F61.899999999999999
sg9
F6
sg10
F61.899999999999999
saa(lp1223
V114334
p1224
a(dp1225
g6
F62
sg7
F-0.40000000000000002
sg8
F61.899999999999999
sg9
F1
sg10
F61.899999999999999
saa(lp1226
V114339
p1227
a(dp1228
g6
F62
sg7
F-0.40000000000000002
sg8
F61.899999999999999
sg9
F4
sg10
F61.899999999999999
saa(lp1229
V114349
p1230
a(dp1231
g6
F62
sg7
F-0.40000000000000002
sg8
F61.899999999999999
sg9
F5
sg10
F61.899999999999999
saa(lp1232
V114359
p1233
a(dp1234
g6
F62
sg7
F-0.40000000000000002
sg8
F61.899999999999999
sg9
F10
sg10
F61.899999999999999
saa(lp1235
V114409
p1236
a(dp1237
g6
F62
sg7
F-0.40000000000000002
sg8
F61.899999999999999
sg9
F2
sg10
F61.899999999999999
saa(lp1238
V114419
p1239
a(dp1240
g6
F62
sg7
F-0.40000000000000002
sg8
F61.899999999999999
sg9
F2
sg10
F61.899999999999999
saa(lp1241
V114424
p1242
a(dp1243
g6
F62
sg7
F-0.40000000000000002
sg8
F61.899999999999999
sg9
F2
sg10
F61.899999999999999
saa(lp1244
V114430
p1245
a(dp1246
g6
F62
sg7
F-0.40000000000000002
sg8
F61.899999999999999
sg9
F1
sg10
F61.899999999999999
saa(lp1247
V114435
p1248
a(dp1249
g6
F62
sg7
F-0.40000000000000002
sg8
F61.899999999999999
sg9
F2
sg10
F61.899999999999999
saa(lp1250
V114505
p1251
a(dp1252
g6
F62
sg7
F-0.40000000000000002
sg8
F61.899999999999999
sg9
F3
sg10
F61.899999999999999
saa(lp1253
V114530
p1254
a(dp1255
g6
F62
sg7
F-0.29999999999999999
sg8
F61.899999999999999
sg9
F1
sg10
F62
saa(lp1256
V114631
p1257
a(dp1258
g6
F62
sg7
F-0.29999999999999999
sg8
F61.899999999999999
sg9
F1
sg10
F62
saa(lp1259
V114641
p1260
a(dp1261
g6
F62
sg7
F-0.40000000000000002
sg8
F61.899999999999999
sg9
F1
sg10
F61.899999999999999
saa(lp1262
V114726
p1263
a(dp1264
g6
F62
sg7
F-0.40000000000000002
sg8
F61.899999999999999
sg9
F1
sg10
F61.899999999999999
saa(lp1265
V114836
p1266
a(dp1267
g6
F62
sg7
F-0.40000000000000002
sg8
F61.899999999999999
sg9
F4
sg10
F61.899999999999999
saa(lp1268
V114851
p1269
a(dp1270
g6
F62
sg7
F-0.40000000000000002
sg8
F61.899999999999999
sg9
F1
sg10
F61.899999999999999
saa(lp1271
V114901
p1272
a(dp1273
g6
F62
sg7
F-0.40000000000000002
sg8
F61.899999999999999
sg9
F1
sg10
F61.899999999999999
saa(lp1274
V114921
p1275
a(dp1276
g6
F62
sg7
F-0.40000000000000002
sg8
F61.899999999999999
sg9
F1
sg10
F61.899999999999999
saa(lp1277
V115041
p1278
a(dp1279
g6
F62
sg7
F-0.29999999999999999
sg8
F61.899999999999999
sg9
F1
sg10
F62
saa(lp1280
V115046
p1281
a(dp1282
g6
F62
sg7
F-0.40000000000000002
sg8
F61.899999999999999
sg9
F40
sg10
F61.899999999999999
saa(lp1283
V115112
p1284
a(dp1285
g6
F62
sg7
F-0.40000000000000002
sg8
F61.899999999999999
sg9
F10
sg10
F61.899999999999999
saa(lp1286
V115117
p1287
a(dp1288
g6
F62
sg7
F-0.40000000000000002
sg8
F61.899999999999999
sg9
F2
sg10
F61.899999999999999
saa(lp1289
V115142
p1290
a(dp1291
g6
F62
sg7
F-0.40000000000000002
sg8
F61.899999999999999
sg9
F1
sg10
F61.899999999999999
saa(lp1292
V115212
p1293
a(dp1294
g6
F62
sg7
F-0.40000000000000002
sg8
F61.899999999999999
sg9
F5
sg10
F61.899999999999999
saa(lp1295
V115222
p1296
a(dp1297
g6
F61.899999999999999
sg7
F-0.5
sg8
F61.799999999999997
sg9
F1
sg10
F61.799999999999997
saa(lp1298
V115307
p1299
a(dp1300
g6
F61.899999999999999
sg7
F-0.5
sg8
F61.799999999999997
sg9
F1
sg10
F61.799999999999997
saa(lp1301
V115332
p1302
a(dp1303
g6
F61.899999999999999
sg7
F-0.5
sg8
F61.799999999999997
sg9
F1
sg10
F61.799999999999997
saa(lp1304
V115357
p1305
a(dp1306
g6
F61.899999999999999
sg7
F-0.40000000000000002
sg8
F61.799999999999997
sg9
F4
sg10
F61.899999999999999
saa(lp1307
V115402
p1308
a(dp1309
g6
F61.899999999999999
sg7
F-0.40000000000000002
sg8
F61.799999999999997
sg9
F5
sg10
F61.899999999999999
saa(lp1310
V115432
p1311
a(dp1312
g6
F61.899999999999999
sg7
F-0.40000000000000002
sg8
F61.799999999999997
sg9
F3
sg10
F61.899999999999999
saa(lp1313
V115518
p1314
a(dp1315
g6
F61.899999999999999
sg7
F-0.5
sg8
F61.799999999999997
sg9
F3
sg10
F61.799999999999997
saa(lp1316
V115608
p1317
a(dp1318
g6
F61.899999999999999
sg7
F-0.5
sg8
F61.799999999999997
sg9
F1
sg10
F61.799999999999997
saa(lp1319
V115628
p1320
a(dp1321
g6
F61.899999999999999
sg7
F-0.5
sg8
F61.799999999999997
sg9
F2
sg10
F61.799999999999997
saa(lp1322
V115648
p1323
a(dp1324
g6
F61.899999999999999
sg7
F-0.5
sg8
F61.799999999999997
sg9
F1
sg10
F61.799999999999997
saa(lp1325
V115653
p1326
a(dp1327
g6
F61.899999999999999
sg7
F-0.5
sg8
F61.799999999999997
sg9
F3
sg10
F61.799999999999997
saa(lp1328
V115814
p1329
a(dp1330
g6
F61.899999999999999
sg7
F-0.5
sg8
F61.799999999999997
sg9
F1
sg10
F61.799999999999997
saa(lp1331
V115834
p1332
a(dp1333
g6
F61.899999999999999
sg7
F-0.5
sg8
F61.799999999999997
sg9
F1
sg10
F61.799999999999997
saa(lp1334
V115849
p1335
a(dp1336
g6
F61.899999999999999
sg7
F-0.5
sg8
F61.799999999999997
sg9
F3
sg10
F61.799999999999997
saa(lp1337
V115939
p1338
a(dp1339
g6
F61.899999999999999
sg7
F-0.40000000000000002
sg8
F61.799999999999997
sg9
F10
sg10
F61.899999999999999
saa(lp1340
V115949
p1341
a(dp1342
g6
F61.899999999999999
sg7
F-0.40000000000000002
sg8
F61.799999999999997
sg9
F1
sg10
F61.899999999999999
saa(lp1343
V120004
p1344
a(dp1345
g6
F61.899999999999999
sg7
F-0.40000000000000002
sg8
F61.799999999999997
sg9
F1
sg10
F61.899999999999999
saa(lp1346
V120049
p1347
a(dp1348
g6
F61.899999999999999
sg7
F-0.5
sg8
F61.799999999999997
sg9
F3
sg10
F61.799999999999997
saa(lp1349
V120210
p1350
a(dp1351
g6
F61.899999999999999
sg7
F-0.5
sg8
F61.799999999999997
sg9
F1
sg10
F61.799999999999997
saa(lp1352
V120220
p1353
a(dp1354
g6
F61.899999999999999
sg7
F-0.5
sg8
F61.799999999999997
sg9
F3
sg10
F61.799999999999997
saa(lp1355
V120245
p1356
a(dp1357
g6
F61.899999999999999
sg7
F-0.5
sg8
F61.799999999999997
sg9
F2
sg10
F61.799999999999997
saa(lp1358
V120255
p1359
a(dp1360
g6
F61.899999999999999
sg7
F-0.40000000000000002
sg8
F61.799999999999997
sg9
F2
sg10
F61.899999999999999
saa(lp1361
V120305
p1362
a(dp1363
g6
F61.899999999999999
sg7
F-0.5
sg8
F61.799999999999997
sg9
F1
sg10
F61.799999999999997
saa(lp1364
V120310
p1365
a(dp1366
g6
F61.899999999999999
sg7
F-0.5
sg8
F61.799999999999997
sg9
F1
sg10
F61.799999999999997
saa(lp1367
V120400
p1368
a(dp1369
g6
F61.899999999999999
sg7
F-0.5
sg8
F61.799999999999997
sg9
F1
sg10
F61.799999999999997
saa(lp1370
V120405
p1371
a(dp1372
g6
F61.899999999999999
sg7
F-0.40000000000000002
sg8
F61.799999999999997
sg9
F1
sg10
F61.899999999999999
saa(lp1373
V120430
p1374
a(dp1375
g6
F61.899999999999999
sg7
F-0.5
sg8
F61.799999999999997
sg9
F1
sg10
F61.799999999999997
saa(lp1376
V120435
p1377
a(dp1378
g6
F61.899999999999999
sg7
F-0.5
sg8
F61.799999999999997
sg9
F1
sg10
F61.799999999999997
saa(lp1379
V120521
p1380
a(dp1381
g6
F61.899999999999999
sg7
F-0.5
sg8
F61.799999999999997
sg9
F1
sg10
F61.799999999999997
saa(lp1382
V120526
p1383
a(dp1384
g6
F61.899999999999999
sg7
F-0.5
sg8
F61.799999999999997
sg9
F1
sg10
F61.799999999999997
saa(lp1385
V120636
p1386
a(dp1387
g6
F61.899999999999999
sg7
F-0.5
sg8
F61.799999999999997
sg9
F10
sg10
F61.799999999999997
saa(lp1388
V120651
p1389
a(dp1390
g6
F61.899999999999999
sg7
F-0.5
sg8
F61.799999999999997
sg9
F1
sg10
F61.799999999999997
saa(lp1391
V120656
p1392
a(dp1393
g6
F61.899999999999999
sg7
F-0.40000000000000002
sg8
F61.799999999999997
sg9
F1
sg10
F61.899999999999999
saa(lp1394
V120801
p1395
a(dp1396
g6
F61.899999999999999
sg7
F-0.5
sg8
F61.799999999999997
sg9
F1
sg10
F61.799999999999997
saa(lp1397
V120827
p1398
a(dp1399
g6
F61.899999999999999
sg7
F-0.59999999999999998
sg8
F61.799999999999997
sg9
F35
sg10
F61.700000000000003
saa(lp1400
V120847
p1401
a(dp1402
g6
F61.899999999999999
sg7
F-0.5
sg8
F61.799999999999997
sg9
F2
sg10
F61.799999999999997
saa(lp1403
V120917
p1404
a(dp1405
g6
F61.899999999999999
sg7
F-0.59999999999999998
sg8
F61.700000000000003
sg9
F20
sg10
F61.700000000000003
saa(lp1406
V121022
p1407
a(dp1408
g6
F61.799999999999997
sg7
F-0.59999999999999998
sg8
F61.700000000000003
sg9
F1
sg10
F61.700000000000003
saa(lp1409
V121027
p1410
a(dp1411
g6
F61.799999999999997
sg7
F-0.5
sg8
F61.700000000000003
sg9
F3
sg10
F61.799999999999997
saa(lp1412
V121157
p1413
a(dp1414
g6
F61.799999999999997
sg7
F-0.59999999999999998
sg8
F61.700000000000003
sg9
F10
sg10
F61.700000000000003
saa(lp1415
V121303
p1416
a(dp1417
g6
F61.799999999999997
sg7
F-0.59999999999999998
sg8
F61.700000000000003
sg9
F1
sg10
F61.700000000000003
saa(lp1418
V121313
p1419
a(dp1420
g6
F61.799999999999997
sg7
F-0.59999999999999998
sg8
F61.700000000000003
sg9
F3
sg10
F61.700000000000003
saa(lp1421
V121328
p1422
a(dp1423
g6
F61.799999999999997
sg7
F-0.5
sg8
F61.700000000000003
sg9
F2
sg10
F61.799999999999997
saa(lp1424
V121343
p1425
a(dp1426
g6
F61.799999999999997
sg7
F-0.59999999999999998
sg8
F61.700000000000003
sg9
F2
sg10
F61.700000000000003
saa(lp1427
V121348
p1428
a(dp1429
g6
F61.799999999999997
sg7
F-0.59999999999999998
sg8
F61.700000000000003
sg9
F1
sg10
F61.700000000000003
saa(lp1430
V121413
p1431
a(dp1432
g6
F61.799999999999997
sg7
F-0.5
sg8
F61.700000000000003
sg9
F1
sg10
F61.799999999999997
saa(lp1433
V121418
p1434
a(dp1435
g6
F61.799999999999997
sg7
F-0.5
sg8
F61.700000000000003
sg9
F1
sg10
F61.799999999999997
saa(lp1436
V121518
p1437
a(dp1438
g6
F61.799999999999997
sg7
F-0.5
sg8
F61.700000000000003
sg9
F2
sg10
F61.799999999999997
saa(lp1439
V121549
p1440
a(dp1441
g6
F61.799999999999997
sg7
F-0.59999999999999998
sg8
F61.700000000000003
sg9
F1
sg10
F61.700000000000003
saa(lp1442
V121734
p1443
a(dp1444
g6
F61.799999999999997
sg7
F-0.59999999999999998
sg8
F61.700000000000003
sg9
F1
sg10
F61.700000000000003
saa(lp1445
V121749
p1446
a(dp1447
g6
F61.799999999999997
sg7
F-0.59999999999999998
sg8
F61.700000000000003
sg9
F2
sg10
F61.700000000000003
saa(lp1448
V121819
p1449
a(dp1450
g6
F61.799999999999997
sg7
F-0.59999999999999998
sg8
F61.700000000000003
sg9
F2
sg10
F61.700000000000003
saa(lp1451
V121834
p1452
a(dp1453
g6
F61.799999999999997
sg7
F-0.59999999999999998
sg8
F61.700000000000003
sg9
F6
sg10
F61.700000000000003
saa(lp1454
V121839
p1455
a(dp1456
g6
F61.799999999999997
sg7
F-0.59999999999999998
sg8
F61.700000000000003
sg9
F1
sg10
F61.700000000000003
saa(lp1457
V121929
p1458
a(dp1459
g6
F61.799999999999997
sg7
F-0.59999999999999998
sg8
F61.700000000000003
sg9
F4
sg10
F61.700000000000003
saa(lp1460
V122004
p1461
a(dp1462
g6
F61.799999999999997
sg7
F-0.59999999999999998
sg8
F61.700000000000003
sg9
F1
sg10
F61.700000000000003
saa(lp1463
V122055
p1464
a(dp1465
g6
F61.799999999999997
sg7
F-0.59999999999999998
sg8
F61.700000000000003
sg9
F9
sg10
F61.700000000000003
saa(lp1466
V122105
p1467
a(dp1468
g6
F61.799999999999997
sg7
F-0.59999999999999998
sg8
F61.700000000000003
sg9
F1
sg10
F61.700000000000003
saa(lp1469
V122120
p1470
a(dp1471
g6
F61.799999999999997
sg7
F-0.59999999999999998
sg8
F61.700000000000003
sg9
F5
sg10
F61.700000000000003
saa(lp1472
V122145
p1473
a(dp1474
g6
F61.799999999999997
sg7
F-0.59999999999999998
sg8
F61.700000000000003
sg9
F1
sg10
F61.700000000000003
saa(lp1475
V122200
p1476
a(dp1477
g6
F61.799999999999997
sg7
F-0.5
sg8
F61.700000000000003
sg9
F1
sg10
F61.799999999999997
saa(lp1478
V122220
p1479
a(dp1480
g6
F61.799999999999997
sg7
F-0.59999999999999998
sg8
F61.700000000000003
sg9
F1
sg10
F61.700000000000003
saa(lp1481
V122225
p1482
a(dp1483
g6
F61.799999999999997
sg7
F-0.59999999999999998
sg8
F61.700000000000003
sg9
F1
sg10
F61.700000000000003
saa(lp1484
V122235
p1485
a(dp1486
g6
F61.799999999999997
sg7
F-0.59999999999999998
sg8
F61.700000000000003
sg9
F1
sg10
F61.700000000000003
saa(lp1487
V122250
p1488
a(dp1489
g6
F61.799999999999997
sg7
F-0.59999999999999998
sg8
F61.700000000000003
sg9
F2
sg10
F61.700000000000003
saa(lp1490
V122255
p1491
a(dp1492
g6
F61.799999999999997
sg7
F-0.59999999999999998
sg8
F61.700000000000003
sg9
F1
sg10
F61.700000000000003
saa(lp1493
V122300
p1494
a(dp1495
g6
F61.799999999999997
sg7
F-0.5
sg8
F61.700000000000003
sg9
F1
sg10
F61.799999999999997
saa(lp1496
V122416
p1497
a(dp1498
g6
F61.799999999999997
sg7
F-0.5
sg8
F61.700000000000003
sg9
F5
sg10
F61.799999999999997
saa(lp1499
V122426
p1500
a(dp1501
g6
F61.799999999999997
sg7
F-0.5
sg8
F61.700000000000003
sg9
F2
sg10
F61.799999999999997
saa(lp1502
V122501
p1503
a(dp1504
g6
F61.799999999999997
sg7
F-0.5
sg8
F61.700000000000003
sg9
F1
sg10
F61.799999999999997
saa(lp1505
V122547
p1506
a(dp1507
g6
F61.799999999999997
sg7
F-0.59999999999999998
sg8
F61.700000000000003
sg9
F1
sg10
F61.700000000000003
saa(lp1508
V122602
p1509
a(dp1510
g6
F61.799999999999997
sg7
F-0.59999999999999998
sg8
F61.700000000000003
sg9
F5
sg10
F61.700000000000003
saa(lp1511
V122607
p1512
a(dp1513
g6
F61.799999999999997
sg7
F-0.5
sg8
F61.700000000000003
sg9
F1
sg10
F61.799999999999997
saa(lp1514
V122617
p1515
a(dp1516
g6
F61.799999999999997
sg7
F-0.5
sg8
F61.700000000000003
sg9
F1
sg10
F61.799999999999997
saa(lp1517
V122727
p1518
a(dp1519
g6
F61.799999999999997
sg7
F-0.5
sg8
F61.700000000000003
sg9
F1
sg10
F61.799999999999997
saa(lp1520
V122747
p1521
a(dp1522
g6
F61.799999999999997
sg7
F-0.5
sg8
F61.700000000000003
sg9
F1
sg10
F61.799999999999997
saa(lp1523
V122802
p1524
a(dp1525
g6
F61.799999999999997
sg7
F-0.5
sg8
F61.700000000000003
sg9
F1
sg10
F61.799999999999997
saa(lp1526
V122807
p1527
a(dp1528
g6
F61.799999999999997
sg7
F-0.59999999999999998
sg8
F61.700000000000003
sg9
F2
sg10
F61.700000000000003
saa(lp1529
V122822
p1530
a(dp1531
g6
F61.799999999999997
sg7
F-0.59999999999999998
sg8
F61.700000000000003
sg9
F1
sg10
F61.700000000000003
saa(lp1532
V122852
p1533
a(dp1534
g6
F61.799999999999997
sg7
F-0.5
sg8
F61.700000000000003
sg9
F1
sg10
F61.799999999999997
saa(lp1535
V122857
p1536
a(dp1537
g6
F61.799999999999997
sg7
F-0.5
sg8
F61.700000000000003
sg9
F1
sg10
F61.799999999999997
saa(lp1538
V122917
p1539
a(dp1540
g6
F61.799999999999997
sg7
F-0.59999999999999998
sg8
F61.700000000000003
sg9
F1
sg10
F61.700000000000003
saa(lp1541
V123053
p1542
a(dp1543
g6
F61.799999999999997
sg7
F-0.59999999999999998
sg8
F61.700000000000003
sg9
F2
sg10
F61.700000000000003
saa(lp1544
V123058
p1545
a(dp1546
g6
F61.799999999999997
sg7
F-0.59999999999999998
sg8
F61.700000000000003
sg9
F1
sg10
F61.700000000000003
saa(lp1547
V123103
p1548
a(dp1549
g6
F61.799999999999997
sg7
F-0.59999999999999998
sg8
F61.700000000000003
sg9
F1
sg10
F61.700000000000003
saa(lp1550
V123123
p1551
a(dp1552
g6
F61.799999999999997
sg7
F-0.5
sg8
F61.700000000000003
sg9
F1
sg10
F61.799999999999997
saa(lp1553
V123148
p1554
a(dp1555
g6
F61.799999999999997
sg7
F-0.5
sg8
F61.700000000000003
sg9
F1
sg10
F61.799999999999997
saa(lp1556
V123153
p1557
a(dp1558
g6
F61.799999999999997
sg7
F-0.59999999999999998
sg8
F61.700000000000003
sg9
F1
sg10
F61.700000000000003
saa(lp1559
V123203
p1560
a(dp1561
g6
F61.799999999999997
sg7
F-0.5
sg8
F61.700000000000003
sg9
F1
sg10
F61.799999999999997
saa(lp1562
V123208
p1563
a(dp1564
g6
F61.799999999999997
sg7
F-0.59999999999999998
sg8
F61.700000000000003
sg9
F1
sg10
F61.700000000000003
saa(lp1565
V123253
p1566
a(dp1567
g6
F61.799999999999997
sg7
F-0.59999999999999998
sg8
F61.700000000000003
sg9
F5
sg10
F61.700000000000003
saa(lp1568
V123358
p1569
a(dp1570
g6
F61.799999999999997
sg7
F-0.5
sg8
F61.700000000000003
sg9
F4
sg10
F61.799999999999997
saa(lp1571
V123418
p1572
a(dp1573
g6
F61.799999999999997
sg7
F-0.5
sg8
F61.700000000000003
sg9
F1
sg10
F61.799999999999997
saa(lp1574
V123433
p1575
a(dp1576
g6
F61.799999999999997
sg7
F-0.59999999999999998
sg8
F61.700000000000003
sg9
F1
sg10
F61.700000000000003
saa(lp1577
V123614
p1578
a(dp1579
g6
F61.799999999999997
sg7
F-0.5
sg8
F61.700000000000003
sg9
F1
sg10
F61.799999999999997
saa(lp1580
V123644
p1581
a(dp1582
g6
F61.799999999999997
sg7
F-0.5
sg8
F61.700000000000003
sg9
F10
sg10
F61.799999999999997
saa(lp1583
V123654
p1584
a(dp1585
g6
F61.799999999999997
sg7
F-0.5
sg8
F61.700000000000003
sg9
F1
sg10
F61.799999999999997
saa(lp1586
V123709
p1587
a(dp1588
g6
F61.799999999999997
sg7
F-0.5
sg8
F61.700000000000003
sg9
F1
sg10
F61.799999999999997
saa(lp1589
V123719
p1590
a(dp1591
g6
F61.799999999999997
sg7
F-0.5
sg8
F61.700000000000003
sg9
F2
sg10
F61.799999999999997
saa(lp1592
V123724
p1593
a(dp1594
g6
F61.799999999999997
sg7
F-0.5
sg8
F61.700000000000003
sg9
F3
sg10
F61.799999999999997
saa(lp1595
V123734
p1596
a(dp1597
g6
F61.799999999999997
sg7
F-0.5
sg8
F61.700000000000003
sg9
F1
sg10
F61.799999999999997
saa(lp1598
V123739
p1599
a(dp1600
g6
F61.799999999999997
sg7
F-0.5
sg8
F61.700000000000003
sg9
F1
sg10
F61.799999999999997
saa(lp1601
V123835
p1602
a(dp1603
g6
F61.899999999999999
sg7
F-0.5
sg8
F61.799999999999997
sg9
F15
sg10
F61.799999999999997
saa(lp1604
V123845
p1605
a(dp1606
g6
F61.799999999999997
sg7
F-0.5
sg8
F61.700000000000003
sg9
F1
sg10
F61.799999999999997
saa(lp1607
V123900
p1608
a(dp1609
g6
F61.899999999999999
sg7
F-0.5
sg8
F61.799999999999997
sg9
F1
sg10
F61.799999999999997
saa(lp1610
V123915
p1611
a(dp1612
g6
F61.899999999999999
sg7
F-0.5
sg8
F61.799999999999997
sg9
F1
sg10
F61.799999999999997
saa(lp1613
V124025
p1614
a(dp1615
g6
F61.799999999999997
sg7
F-0.59999999999999998
sg8
F61.700000000000003
sg9
F8
sg10
F61.700000000000003
saa(lp1616
V124226
p1617
a(dp1618
g6
F61.799999999999997
sg7
F-0.59999999999999998
sg8
F61.700000000000003
sg9
F1
sg10
F61.700000000000003
saa(lp1619
V124251
p1620
a(dp1621
g6
F61.799999999999997
sg7
F-0.59999999999999998
sg8
F61.700000000000003
sg9
F1
sg10
F61.700000000000003
saa(lp1622
V124311
p1623
a(dp1624
g6
F61.799999999999997
sg7
F-0.59999999999999998
sg8
F61.700000000000003
sg9
F1
sg10
F61.700000000000003
saa(lp1625
V124321
p1626
a(dp1627
g6
F61.799999999999997
sg7
F-0.5
sg8
F61.700000000000003
sg9
F2
sg10
F61.799999999999997
saa(lp1628
V124547
p1629
a(dp1630
g6
F61.799999999999997
sg7
F-0.5
sg8
F61.700000000000003
sg9
F1
sg10
F61.799999999999997
saa(lp1631
V124612
p1632
a(dp1633
g6
F61.799999999999997
sg7
F-0.5
sg8
F61.700000000000003
sg9
F1
sg10
F61.799999999999997
saa(lp1634
V124627
p1635
a(dp1636
g6
F61.799999999999997
sg7
F-0.5
sg8
F61.700000000000003
sg9
F1
sg10
F61.799999999999997
saa(lp1637
V124657
p1638
a(dp1639
g6
F61.799999999999997
sg7
F-0.5
sg8
F61.700000000000003
sg9
F1
sg10
F61.799999999999997
saa(lp1640
V124732
p1641
a(dp1642
g6
F61.799999999999997
sg7
F-0.59999999999999998
sg8
F61.700000000000003
sg9
F1
sg10
F61.700000000000003
saa(lp1643
V124817
p1644
a(dp1645
g6
F61.799999999999997
sg7
F-0.5
sg8
F61.700000000000003
sg9
F5
sg10
F61.799999999999997
saa(lp1646
V124903
p1647
a(dp1648
g6
F61.799999999999997
sg7
F-0.5
sg8
F61.700000000000003
sg9
F1
sg10
F61.799999999999997
saa(lp1649
V124933
p1650
a(dp1651
g6
F61.799999999999997
sg7
F-0.5
sg8
F61.700000000000003
sg9
F2
sg10
F61.799999999999997
saa(lp1652
V124938
p1653
a(dp1654
g6
F61.799999999999997
sg7
F-0.5
sg8
F61.700000000000003
sg9
F1
sg10
F61.799999999999997
saa(lp1655
V124948
p1656
a(dp1657
g6
F61.799999999999997
sg7
F-0.5
sg8
F61.700000000000003
sg9
F1
sg10
F61.799999999999997
saa(lp1658
V125018
p1659
a(dp1660
g6
F61.799999999999997
sg7
F-0.5
sg8
F61.700000000000003
sg9
F1
sg10
F61.799999999999997
saa(lp1661
V125038
p1662
a(dp1663
g6
F61.799999999999997
sg7
F-0.5
sg8
F61.700000000000003
sg9
F5
sg10
F61.799999999999997
saa(lp1664
V125203
p1665
a(dp1666
g6
F61.799999999999997
sg7
F-0.5
sg8
F61.700000000000003
sg9
F1
sg10
F61.799999999999997
saa(lp1667
V125208
p1668
a(dp1669
g6
F61.799999999999997
sg7
F-0.5
sg8
F61.700000000000003
sg9
F1
sg10
F61.799999999999997
saa(lp1670
V125223
p1671
a(dp1672
g6
F61.799999999999997
sg7
F-0.5
sg8
F61.700000000000003
sg9
F4
sg10
F61.799999999999997
saa(lp1673
V125233
p1674
a(dp1675
g6
F61.799999999999997
sg7
F-0.5
sg8
F61.700000000000003
sg9
F1
sg10
F61.799999999999997
saa(lp1676
V125238
p1677
a(dp1678
g6
F61.799999999999997
sg7
F-0.59999999999999998
sg8
F61.700000000000003
sg9
F1
sg10
F61.700000000000003
saa(lp1679
V125354
p1680
a(dp1681
g6
F61.799999999999997
sg7
F-0.59999999999999998
sg8
F61.700000000000003
sg9
F2
sg10
F61.700000000000003
saa(lp1682
V125404
p1683
a(dp1684
g6
F61.799999999999997
sg7
F-0.5
sg8
F61.700000000000003
sg9
F15
sg10
F61.799999999999997
saa(lp1685
V125434
p1686
a(dp1687
g6
F61.799999999999997
sg7
F-0.5
sg8
F61.700000000000003
sg9
F1
sg10
F61.799999999999997
saa(lp1688
V125439
p1689
a(dp1690
g6
F61.799999999999997
sg7
F-0.5
sg8
F61.700000000000003
sg9
F1
sg10
F61.799999999999997
saa(lp1691
V125449
p1692
a(dp1693
g6
F61.799999999999997
sg7
F-0.5
sg8
F61.700000000000003
sg9
F1
sg10
F61.799999999999997
saa(lp1694
V125459
p1695
a(dp1696
g6
F61.799999999999997
sg7
F-0.59999999999999998
sg8
F61.700000000000003
sg9
F1
sg10
F61.700000000000003
saa(lp1697
V125509
p1698
a(dp1699
g6
F61.799999999999997
sg7
F-0.5
sg8
F61.700000000000003
sg9
F2
sg10
F61.799999999999997
saa(lp1700
V125514
p1701
a(dp1702
g6
F61.799999999999997
sg7
F-0.5
sg8
F61.700000000000003
sg9
F2
sg10
F61.799999999999997
saa(lp1703
V125524
p1704
a(dp1705
g6
F61.799999999999997
sg7
F-0.59999999999999998
sg8
F61.700000000000003
sg9
F1
sg10
F61.700000000000003
saa(lp1706
V125550
p1707
a(dp1708
g6
F61.799999999999997
sg7
F-0.5
sg8
F61.700000000000003
sg9
F1
sg10
F61.799999999999997
saa(lp1709
V125555
p1710
a(dp1711
g6
F61.799999999999997
sg7
F-0.5
sg8
F61.700000000000003
sg9
F2
sg10
F61.799999999999997
saa(lp1712
V125630
p1713
a(dp1714
g6
F61.799999999999997
sg7
F-0.5
sg8
F61.700000000000003
sg9
F2
sg10
F61.799999999999997
saa(lp1715
V125635
p1716
a(dp1717
g6
F61.799999999999997
sg7
F-0.5
sg8
F61.700000000000003
sg9
F2
sg10
F61.799999999999997
saa(lp1718
V125640
p1719
a(dp1720
g6
F61.799999999999997
sg7
F-0.5
sg8
F61.700000000000003
sg9
F1
sg10
F61.799999999999997
saa(lp1721
V125645
p1722
a(dp1723
g6
F61.799999999999997
sg7
F-0.5
sg8
F61.700000000000003
sg9
F1
sg10
F61.799999999999997
saa(lp1724
V125655
p1725
a(dp1726
g6
F61.799999999999997
sg7
F-0.5
sg8
F61.700000000000003
sg9
F1
sg10
F61.799999999999997
saa(lp1727
V125715
p1728
a(dp1729
g6
F61.799999999999997
sg7
F-0.5
sg8
F61.700000000000003
sg9
F1
sg10
F61.799999999999997
saa(lp1730
V125720
p1731
a(dp1732
g6
F61.799999999999997
sg7
F-0.5
sg8
F61.700000000000003
sg9
F4
sg10
F61.799999999999997
saa(lp1733
V125745
p1734
a(dp1735
g6
F61.799999999999997
sg7
F-0.5
sg8
F61.700000000000003
sg9
F1
sg10
F61.799999999999997
saa(lp1736
V125810
p1737
a(dp1738
g6
F61.799999999999997
sg7
F-0.5
sg8
F61.700000000000003
sg9
F1
sg10
F61.799999999999997
saa(lp1739
V125815
p1740
a(dp1741
g6
F61.799999999999997
sg7
F-0.5
sg8
F61.700000000000003
sg9
F2
sg10
F61.799999999999997
saa(lp1742
V125855
p1743
a(dp1744
g6
F61.799999999999997
sg7
F-0.5
sg8
F61.700000000000003
sg9
F3
sg10
F61.799999999999997
saa(lp1745
V125905
p1746
a(dp1747
g6
F61.799999999999997
sg7
F-0.5
sg8
F61.700000000000003
sg9
F1
sg10
F61.799999999999997
saa(lp1748
V125910
p1749
a(dp1750
g6
F61.799999999999997
sg7
F-0.5
sg8
F61.700000000000003
sg9
F2
sg10
F61.799999999999997
saa(lp1751
V125915
p1752
a(dp1753
g6
F61.799999999999997
sg7
F-0.5
sg8
F61.700000000000003
sg9
F1
sg10
F61.799999999999997
saa(lp1754
V125920
p1755
a(dp1756
g6
F61.799999999999997
sg7
F-0.5
sg8
F61.700000000000003
sg9
F2
sg10
F61.799999999999997
saa(lp1757
V125925
p1758
a(dp1759
g6
F61.899999999999999
sg7
F-0.5
sg8
F61.700000000000003
sg9
F1
sg10
F61.799999999999997
saa(lp1760
V125935
p1761
a(dp1762
g6
F61.799999999999997
sg7
F-0.5
sg8
F61.700000000000003
sg9
F1
sg10
F61.799999999999997
saa(lp1763
V125940
p1764
a(dp1765
g6
F61.799999999999997
sg7
F-0.5
sg8
F61.700000000000003
sg9
F1
sg10
F61.799999999999997
saa(lp1766
V130006
p1767
a(dp1768
g6
F61.799999999999997
sg7
F-0.5
sg8
F61.700000000000003
sg9
F1
sg10
F61.799999999999997
saa(lp1769
V130021
p1770
a(dp1771
g6
F61.799999999999997
sg7
F-0.5
sg8
F61.700000000000003
sg9
F1
sg10
F61.799999999999997
saa(lp1772
V130036
p1773
a(dp1774
g6
F61.799999999999997
sg7
F-0.5
sg8
F61.700000000000003
sg9
F1
sg10
F61.799999999999997
saa(lp1775
V130041
p1776
a(dp1777
g6
F61.799999999999997
sg7
F-0.5
sg8
F61.700000000000003
sg9
F1
sg10
F61.799999999999997
saa(lp1778
V130046
p1779
a(dp1780
g6
F61.799999999999997
sg7
F-0.5
sg8
F61.700000000000003
sg9
F1
sg10
F61.799999999999997
saa(lp1781
V130056
p1782
a(dp1783
g6
F61.799999999999997
sg7
F-0.59999999999999998
sg8
F61.700000000000003
sg9
F70
sg10
F61.700000000000003
saa(lp1784
V130106
p1785
a(dp1786
g6
F61.799999999999997
sg7
F-0.5
sg8
F61.600000000000001
sg9
F3
sg10
F61.799999999999997
saa(lp1787
V130111
p1788
a(dp1789
g6
F61.799999999999997
sg7
F-0.69999999999999996
sg8
F61.600000000000001
sg9
F1
sg10
F61.600000000000001
saa(lp1790
V130126
p1791
a(dp1792
g6
F61.799999999999997
sg7
F-0.59999999999999998
sg8
F61.700000000000003
sg9
F2
sg10
F61.700000000000003
saa(lp1793
V130146
p1794
a(dp1795
g6
F61.799999999999997
sg7
F-0.59999999999999998
sg8
F61.700000000000003
sg9
F1
sg10
F61.700000000000003
saa(lp1796
V130306
p1797
a(dp1798
g6
F61.799999999999997
sg7
F-0.59999999999999998
sg8
F61.700000000000003
sg9
F1
sg10
F61.700000000000003
saa(lp1799
V130316
p1800
a(dp1801
g6
F61.799999999999997
sg7
F-0.59999999999999998
sg8
F61.700000000000003
sg9
F2
sg10
F61.700000000000003
saa(lp1802
V130346
p1803
a(dp1804
g6
F61.799999999999997
sg7
F-0.59999999999999998
sg8
F61.700000000000003
sg9
F3
sg10
F61.700000000000003
saa(lp1805
V130412
p1806
a(dp1807
g6
F61.799999999999997
sg7
F-0.5
sg8
F61.700000000000003
sg9
F5
sg10
F61.799999999999997
saa(lp1808
V130417
p1809
a(dp1810
g6
F61.799999999999997
sg7
F-0.59999999999999998
sg8
F61.700000000000003
sg9
F20
sg10
F61.700000000000003
saa(lp1811
V130422
p1812
a(dp1813
g6
F61.799999999999997
sg7
F-0.59999999999999998
sg8
F61.700000000000003
sg9
F3
sg10
F61.700000000000003
saa(lp1814
V130442
p1815
a(dp1816
g6
F61.799999999999997
sg7
F-0.59999999999999998
sg8
F61.700000000000003
sg9
F1
sg10
F61.700000000000003
saa(lp1817
V130502
p1818
a(dp1819
g6
F61.799999999999997
sg7
F-0.5
sg8
F61.700000000000003
sg9
F2
sg10
F61.799999999999997
saa(lp1820
V130512
p1821
a(dp1822
g6
F61.799999999999997
sg7
F-0.59999999999999998
sg8
F61.700000000000003
sg9
F6
sg10
F61.700000000000003
saa(lp1823
V130517
p1824
a(dp1825
g6
F61.799999999999997
sg7
F-0.59999999999999998
sg8
F61.700000000000003
sg9
F1
sg10
F61.700000000000003
saa(lp1826
V130618
p1827
a(dp1828
g6
F61.799999999999997
sg7
F-0.59999999999999998
sg8
F61.700000000000003
sg9
F1
sg10
F61.700000000000003
saa(lp1829
V130643
p1830
a(dp1831
g6
F61.799999999999997
sg7
F-0.5
sg8
F61.700000000000003
sg9
F5
sg10
F61.799999999999997
saa(lp1832
V130708
p1833
a(dp1834
g6
F61.799999999999997
sg7
F-0.59999999999999998
sg8
F61.700000000000003
sg9
F1
sg10
F61.700000000000003
saa(lp1835
V130738
p1836
a(dp1837
g6
F61.799999999999997
sg7
F-0.5
sg8
F61.700000000000003
sg9
F2
sg10
F61.799999999999997
saa(lp1838
V130743
p1839
a(dp1840
g6
F61.799999999999997
sg7
F-0.59999999999999998
sg8
F61.700000000000003
sg9
F1
sg10
F61.700000000000003
saa(lp1841
V130753
p1842
a(dp1843
g6
F61.799999999999997
sg7
F-0.5
sg8
F61.700000000000003
sg9
F1
sg10
F61.799999999999997
saa(lp1844
V130823
p1845
a(dp1846
g6
F61.799999999999997
sg7
F-0.59999999999999998
sg8
F61.700000000000003
sg9
F1
sg10
F61.700000000000003
saa(lp1847
V130828
p1848
a(dp1849
g6
F61.799999999999997
sg7
F-0.5
sg8
F61.700000000000003
sg9
F1
sg10
F61.799999999999997
saa(lp1850
V130903
p1851
a(dp1852
g6
F61.799999999999997
sg7
F-0.5
sg8
F61.700000000000003
sg9
F1
sg10
F61.799999999999997
saa(lp1853
V130923
p1854
a(dp1855
g6
F61.799999999999997
sg7
F-0.59999999999999998
sg8
F61.700000000000003
sg9
F10
sg10
F61.700000000000003
saa(lp1856
V130933
p1857
a(dp1858
g6
F61.799999999999997
sg7
F-0.59999999999999998
sg8
F61.700000000000003
sg9
F1
sg10
F61.700000000000003
saa(lp1859
V131018
p1860
a(dp1861
g6
F61.799999999999997
sg7
F-0.59999999999999998
sg8
F61.700000000000003
sg9
F1
sg10
F61.700000000000003
saa(lp1862
V131039
p1863
a(dp1864
g6
F61.799999999999997
sg7
F-0.5
sg8
F61.700000000000003
sg9
F5
sg10
F61.799999999999997
saa(lp1865
V131059
p1866
a(dp1867
g6
F61.799999999999997
sg7
F-0.5
sg8
F61.700000000000003
sg9
F1
sg10
F61.799999999999997
saa(lp1868
V131104
p1869
a(dp1870
g6
F61.799999999999997
sg7
F-0.5
sg8
F61.700000000000003
sg9
F1
sg10
F61.799999999999997
saa(lp1871
V131109
p1872
a(dp1873
g6
F61.799999999999997
sg7
F-0.5
sg8
F61.700000000000003
sg9
F2
sg10
F61.799999999999997
saa(lp1874
V131129
p1875
a(dp1876
g6
F61.799999999999997
sg7
F-0.59999999999999998
sg8
F61.700000000000003
sg9
F8
sg10
F61.700000000000003
saa(lp1877
V131134
p1878
a(dp1879
g6
F61.700000000000003
sg7
F-0.59999999999999998
sg8
F61.600000000000001
sg9
F1
sg10
F61.700000000000003
saa(lp1880
V131154
p1881
a(dp1882
g6
F61.700000000000003
sg7
F-0.69999999999999996
sg8
F61.600000000000001
sg9
F1
sg10
F61.600000000000001
saa(lp1883
V131219
p1884
a(dp1885
g6
F61.700000000000003
sg7
F-0.59999999999999998
sg8
F61.600000000000001
sg9
F2
sg10
F61.700000000000003
saa(lp1886
V131234
p1887
a(dp1888
g6
F61.700000000000003
sg7
F-0.59999999999999998
sg8
F61.600000000000001
sg9
F13
sg10
F61.700000000000003
saa(lp1889
V131244
p1890
a(dp1891
g6
F61.700000000000003
sg7
F-0.59999999999999998
sg8
F61.600000000000001
sg9
F10
sg10
F61.700000000000003
saa(lp1892
V131249
p1893
a(dp1894
g6
F61.700000000000003
sg7
F-0.69999999999999996
sg8
F61.600000000000001
sg9
F3
sg10
F61.600000000000001
saa(lp1895
V131309
p1896
a(dp1897
g6
F61.700000000000003
sg7
F-0.59999999999999998
sg8
F61.600000000000001
sg9
F2
sg10
F61.700000000000003
saa(lp1898
V131314
p1899
a(dp1900
g6
F61.700000000000003
sg7
F-0.59999999999999998
sg8
F61.600000000000001
sg9
F7
sg10
F61.700000000000003
saa(lp1901
V131319
p1902
a(dp1903
g6
F61.700000000000003
sg7
F-0.59999999999999998
sg8
F61.600000000000001
sg9
F2
sg10
F61.700000000000003
saa(lp1904
V131324
p1905
a(dp1906
g6
F61.700000000000003
sg7
F-0.59999999999999998
sg8
F61.600000000000001
sg9
F1
sg10
F61.700000000000003
saa(lp1907
V131414
p1908
a(dp1909
g6
F61.799999999999997
sg7
F-0.5
sg8
F61.700000000000003
sg9
F2
sg10
F61.799999999999997
saa(lp1910
V131429
p1911
a(dp1912
g6
F61.799999999999997
sg7
F-0.5
sg8
F61.700000000000003
sg9
F5
sg10
F61.799999999999997
saa(lp1913
V131434
p1914
a(dp1915
g6
F61.799999999999997
sg7
F-0.5
sg8
F61.700000000000003
sg9
F1
sg10
F61.799999999999997
saa(lp1916
V131439
p1917
a(dp1918
g6
F61.799999999999997
sg7
F-0.59999999999999998
sg8
F61.700000000000003
sg9
F2
sg10
F61.700000000000003
saa(lp1919
V131444
p1920
a(dp1921
g6
F61.799999999999997
sg7
F-0.5
sg8
F61.700000000000003
sg9
F1
sg10
F61.799999999999997
saa(lp1922
V131449
p1923
a(dp1924
g6
F61.799999999999997
sg7
F-0.5
sg8
F61.700000000000003
sg9
F1
sg10
F61.799999999999997
saa(lp1925
V131455
p1926
a(dp1927
g6
F61.899999999999999
sg7
F-0.5
sg8
F61.799999999999997
sg9
F1
sg10
F61.799999999999997
saa(lp1928
V131505
p1929
a(dp1930
g6
F61.899999999999999
sg7
F-0.5
sg8
F61.799999999999997
sg9
F1
sg10
F61.799999999999997
saa(lp1931
V131540
p1932
a(dp1933
g6
F61.899999999999999
sg7
F-0.5
sg8
F61.799999999999997
sg9
F1
sg10
F61.799999999999997
saa(lp1934
V131625
p1935
a(dp1936
g6
F61.899999999999999
sg7
F-0.5
sg8
F61.799999999999997
sg9
F1
sg10
F61.799999999999997
saa(lp1937
V131630
p1938
a(dp1939
g6
F61.899999999999999
sg7
F-0.5
sg8
F61.799999999999997
sg9
F1
sg10
F61.799999999999997
saa(lp1940
V131635
p1941
a(dp1942
g6
F61.899999999999999
sg7
F-0.5
sg8
F61.799999999999997
sg9
F2
sg10
F61.799999999999997
saa(lp1943
V131645
p1944
a(dp1945
g6
F61.899999999999999
sg7
F-0.40000000000000002
sg8
F61.799999999999997
sg9
F5
sg10
F61.899999999999999
saa(lp1946
V131706
p1947
a(dp1948
g6
F61.899999999999999
sg7
F-0.5
sg8
F61.799999999999997
sg9
F5
sg10
F61.799999999999997
saa(lp1949
V131716
p1950
a(dp1951
g6
F61.899999999999999
sg7
F-0.40000000000000002
sg8
F61.799999999999997
sg9
F10
sg10
F61.899999999999999
saa(lp1952
V131736
p1953
a(dp1954
g6
F61.899999999999999
sg7
F-0.40000000000000002
sg8
F61.799999999999997
sg9
F1
sg10
F61.899999999999999
saa(lp1955
V131821
p1956
a(dp1957
g6
F61.899999999999999
sg7
F-0.40000000000000002
sg8
F61.799999999999997
sg9
F10
sg10
F61.899999999999999
saa(lp1958
V131826
p1959
a(dp1960
g6
F61.899999999999999
sg7
F-0.5
sg8
F61.799999999999997
sg9
F1
sg10
F61.799999999999997
saa(lp1961
V131841
p1962
a(dp1963
g6
F61.899999999999999
sg7
F-0.5
sg8
F61.799999999999997
sg9
F1
sg10
F61.799999999999997
saa(lp1964
V131851
p1965
a(dp1966
g6
F61.899999999999999
sg7
F-0.40000000000000002
sg8
F61.799999999999997
sg9
F1
sg10
F61.899999999999999
saa(lp1967
V131941
p1968
a(dp1969
g6
F61.899999999999999
sg7
F-0.40000000000000002
sg8
F61.799999999999997
sg9
F5
sg10
F61.899999999999999
saa(lp1970
V131946
p1971
a(dp1972
g6
F61.899999999999999
sg7
F-0.40000000000000002
sg8
F61.799999999999997
sg9
F1
sg10
F61.899999999999999
saa(lp1973
V131951
p1974
a(dp1975
g6
F61.899999999999999
sg7
F-0.5
sg8
F61.799999999999997
sg9
F1
sg10
F61.799999999999997
saa(lp1976
V131956
p1977
a(dp1978
g6
F61.899999999999999
sg7
F-0.40000000000000002
sg8
F61.799999999999997
sg9
F5
sg10
F61.899999999999999
saa(lp1979
V132016
p1980
a(dp1981
g6
F61.899999999999999
sg7
F-0.5
sg8
F61.799999999999997
sg9
F20
sg10
F61.799999999999997
saa(lp1982
V132026
p1983
a(dp1984
g6
F61.899999999999999
sg7
F-0.40000000000000002
sg8
F61.799999999999997
sg9
F2
sg10
F61.899999999999999
saa(lp1985
V132031
p1986
a(dp1987
g6
F61.899999999999999
sg7
F-0.5
sg8
F61.799999999999997
sg9
F1
sg10
F61.799999999999997
saa(lp1988
V132036
p1989
a(dp1990
g6
F61.899999999999999
sg7
F-0.5
sg8
F61.799999999999997
sg9
F1
sg10
F61.799999999999997
saa(lp1991
V132046
p1992
a(dp1993
g6
F61.799999999999997
sg7
F-0.5
sg8
F61.700000000000003
sg9
F1
sg10
F61.799999999999997
saa(lp1994
V132106
p1995
a(dp1996
g6
F61.799999999999997
sg7
F-0.5
sg8
F61.700000000000003
sg9
F2
sg10
F61.799999999999997
saa(lp1997
V132111
p1998
a(dp1999
g6
F61.799999999999997
sg7
F-0.5
sg8
F61.700000000000003
sg9
F1
sg10
F61.799999999999997
saa(lp2000
V132116
p2001
a(dp2002
g6
F61.799999999999997
sg7
F-0.5
sg8
F61.700000000000003
sg9
F1
sg10
F61.799999999999997
saa(lp2003
V132132
p2004
a(dp2005
g6
F61.799999999999997
sg7
F-0.5
sg8
F61.700000000000003
sg9
F11
sg10
F61.799999999999997
saa(lp2006
V132137
p2007
a(dp2008
g6
F61.799999999999997
sg7
F-0.5
sg8
F61.700000000000003
sg9
F5
sg10
F61.799999999999997
saa(lp2009
V132147
p2010
a(dp2011
g6
F61.799999999999997
sg7
F-0.5
sg8
F61.700000000000003
sg9
F2
sg10
F61.799999999999997
saa(lp2012
V132212
p2013
a(dp2014
g6
F61.799999999999997
sg7
F-0.59999999999999998
sg8
F61.700000000000003
sg9
F6
sg10
F61.700000000000003
saa(lp2015
V132217
p2016
a(dp2017
g6
F61.799999999999997
sg7
F-0.59999999999999998
sg8
F61.700000000000003
sg9
F30
sg10
F61.700000000000003
saa(lp2018
V132222
p2019
a(dp2020
g6
F61.799999999999997
sg7
F-0.5
sg8
F61.700000000000003
sg9
F1
sg10
F61.799999999999997
saa(lp2021
V132227
p2022
a(dp2023
g6
F61.799999999999997
sg7
F-0.59999999999999998
sg8
F61.700000000000003
sg9
F8
sg10
F61.700000000000003
saa(lp2024
V132242
p2025
a(dp2026
g6
F61.799999999999997
sg7
F-0.5
sg8
F61.700000000000003
sg9
F1
sg10
F61.799999999999997
saa(lp2027
V132247
p2028
a(dp2029
g6
F61.799999999999997
sg7
F-0.59999999999999998
sg8
F61.700000000000003
sg9
F8
sg10
F61.700000000000003
saa(lp2030
V132257
p2031
a(dp2032
g6
F61.799999999999997
sg7
F-0.5
sg8
F61.700000000000003
sg9
F7
sg10
F61.799999999999997
saa(lp2033
V132307
p2034
a(dp2035
g6
F61.799999999999997
sg7
F-0.5
sg8
F61.700000000000003
sg9
F2
sg10
F61.799999999999997
saa(lp2036
V132312
p2037
a(dp2038
g6
F61.799999999999997
sg7
F-0.5
sg8
F61.700000000000003
sg9
F2
sg10
F61.799999999999997
saa(lp2039
V132322
p2040
a(dp2041
g6
F61.799999999999997
sg7
F-0.5
sg8
F61.700000000000003
sg9
F4
sg10
F61.799999999999997
saa(lp2042
V132327
p2043
a(dp2044
g6
F61.899999999999999
sg7
F-0.40000000000000002
sg8
F61.799999999999997
sg9
F1
sg10
F61.899999999999999
saa(lp2045
V132412
p2046
a(dp2047
g6
F61.899999999999999
sg7
F-0.40000000000000002
sg8
F61.799999999999997
sg9
F3
sg10
F61.899999999999999
saa(lp2048
V132427
p2049
a(dp2050
g6
F61.899999999999999
sg7
F-0.5
sg8
F61.799999999999997
sg9
F3
sg10
F61.799999999999997
saa(lp2051
V132432
p2052
a(dp2053
g6
F61.899999999999999
sg7
F-0.40000000000000002
sg8
F61.799999999999997
sg9
F4
sg10
F61.899999999999999
saa(lp2054
V132437
p2055
a(dp2056
g6
F61.899999999999999
sg7
F-0.5
sg8
F61.799999999999997
sg9
F1
sg10
F61.799999999999997
saa(lp2057
V132442
p2058
a(dp2059
g6
F61.899999999999999
sg7
F-0.40000000000000002
sg8
F61.799999999999997
sg9
F1
sg10
F61.899999999999999
saa(lp2060
V132447
p2061
a(dp2062
g6
F61.899999999999999
sg7
F-0.5
sg8
F61.799999999999997
sg9
F2
sg10
F61.799999999999997
saa(lp2063
V132457
p2064
a(dp2065
g6
F61.899999999999999
sg7
F-0.40000000000000002
sg8
F61.799999999999997
sg9
F2
sg10
F61.899999999999999
saa(lp2066
V133000
p2067
a(dp2068
g6
F61.799999999999997
sg7
F-0.59999999999999998
sg8
F61.700000000000003
sg9
F222
sg10
F61.700000000000003
saa(lp2069
V143000
p2070
a(dp2071
g6
F61.799999999999997
sg7
F-0.59999999999999998
sg8
F61.700000000000003
sg9
F4
sg10
F61.700000000000003
saatRp2072
.