ccollections
OrderedDict
p1
((lp2
(lp3
V090033
p4
a(dp5
S'sell'
p6
F64.700000000000003
sS'diff'
p7
F1.1000000000000001
sS'buy'
p8
F64
sS'count'
p9
F5
sS'deal'
p10
F64.700000000000003
saa(lp11
V090153
p12
a(dp13
g6
F64.599999999999994
sg7
F1
sg8
F64.099999999999994
sg9
F2
sg10
F64.599999999999994
saa(lp14
V090344
p15
a(dp16
g6
F64.599999999999994
sg7
F1.1000000000000001
sg8
F64.099999999999994
sg9
F2
sg10
F64.700000000000003
saa(lp17
V090910
p18
a(dp19
g6
F64.599999999999994
sg7
F0.69999999999999996
sg8
F64.299999999999997
sg9
F1
sg10
F64.299999999999997
saa(lp20
V091226
p21
a(dp22
g6
F64.5
sg7
F0.69999999999999996
sg8
F64.299999999999997
sg9
F1
sg10
F64.299999999999997
saa(lp23
V091231
p24
a(dp25
g6
F64.5
sg7
F0.5
sg8
F64.200000000000003
sg9
F3
sg10
F64.099999999999994
saa(lp26
V091351
p27
a(dp28
g6
F64.5
sg7
F0.5
sg8
F64.099999999999994
sg9
F1
sg10
F64.099999999999994
saa(lp29
V092108
p30
a(dp31
g6
F64.400000000000006
sg7
F0.5
sg8
F64.099999999999994
sg9
F1
sg10
F64.099999999999994
saa(lp32
V092946
p33
a(dp34
g6
F64.400000000000006
sg7
F0.69999999999999996
sg8
F64.299999999999997
sg9
F1
sg10
F64.299999999999997
saa(lp35
V093036
p36
a(dp37
g6
F64.400000000000006
sg7
F0.80000000000000004
sg8
F64.299999999999997
sg9
F1
sg10
F64.400000000000006
saa(lp38
V093141
p39
a(dp40
g6
F64.5
sg7
F0.90000000000000002
sg8
F64.400000000000006
sg9
F3
sg10
F64.5
saa(lp41
V093151
p42
a(dp43
g6
F64.5
sg7
F0.80000000000000004
sg8
F64.400000000000006
sg9
F1
sg10
F64.400000000000006
saa(lp44
V093231
p45
a(dp46
g6
F64.5
sg7
F0.80000000000000004
sg8
F64.400000000000006
sg9
F1
sg10
F64.400000000000006
saa(lp47
V093311
p48
a(dp49
g6
F64.5
sg7
F0.80000000000000004
sg8
F64.400000000000006
sg9
F1
sg10
F64.400000000000006
saa(lp50
V093402
p51
a(dp52
g6
F64.5
sg7
F0.80000000000000004
sg8
F64.400000000000006
sg9
F1
sg10
F64.400000000000006
saa(lp53
V093628
p54
a(dp55
g6
F64.5
sg7
F0.69999999999999996
sg8
F64.299999999999997
sg9
F2
sg10
F64.299999999999997
saa(lp56
V093638
p57
a(dp58
g6
F64.400000000000006
sg7
F0.69999999999999996
sg8
F64.299999999999997
sg9
F1
sg10
F64.299999999999997
saa(lp59
V093823
p60
a(dp61
g6
F64.5
sg7
F0.59999999999999998
sg8
F64.200000000000003
sg9
F1
sg10
F64.200000000000003
saa(lp62
V093953
p63
a(dp64
g6
F64.5
sg7
F0.59999999999999998
sg8
F64.200000000000003
sg9
F3
sg10
F64.200000000000003
saa(lp65
V094129
p66
a(dp67
g6
F64.5
sg7
F0.5
sg8
F64.099999999999994
sg9
F2
sg10
F64.099999999999994
saa(lp68
V094309
p69
a(dp70
g6
F64.299999999999997
sg7
F0.5
sg8
F64.099999999999994
sg9
F4
sg10
F64.099999999999994
saa(lp71
V094314
p72
a(dp73
g6
F64.099999999999994
sg7
F0.5
sg8
F64
sg9
F1
sg10
F64.099999999999994
saa(lp74
V094359
p75
a(dp76
g6
F64.299999999999997
sg7
F0.40000000000000002
sg8
F64
sg9
F5
sg10
F64
saa(lp77
V094430
p78
a(dp79
g6
F64.200000000000003
sg7
F0.40000000000000002
sg8
F64
sg9
F2
sg10
F64
saa(lp80
V095447
p81
a(dp82
g6
F64
sg7
F0.40000000000000002
sg8
F63.899999999999999
sg9
F2
sg10
F64
saa(lp83
V095653
p84
a(dp85
g6
F64.200000000000003
sg7
F0.59999999999999998
sg8
F63.899999999999999
sg9
F1
sg10
F64.200000000000003
saa(lp86
V095744
p87
a(dp88
g6
F64.200000000000003
sg7
F0.40000000000000002
sg8
F64
sg9
F1
sg10
F64
saa(lp89
V095819
p90
a(dp91
g6
F64.200000000000003
sg7
F0.40000000000000002
sg8
F64
sg9
F1
sg10
F64
saa(lp92
V095849
p93
a(dp94
g6
F64
sg7
F0.40000000000000002
sg8
F63.899999999999999
sg9
F1
sg10
F64
saa(lp95
V095859
p96
a(dp97
g6
F64.200000000000003
sg7
F0.59999999999999998
sg8
F63.899999999999999
sg9
F26
sg10
F64.200000000000003
saa(lp98
V095904
p99
a(dp100
g6
F64.299999999999997
sg7
F0.80000000000000004
sg8
F64.200000000000003
sg9
F4
sg10
F64.400000000000006
saa(lp101
V095909
p102
a(dp103
g6
F64.5
sg7
F0.90000000000000002
sg8
F64.400000000000006
sg9
F1
sg10
F64.5
saa(lp104
V100044
p105
a(dp106
g6
F64.5
sg7
F0.80000000000000004
sg8
F64.400000000000006
sg9
F1
sg10
F64.400000000000006
saa(lp107
V100200
p108
a(dp109
g6
F64.400000000000006
sg7
F0.80000000000000004
sg8
F64.200000000000003
sg9
F1
sg10
F64.400000000000006
saa(lp110
V100330
p111
a(dp112
g6
F64.5
sg7
F0.90000000000000002
sg8
F64.200000000000003
sg9
F1
sg10
F64.5
saa(lp113
V100340
p114
a(dp115
g6
F64.5
sg7
F0.90000000000000002
sg8
F64.200000000000003
sg9
F3
sg10
F64.5
saa(lp116
V100440
p117
a(dp118
g6
F64.400000000000006
sg7
F0.80000000000000004
sg8
F64.200000000000003
sg9
F1
sg10
F64.400000000000006
saa(lp119
V100500
p120
a(dp121
g6
F64.400000000000006
sg7
F0.80000000000000004
sg8
F64.200000000000003
sg9
F2
sg10
F64.400000000000006
saa(lp122
V100606
p123
a(dp124
g6
F64.400000000000006
sg7
F0.80000000000000004
sg8
F64.200000000000003
sg9
F2
sg10
F64.400000000000006
saa(lp125
V100651
p126
a(dp127
g6
F64.400000000000006
sg7
F0.80000000000000004
sg8
F64.200000000000003
sg9
F1
sg10
F64.400000000000006
saa(lp128
V100827
p129
a(dp130
g6
F64.400000000000006
sg7
F0.80000000000000004
sg8
F64.200000000000003
sg9
F1
sg10
F64.400000000000006
saa(lp131
V101002
p132
a(dp133
g6
F64.400000000000006
sg7
F0.80000000000000004
sg8
F64.200000000000003
sg9
F1
sg10
F64.400000000000006
saa(lp134
V101814
p135
a(dp136
g6
F64.5
sg7
F0.69999999999999996
sg8
F64.299999999999997
sg9
F1
sg10
F64.299999999999997
saa(lp137
V101945
p138
a(dp139
g6
F64.5
sg7
F0.69999999999999996
sg8
F64.299999999999997
sg9
F1
sg10
F64.299999999999997
saa(lp140
V102240
p141
a(dp142
g6
F64.5
sg7
F0.40000000000000002
sg8
F64.200000000000003
sg9
F2
sg10
F64
saa(lp143
V103323
p144
a(dp145
g6
F64.400000000000006
sg7
F0.5
sg8
F64.099999999999994
sg9
F2
sg10
F64.099999999999994
saa(lp146
V103730
p147
a(dp148
g6
F64.400000000000006
sg7
F0.40000000000000002
sg8
F64
sg9
F1
sg10
F64
saa(lp149
V104326
p150
a(dp151
g6
F64.299999999999997
sg7
F0.40000000000000002
sg8
F64
sg9
F1
sg10
F64
saa(lp152
V104647
p153
a(dp154
g6
F64.099999999999994
sg7
F0.40000000000000002
sg8
F64
sg9
F3
sg10
F64
saa(lp155
V104652
p156
a(dp157
g6
F64
sg7
F0.29999999999999999
sg8
F63.899999999999999
sg9
F1
sg10
F63.899999999999999
saa(lp158
V105113
p159
a(dp160
g6
F64
sg7
F0.40000000000000002
sg8
F63.799999999999997
sg9
F1
sg10
F64
saa(lp161
V105444
p162
a(dp163
g6
F64
sg7
F0.40000000000000002
sg8
F63.899999999999999
sg9
F2
sg10
F64
saa(lp164
V105454
p165
a(dp166
g6
F64
sg7
F0.40000000000000002
sg8
F63.899999999999999
sg9
F5
sg10
F64
saa(lp167
V105805
p168
a(dp169
g6
F64.099999999999994
sg7
F0.40000000000000002
sg8
F64
sg9
F1
sg10
F64
saa(lp170
V105830
p171
a(dp172
g6
F64
sg7
F0.40000000000000002
sg8
F63.899999999999999
sg9
F1
sg10
F64
saa(lp173
V105946
p174
a(dp175
g6
F64.099999999999994
sg7
F0.29999999999999999
sg8
F63.899999999999999
sg9
F3
sg10
F63.899999999999999
saa(lp176
V105951
p177
a(dp178
g6
F64.099999999999994
sg7
F0.20000000000000001
sg8
F63.899999999999999
sg9
F1
sg10
F63.799999999999997
saa(lp179
V105956
p180
a(dp181
g6
F63.899999999999999
sg7
F0.20000000000000001
sg8
F63.799999999999997
sg9
F6
sg10
F63.799999999999997
saa(lp182
V110001
p183
a(dp184
g6
F63.899999999999999
sg7
F0.10000000000000001
sg8
F63.700000000000003
sg9
F21
sg10
F63.700000000000003
saa(lp185
V110016
p186
a(dp187
g6
F63.899999999999999
sg7
F0
sg8
F63.600000000000001
sg9
F9
sg10
F63.600000000000001
saa(lp188
V110021
p189
a(dp190
g6
F63.899999999999999
sg7
F-0.10000000000000001
sg8
F63.5
sg9
F13
sg10
F63.5
saa(lp191
V110041
p192
a(dp193
g6
F63.799999999999997
sg7
F-0.20000000000000001
sg8
F63.399999999999999
sg9
F3
sg10
F63.399999999999999
saa(lp194
V110056
p195
a(dp196
g6
F63.399999999999999
sg7
F-0.20000000000000001
sg8
F63.299999999999997
sg9
F3
sg10
F63.399999999999999
saa(lp197
V110106
p198
a(dp199
g6
F63.799999999999997
sg7
F-0.20000000000000001
sg8
F63.299999999999997
sg9
F1
sg10
F63.399999999999999
saa(lp200
V110111
p201
a(dp202
g6
F63.399999999999999
sg7
F-0.20000000000000001
sg8
F63.299999999999997
sg9
F3
sg10
F63.399999999999999
saa(lp203
V110116
p204
a(dp205
g6
F63.799999999999997
sg7
F-0.20000000000000001
sg8
F63.299999999999997
sg9
F1
sg10
F63.399999999999999
saa(lp206
V110146
p207
a(dp208
g6
F63.600000000000001
sg7
F-0.20000000000000001
sg8
F63.399999999999999
sg9
F1
sg10
F63.399999999999999
saa(lp209
V110156
p210
a(dp211
g6
F63.600000000000001
sg7
F-0.20000000000000001
sg8
F63.399999999999999
sg9
F1
sg10
F63.399999999999999
saa(lp212
V110236
p213
a(dp214
g6
F63.600000000000001
sg7
F-0.20000000000000001
sg8
F63.399999999999999
sg9
F1
sg10
F63.399999999999999
saa(lp215
V110317
p216
a(dp217
g6
F63.600000000000001
sg7
F-0.10000000000000001
sg8
F63.5
sg9
F1
sg10
F63.5
saa(lp218
V110402
p219
a(dp220
g6
F63.600000000000001
sg7
F0
sg8
F63.5
sg9
F2
sg10
F63.600000000000001
saa(lp221
V110412
p222
a(dp223
g6
F63.600000000000001
sg7
F0
sg8
F63.5
sg9
F1
sg10
F63.600000000000001
saa(lp224
V110437
p225
a(dp226
g6
F63.799999999999997
sg7
F0
sg8
F63.600000000000001
sg9
F1
sg10
F63.600000000000001
saa(lp227
V110633
p228
a(dp229
g6
F63.799999999999997
sg7
F0.20000000000000001
sg8
F63.700000000000003
sg9
F1
sg10
F63.799999999999997
saa(lp230
V110653
p231
a(dp232
g6
F63.799999999999997
sg7
F0.20000000000000001
sg8
F63.700000000000003
sg9
F1
sg10
F63.799999999999997
saa(lp233
V110838
p234
a(dp235
g6
F63.899999999999999
sg7
F0.20000000000000001
sg8
F63.799999999999997
sg9
F1
sg10
F63.799999999999997
saa(lp236
V110903
p237
a(dp238
g6
F63.899999999999999
sg7
F0.20000000000000001
sg8
F63.799999999999997
sg9
F1
sg10
F63.799999999999997
saa(lp239
V110958
p240
a(dp241
g6
F63.899999999999999
sg7
F0.29999999999999999
sg8
F63.799999999999997
sg9
F1
sg10
F63.899999999999999
saa(lp242
V111029
p243
a(dp244
g6
F63.899999999999999
sg7
F0.29999999999999999
sg8
F63.799999999999997
sg9
F1
sg10
F63.899999999999999
saa(lp245
V111054
p246
a(dp247
g6
F63.899999999999999
sg7
F0.29999999999999999
sg8
F63.799999999999997
sg9
F1
sg10
F63.899999999999999
saa(lp248
V111154
p249
a(dp250
g6
F64.099999999999994
sg7
F0.20000000000000001
sg8
F63.799999999999997
sg9
F2
sg10
F63.799999999999997
saa(lp251
V111525
p252
a(dp253
g6
F64
sg7
F0.10000000000000001
sg8
F63.700000000000003
sg9
F1
sg10
F63.700000000000003
saa(lp254
V111530
p255
a(dp256
g6
F64
sg7
F0
sg8
F63.600000000000001
sg9
F1
sg10
F63.600000000000001
saa(lp257
V111641
p258
a(dp259
g6
F64
sg7
F-0.10000000000000001
sg8
F63.5
sg9
F1
sg10
F63.5
saa(lp260
V112117
p261
a(dp262
g6
F64
sg7
F0.40000000000000002
sg8
F63.600000000000001
sg9
F1
sg10
F64
saa(lp263
V113210
p264
a(dp265
g6
F63.700000000000003
sg7
F0
sg8
F63.600000000000001
sg9
F1
sg10
F63.600000000000001
saa(lp266
V113325
p267
a(dp268
g6
F63.700000000000003
sg7
F0
sg8
F63.600000000000001
sg9
F4
sg10
F63.600000000000001
saa(lp269
V113330
p270
a(dp271
g6
F63.600000000000001
sg7
F-0.10000000000000001
sg8
F63.5
sg9
F1
sg10
F63.5
saa(lp272
V113420
p273
a(dp274
g6
F63.600000000000001
sg7
F0
sg8
F63.5
sg9
F2
sg10
F63.600000000000001
saa(lp275
V113435
p276
a(dp277
g6
F63.600000000000001
sg7
F0
sg8
F63.5
sg9
F1
sg10
F63.600000000000001
saa(lp278
V113440
p279
a(dp280
g6
F63.600000000000001
sg7
F-0.10000000000000001
sg8
F63.5
sg9
F1
sg10
F63.5
saa(lp281
V113530
p282
a(dp283
g6
F63.600000000000001
sg7
F0
sg8
F63.5
sg9
F3
sg10
F63.600000000000001
saa(lp284
V113616
p285
a(dp286
g6
F63.700000000000003
sg7
F0
sg8
F63.600000000000001
sg9
F14
sg10
F63.600000000000001
saa(lp287
V113621
p288
a(dp289
g6
F63.600000000000001
sg7
F-0.10000000000000001
sg8
F63.5
sg9
F2
sg10
F63.5
saa(lp290
V113626
p291
a(dp292
g6
F63.600000000000001
sg7
F-0.10000000000000001
sg8
F63.5
sg9
F1
sg10
F63.5
saa(lp293
V113711
p294
a(dp295
g6
F63.600000000000001
sg7
F-0.10000000000000001
sg8
F63.5
sg9
F1
sg10
F63.5
saa(lp296
V113746
p297
a(dp298
g6
F63.600000000000001
sg7
F-0.10000000000000001
sg8
F63.5
sg9
F3
sg10
F63.5
saa(lp299
V113821
p300
a(dp301
g6
F63.5
sg7
F-0.10000000000000001
sg8
F63.399999999999999
sg9
F1
sg10
F63.5
saa(lp302
V113831
p303
a(dp304
g6
F63.5
sg7
F-0.10000000000000001
sg8
F63.399999999999999
sg9
F1
sg10
F63.5
saa(lp305
V113841
p306
a(dp307
g6
F63.600000000000001
sg7
F-0.10000000000000001
sg8
F63.5
sg9
F1
sg10
F63.5
saa(lp308
V114202
p309
a(dp310
g6
F63.600000000000001
sg7
F-0.10000000000000001
sg8
F63.5
sg9
F1
sg10
F63.5
saa(lp311
V114332
p312
a(dp313
g6
F63.600000000000001
sg7
F-0.10000000000000001
sg8
F63.5
sg9
F6
sg10
F63.5
saa(lp314
V114337
p315
a(dp316
g6
F63.600000000000001
sg7
F-0.10000000000000001
sg8
F63.5
sg9
F1
sg10
F63.5
saa(lp317
V114428
p318
a(dp319
g6
F63.600000000000001
sg7
F-0.10000000000000001
sg8
F63.5
sg9
F5
sg10
F63.5
saa(lp320
V114443
p321
a(dp322
g6
F63.5
sg7
F-0.20000000000000001
sg8
F63.399999999999999
sg9
F1
sg10
F63.399999999999999
saa(lp323
V114729
p324
a(dp325
g6
F63.5
sg7
F-0.20000000000000001
sg8
F63.399999999999999
sg9
F9
sg10
F63.399999999999999
saa(lp326
V114739
p327
a(dp328
g6
F63.399999999999999
sg7
F-0.29999999999999999
sg8
F63.299999999999997
sg9
F1
sg10
F63.299999999999997
saa(lp329
V114944
p330
a(dp331
g6
F63.399999999999999
sg7
F-0.29999999999999999
sg8
F63.299999999999997
sg9
F1
sg10
F63.299999999999997
saa(lp332
V114949
p333
a(dp334
g6
F63.399999999999999
sg7
F-0.29999999999999999
sg8
F63.299999999999997
sg9
F1
sg10
F63.299999999999997
saa(lp335
V114954
p336
a(dp337
g6
F63.399999999999999
sg7
F-0.29999999999999999
sg8
F63.299999999999997
sg9
F1
sg10
F63.299999999999997
saa(lp338
V115310
p339
a(dp340
g6
F63.399999999999999
sg7
F-0.20000000000000001
sg8
F63.299999999999997
sg9
F1
sg10
F63.399999999999999
saa(lp341
V115541
p342
a(dp343
g6
F63.399999999999999
sg7
F-0.20000000000000001
sg8
F63.299999999999997
sg9
F2
sg10
F63.399999999999999
saa(lp344
V115732
p345
a(dp346
g6
F63.399999999999999
sg7
F-0.20000000000000001
sg8
F63.299999999999997
sg9
F1
sg10
F63.399999999999999
saa(lp347
V115737
p348
a(dp349
g6
F63.399999999999999
sg7
F-0.20000000000000001
sg8
F63.299999999999997
sg9
F1
sg10
F63.399999999999999
saa(lp350
V115747
p351
a(dp352
g6
F63.399999999999999
sg7
F-0.20000000000000001
sg8
F63.299999999999997
sg9
F1
sg10
F63.399999999999999
saa(lp353
V120529
p354
a(dp355
g6
F63.5
sg7
F-0.10000000000000001
sg8
F63.399999999999999
sg9
F1
sg10
F63.5
saa(lp356
V120805
p357
a(dp358
g6
F63.5
sg7
F-0.10000000000000001
sg8
F63.399999999999999
sg9
F4
sg10
F63.5
saa(lp359
V120840
p360
a(dp361
g6
F63.600000000000001
sg7
F0
sg8
F63.5
sg9
F1
sg10
F63.600000000000001
saa(lp362
V120850
p363
a(dp364
g6
F63.600000000000001
sg7
F-0.10000000000000001
sg8
F63.5
sg9
F1
sg10
F63.5
saa(lp365
V120855
p366
a(dp367
g6
F63.600000000000001
sg7
F-0.10000000000000001
sg8
F63.5
sg9
F1
sg10
F63.5
saa(lp368
V121030
p369
a(dp370
g6
F63.600000000000001
sg7
F-0.10000000000000001
sg8
F63.5
sg9
F1
sg10
F63.5
saa(lp371
V121100
p372
a(dp373
g6
F63.600000000000001
sg7
F-0.10000000000000001
sg8
F63.5
sg9
F1
sg10
F63.5
saa(lp374
V121727
p375
a(dp376
g6
F63.600000000000001
sg7
F-0.10000000000000001
sg8
F63.5
sg9
F1
sg10
F63.5
saa(lp377
V122003
p378
a(dp379
g6
F63.600000000000001
sg7
F-0.10000000000000001
sg8
F63.5
sg9
F2
sg10
F63.5
saa(lp380
V122013
p381
a(dp382
g6
F63.600000000000001
sg7
F-0.10000000000000001
sg8
F63.5
sg9
F1
sg10
F63.5
saa(lp383
V122018
p384
a(dp385
g6
F63.600000000000001
sg7
F-0.10000000000000001
sg8
F63.5
sg9
F1
sg10
F63.5
saa(lp386
V122138
p387
a(dp388
g6
F63.600000000000001
sg7
F0
sg8
F63.5
sg9
F1
sg10
F63.600000000000001
saa(lp389
V122550
p390
a(dp391
g6
F63.600000000000001
sg7
F0
sg8
F63.5
sg9
F2
sg10
F63.600000000000001
saa(lp392
V123206
p393
a(dp394
g6
F63.600000000000001
sg7
F0
sg8
F63.5
sg9
F1
sg10
F63.600000000000001
saa(lp395
V123211
p396
a(dp397
g6
F63.600000000000001
sg7
F-0.10000000000000001
sg8
F63.5
sg9
F1
sg10
F63.5
saa(lp398
V123336
p399
a(dp400
g6
F63.600000000000001
sg7
F-0.10000000000000001
sg8
F63.5
sg9
F2
sg10
F63.5
saa(lp401
V123703
p402
a(dp403
g6
F63.600000000000001
sg7
F-0.10000000000000001
sg8
F63.5
sg9
F1
sg10
F63.5
saa(lp404
V123803
p405
a(dp406
g6
F63.600000000000001
sg7
F-0.10000000000000001
sg8
F63.5
sg9
F2
sg10
F63.5
saa(lp407
V123828
p408
a(dp409
g6
F63.600000000000001
sg7
F-0.10000000000000001
sg8
F63.5
sg9
F2
sg10
F63.5
saa(lp410
V123838
p411
a(dp412
g6
F63.600000000000001
sg7
F-0.20000000000000001
sg8
F63.399999999999999
sg9
F1
sg10
F63.399999999999999
saa(lp413
V124018
p414
a(dp415
g6
F63.5
sg7
F-0.10000000000000001
sg8
F63.399999999999999
sg9
F1
sg10
F63.5
saa(lp416
V124114
p417
a(dp418
g6
F63.5
sg7
F-0.10000000000000001
sg8
F63.399999999999999
sg9
F1
sg10
F63.5
saa(lp419
V124154
p420
a(dp421
g6
F63.5
sg7
F-0.10000000000000001
sg8
F63.399999999999999
sg9
F1
sg10
F63.5
saa(lp422
V124545
p423
a(dp424
g6
F63.5
sg7
F-0.10000000000000001
sg8
F63.399999999999999
sg9
F1
sg10
F63.5
saa(lp425
V124550
p426
a(dp427
g6
F63.5
sg7
F-0.10000000000000001
sg8
F63.399999999999999
sg9
F1
sg10
F63.5
saa(lp428
V124555
p429
a(dp430
g6
F63.5
sg7
F-0.20000000000000001
sg8
F63.399999999999999
sg9
F1
sg10
F63.399999999999999
saa(lp431
V124600
p432
a(dp433
g6
F63.5
sg7
F-0.10000000000000001
sg8
F63.399999999999999
sg9
F1
sg10
F63.5
saa(lp434
V124831
p435
a(dp436
g6
F63.600000000000001
sg7
F0
sg8
F63.5
sg9
F1
sg10
F63.600000000000001
saa(lp437
V124856
p438
a(dp439
g6
F63.600000000000001
sg7
F-0.10000000000000001
sg8
F63.5
sg9
F1
sg10
F63.5
saa(lp440
V124901
p441
a(dp442
g6
F63.600000000000001
sg7
F-0.10000000000000001
sg8
F63.5
sg9
F2
sg10
F63.5
saa(lp443
V124951
p444
a(dp445
g6
F63.5
sg7
F-0.10000000000000001
sg8
F63.399999999999999
sg9
F2
sg10
F63.5
saa(lp446
V125227
p447
a(dp448
g6
F63.600000000000001
sg7
F-0.10000000000000001
sg8
F63.5
sg9
F3
sg10
F63.5
saa(lp449
V125232
p450
a(dp451
g6
F63.600000000000001
sg7
F-0.10000000000000001
sg8
F63.5
sg9
F1
sg10
F63.5
saa(lp452
V125357
p453
a(dp454
g6
F63.5
sg7
F-0.20000000000000001
sg8
F63.399999999999999
sg9
F1
sg10
F63.399999999999999
saa(lp455
V125442
p456
a(dp457
g6
F63.5
sg7
F-0.20000000000000001
sg8
F63.399999999999999
sg9
F1
sg10
F63.399999999999999
saa(lp458
V125447
p459
a(dp460
g6
F63.5
sg7
F-0.20000000000000001
sg8
F63.399999999999999
sg9
F1
sg10
F63.399999999999999
saa(lp461
V125522
p462
a(dp463
g6
F63.5
sg7
F-0.20000000000000001
sg8
F63.399999999999999
sg9
F10
sg10
F63.399999999999999
saa(lp464
V125528
p465
a(dp466
g6
F63.5
sg7
F-0.20000000000000001
sg8
F63.399999999999999
sg9
F1
sg10
F63.399999999999999
saa(lp467
V125723
p468
a(dp469
g6
F63.5
sg7
F-0.20000000000000001
sg8
F63.399999999999999
sg9
F2
sg10
F63.399999999999999
saa(lp470
V125728
p471
a(dp472
g6
F63.5
sg7
F-0.20000000000000001
sg8
F63.399999999999999
sg9
F1
sg10
F63.399999999999999
saa(lp473
V125819
p474
a(dp475
g6
F63.5
sg7
F-0.20000000000000001
sg8
F63.399999999999999
sg9
F1
sg10
F63.399999999999999
saa(lp476
V125839
p477
a(dp478
g6
F63.5
sg7
F-0.20000000000000001
sg8
F63.399999999999999
sg9
F1
sg10
F63.399999999999999
saa(lp479
V125929
p480
a(dp481
g6
F63.5
sg7
F-0.10000000000000001
sg8
F63.399999999999999
sg9
F1
sg10
F63.5
saa(lp482
V125959
p483
a(dp484
g6
F63.5
sg7
F-0.20000000000000001
sg8
F63.399999999999999
sg9
F1
sg10
F63.399999999999999
saa(lp485
V130004
p486
a(dp487
g6
F63.5
sg7
F-0.20000000000000001
sg8
F63.399999999999999
sg9
F1
sg10
F63.399999999999999
saa(lp488
V130114
p489
a(dp490
g6
F63.5
sg7
F-0.20000000000000001
sg8
F63.399999999999999
sg9
F2
sg10
F63.399999999999999
saa(lp491
V130154
p492
a(dp493
g6
F63.5
sg7
F-0.20000000000000001
sg8
F63.399999999999999
sg9
F1
sg10
F63.399999999999999
saa(lp494
V130330
p495
a(dp496
g6
F63.5
sg7
F-0.20000000000000001
sg8
F63.399999999999999
sg9
F8
sg10
F63.399999999999999
saa(lp497
V130335
p498
a(dp499
g6
F63.5
sg7
F-0.20000000000000001
sg8
F63.399999999999999
sg9
F1
sg10
F63.399999999999999
saa(lp500
V130520
p501
a(dp502
g6
F63.5
sg7
F-0.20000000000000001
sg8
F63.399999999999999
sg9
F6
sg10
F63.399999999999999
saa(lp503
V130525
p504
a(dp505
g6
F63.5
sg7
F-0.20000000000000001
sg8
F63.399999999999999
sg9
F1
sg10
F63.399999999999999
saa(lp506
V130551
p507
a(dp508
g6
F63.5
sg7
F-0.20000000000000001
sg8
F63.399999999999999
sg9
F1
sg10
F63.399999999999999
saa(lp509
V130556
p510
a(dp511
g6
F63.5
sg7
F-0.29999999999999999
sg8
F63.299999999999997
sg9
F1
sg10
F63.299999999999997
saa(lp512
V131032
p513
a(dp514
g6
F63.600000000000001
sg7
F-0.20000000000000001
sg8
F63.399999999999999
sg9
F1
sg10
F63.399999999999999
saa(lp515
V131227
p516
a(dp517
g6
F63.600000000000001
sg7
F-0.20000000000000001
sg8
F63.399999999999999
sg9
F2
sg10
F63.399999999999999
saa(lp518
V131242
p519
a(dp520
g6
F63.600000000000001
sg7
F-0.20000000000000001
sg8
F63.399999999999999
sg9
F1
sg10
F63.399999999999999
saa(lp521
V131554
p522
a(dp523
g6
F63.600000000000001
sg7
F-0.10000000000000001
sg8
F63.5
sg9
F1
sg10
F63.5
saa(lp524
V131609
p525
a(dp526
g6
F63.5
sg7
F-0.20000000000000001
sg8
F63.399999999999999
sg9
F1
sg10
F63.399999999999999
saa(lp527
V131834
p528
a(dp529
g6
F63.5
sg7
F-0.10000000000000001
sg8
F63.399999999999999
sg9
F1
sg10
F63.5
saa(lp530
V131854
p531
a(dp532
g6
F63.5
sg7
F-0.10000000000000001
sg8
F63.399999999999999
sg9
F1
sg10
F63.5
saa(lp533
V131919
p534
a(dp535
g6
F63.5
sg7
F-0.10000000000000001
sg8
F63.399999999999999
sg9
F2
sg10
F63.5
saa(lp536
V132009
p537
a(dp538
g6
F63.600000000000001
sg7
F-0.20000000000000001
sg8
F63.399999999999999
sg9
F1
sg10
F63.399999999999999
saa(lp539
V132014
p540
a(dp541
g6
F63.600000000000001
sg7
F-0.20000000000000001
sg8
F63.399999999999999
sg9
F1
sg10
F63.399999999999999
saa(lp542
V132019
p543
a(dp544
g6
F63.600000000000001
sg7
F-0.20000000000000001
sg8
F63.399999999999999
sg9
F1
sg10
F63.399999999999999
saa(lp545
V132145
p546
a(dp547
g6
F63.5
sg7
F-0.10000000000000001
sg8
F63.399999999999999
sg9
F1
sg10
F63.5
saa(lp548
V132210
p549
a(dp550
g6
F63.600000000000001
sg7
F-0.20000000000000001
sg8
F63.399999999999999
sg9
F1
sg10
F63.399999999999999
saa(lp551
V132300
p552
a(dp553
g6
F63.600000000000001
sg7
F-0.10000000000000001
sg8
F63.5
sg9
F1
sg10
F63.5
saa(lp554
V132340
p555
a(dp556
g6
F63.600000000000001
sg7
F-0.20000000000000001
sg8
F63.399999999999999
sg9
F1
sg10
F63.399999999999999
saa(lp557
V132405
p558
a(dp559
g6
F63.5
sg7
F-0.10000000000000001
sg8
F63.399999999999999
sg9
F1
sg10
F63.5
saa(lp560
V132410
p561
a(dp562
g6
F63.5
sg7
F-0.10000000000000001
sg8
F63.399999999999999
sg9
F4
sg10
F63.5
saa(lp563
V132415
p564
a(dp565
g6
F63.600000000000001
sg7
F-0.20000000000000001
sg8
F63.399999999999999
sg9
F1
sg10
F63.399999999999999
saa(lp566
V133000
p567
a(dp568
g6
F63.5
sg7
F-0.20000000000000001
sg8
F63.399999999999999
sg9
F71
sg10
F63.399999999999999
saa(lp569
V143000
p570
a(dp571
g6
F63.5
sg7
F-0.20000000000000001
sg8
F63.399999999999999
sg9
F8
sg10
F63.399999999999999
saatRp572
.