ccollections
OrderedDict
p1
((lp2
(lp3
V090153
p4
a(dp5
S'sell'
p6
F407.5
sS'diff'
p7
F3.5
sS'buy'
p8
F406
sS'count'
p9
F1
sS'deal'
p10
F407.5
saa(lp11
V090800
p12
a(dp13
g6
F407.5
sg7
F3
sg8
F407
sg9
F2
sg10
F407
saa(lp14
V090840
p15
a(dp16
g6
F407.5
sg7
F3
sg8
F407
sg9
F1
sg10
F407
saa(lp17
V091226
p18
a(dp19
g6
F406.5
sg7
F2
sg8
F406
sg9
F1
sg10
F406
saa(lp20
V091346
p21
a(dp22
g6
F407
sg7
F2
sg8
F406
sg9
F2
sg10
F406
saa(lp23
V091431
p24
a(dp25
g6
F407
sg7
F2
sg8
F406
sg9
F1
sg10
F406
saa(lp26
V091958
p27
a(dp28
g6
F407
sg7
F1
sg8
F405
sg9
F1
sg10
F405
saa(lp29
V092238
p30
a(dp31
g6
F406.5
sg7
F2.5
sg8
F405
sg9
F1
sg10
F406.5
saa(lp32
V094846
p33
a(dp34
g6
F406
sg7
F1
sg8
F405
sg9
F1
sg10
F405
saa(lp35
V095302
p36
a(dp37
g6
F405
sg7
F0.5
sg8
F404.5
sg9
F1
sg10
F404.5
saa(lp38
V095919
p39
a(dp40
g6
F405
sg7
F0.5
sg8
F404.5
sg9
F1
sg10
F404.5
saa(lp41
V100054
p42
a(dp43
g6
F405
sg7
F0.5
sg8
F404.5
sg9
F2
sg10
F404.5
saa(lp44
V100505
p45
a(dp46
g6
F405
sg7
F0.5
sg8
F404.5
sg9
F1
sg10
F404.5
saa(lp47
V101659
p48
a(dp49
g6
F405
sg7
F0.5
sg8
F404.5
sg9
F2
sg10
F404.5
saa(lp50
V101744
p51
a(dp52
g6
F405
sg7
F0.5
sg8
F404.5
sg9
F4
sg10
F404.5
saa(lp53
V101809
p54
a(dp55
g6
F405
sg7
F1
sg8
F404.5
sg9
F1
sg10
F405
saa(lp56
V102636
p57
a(dp58
g6
F406
sg7
F1.5
sg8
F405.5
sg9
F1
sg10
F405.5
saa(lp59
V102656
p60
a(dp61
g6
F406
sg7
F2
sg8
F405.5
sg9
F1
sg10
F406
saa(lp62
V104331
p63
a(dp64
g6
F406
sg7
F2
sg8
F405.5
sg9
F1
sg10
F406
saa(lp65
V104632
p66
a(dp67
g6
F406.5
sg7
F2
sg8
F406
sg9
F2
sg10
F406
saa(lp68
V104707
p69
a(dp70
g6
F406.5
sg7
F2.5
sg8
F406
sg9
F1
sg10
F406.5
saa(lp71
V104722
p72
a(dp73
g6
F407
sg7
F3
sg8
F406
sg9
F1
sg10
F407
saa(lp74
V105123
p75
a(dp76
g6
F407
sg7
F3
sg8
F406
sg9
F2
sg10
F407
saa(lp77
V105158
p78
a(dp79
g6
F407.5
sg7
F3.5
sg8
F407
sg9
F1
sg10
F407.5
saa(lp80
V105248
p81
a(dp82
g6
F408
sg7
F4
sg8
F407
sg9
F1
sg10
F408
saa(lp83
V110126
p84
a(dp85
g6
F408
sg7
F4
sg8
F407
sg9
F1
sg10
F408
saa(lp86
V110301
p87
a(dp88
g6
F409.5
sg7
F3
sg8
F407
sg9
F1
sg10
F407
saa(lp89
V110512
p90
a(dp91
g6
F408
sg7
F3
sg8
F407
sg9
F4
sg10
F407
saa(lp92
V110537
p93
a(dp94
g6
F408
sg7
F4
sg8
F407
sg9
F1
sg10
F408
saa(lp95
V111224
p96
a(dp97
g6
F409
sg7
F4.5
sg8
F408.5
sg9
F2
sg10
F408.5
saa(lp98
V111615
p99
a(dp100
g6
F409.5
sg7
F5.5
sg8
F408.5
sg9
F1
sg10
F409.5
saa(lp101
V112939
p102
a(dp103
g6
F409.5
sg7
F5
sg8
F409
sg9
F2
sg10
F409
saa(lp104
V113109
p105
a(dp106
g6
F409.5
sg7
F5.5
sg8
F409
sg9
F1
sg10
F409.5
saa(lp107
V113350
p108
a(dp109
g6
F409.5
sg7
F5.5
sg8
F409
sg9
F1
sg10
F409.5
saa(lp110
V113400
p111
a(dp112
g6
F410
sg7
F6
sg8
F409
sg9
F2
sg10
F410
saa(lp113
V113405
p114
a(dp115
g6
F410
sg7
F6
sg8
F409
sg9
F1
sg10
F410
saa(lp116
V113505
p117
a(dp118
g6
F411.5
sg7
F5
sg8
F409
sg9
F3
sg10
F409
saa(lp119
V113701
p120
a(dp121
g6
F411
sg7
F6.5
sg8
F410.5
sg9
F1
sg10
F410.5
saa(lp122
V114819
p123
a(dp124
g6
F410.5
sg7
F5.5
sg8
F409.5
sg9
F1
sg10
F409.5
saa(lp125
V120413
p126
a(dp127
g6
F410.5
sg7
F6
sg8
F410
sg9
F2
sg10
F410
saa(lp128
V120528
p129
a(dp130
g6
F410.5
sg7
F6
sg8
F410
sg9
F1
sg10
F410
saa(lp131
V120950
p132
a(dp133
g6
F410.5
sg7
F6
sg8
F410
sg9
F3
sg10
F410
saa(lp134
V121451
p135
a(dp136
g6
F410.5
sg7
F6
sg8
F410
sg9
F3
sg10
F410
saa(lp137
V122313
p138
a(dp139
g6
F410.5
sg7
F6
sg8
F410
sg9
F3
sg10
F410
saa(lp140
V122550
p141
a(dp142
g6
F410.5
sg7
F6
sg8
F410
sg9
F1
sg10
F410
saa(lp143
V122620
p144
a(dp145
g6
F410.5
sg7
F6
sg8
F410
sg9
F2
sg10
F410
saa(lp146
V122755
p147
a(dp148
g6
F410.5
sg7
F6
sg8
F410
sg9
F3
sg10
F410
saa(lp149
V124434
p150
a(dp151
g6
F410.5
sg7
F6
sg8
F410
sg9
F1
sg10
F410
saa(lp152
V124630
p153
a(dp154
g6
F409.5
sg7
F5
sg8
F409
sg9
F1
sg10
F409
saa(lp155
V124800
p156
a(dp157
g6
F409.5
sg7
F5
sg8
F409
sg9
F1
sg10
F409
saa(lp158
V124805
p159
a(dp160
g6
F409.5
sg7
F5
sg8
F409
sg9
F4
sg10
F409
saa(lp161
V124951
p162
a(dp163
g6
F409.5
sg7
F4.5
sg8
F408.5
sg9
F1
sg10
F408.5
saa(lp164
V125422
p165
a(dp166
g6
F409
sg7
F4
sg8
F408
sg9
F1
sg10
F408
saa(lp167
V125658
p168
a(dp169
g6
F409
sg7
F4
sg8
F408
sg9
F1
sg10
F408
saa(lp170
V131112
p171
a(dp172
g6
F409
sg7
F4
sg8
F408
sg9
F1
sg10
F408
saa(lp173
V131252
p174
a(dp175
g6
F408.5
sg7
F3
sg8
F407
sg9
F1
sg10
F407
saa(lp176
V131503
p177
a(dp178
g6
F408.5
sg7
F2.5
sg8
F406.5
sg9
F1
sg10
F406.5
saa(lp179
V132300
p180
a(dp181
g6
F408
sg7
F2.5
sg8
F406.5
sg9
F1
sg10
F406.5
saa(lp182
V132405
p183
a(dp184
g6
F408
sg7
F4
sg8
F406.5
sg9
F1
sg10
F408
saa(lp185
V133000
p186
a(dp187
g6
F410
sg7
F5.5
sg8
F407
sg9
F6
sg10
F409.5
saatRp188
.