ccollections
OrderedDict
p1
((lp2
(lp3
V090104
p4
a(dp5
S'sell'
p6
F412.5
sS'diff'
p7
F-1.5
sS'buy'
p8
F411
sS'count'
p9
F1
sS'deal'
p10
F411
saa(lp11
V090224
p12
a(dp13
g6
F411.5
sg7
F-1
sg8
F410
sg9
F1
sg10
F411.5
saa(lp14
V090349
p15
a(dp16
g6
F411
sg7
F-2.5
sg8
F410
sg9
F1
sg10
F410
saa(lp17
V090851
p18
a(dp19
g6
F410
sg7
F-5
sg8
F407.5
sg9
F1
sg10
F407.5
saa(lp20
V091709
p21
a(dp22
g6
F407.5
sg7
F-5.5
sg8
F407
sg9
F2
sg10
F407
saa(lp23
V091729
p24
a(dp25
g6
F407.5
sg7
F-5
sg8
F407
sg9
F1
sg10
F407.5
saa(lp26
V093252
p27
a(dp28
g6
F407.5
sg7
F-5
sg8
F407
sg9
F1
sg10
F407.5
saa(lp29
V093814
p30
a(dp31
g6
F408.5
sg7
F-5.5
sg8
F407
sg9
F1
sg10
F407
saa(lp32
V093824
p33
a(dp34
g6
F408.5
sg7
F-5.5
sg8
F407
sg9
F1
sg10
F407
saa(lp35
V093829
p36
a(dp37
g6
F408.5
sg7
F-6.5
sg8
F406
sg9
F1
sg10
F406
saa(lp38
V094912
p39
a(dp40
g6
F406.5
sg7
F-6.5
sg8
F406
sg9
F1
sg10
F406
saa(lp41
V095920
p42
a(dp43
g6
F406.5
sg7
F-6.5
sg8
F406
sg9
F1
sg10
F406
saa(lp44
V102236
p45
a(dp46
g6
F406.5
sg7
F-6
sg8
F406
sg9
F1
sg10
F406.5
saa(lp47
V102643
p48
a(dp49
g6
F406.5
sg7
F-6.5
sg8
F406
sg9
F1
sg10
F406
saa(lp50
V103054
p51
a(dp52
g6
F406.5
sg7
F-6
sg8
F406
sg9
F2
sg10
F406.5
saa(lp53
V103209
p54
a(dp55
g6
F408.5
sg7
F-4
sg8
F406.5
sg9
F1
sg10
F408.5
saa(lp56
V104142
p57
a(dp58
g6
F410
sg7
F-3.5
sg8
F409
sg9
F2
sg10
F409
saa(lp59
V104152
p60
a(dp61
g6
F409.5
sg7
F-3.5
sg8
F409
sg9
F1
sg10
F409
saa(lp62
V104217
p63
a(dp64
g6
F409
sg7
F-3.5
sg8
F408.5
sg9
F1
sg10
F409
saa(lp65
V104302
p66
a(dp67
g6
F409
sg7
F-3.5
sg8
F408.5
sg9
F1
sg10
F409
saa(lp68
V104317
p69
a(dp70
g6
F409.5
sg7
F-3
sg8
F408.5
sg9
F1
sg10
F409.5
saa(lp71
V104824
p72
a(dp73
g6
F411
sg7
F-1.5
sg8
F409
sg9
F1
sg10
F411
saa(lp74
V104919
p75
a(dp76
g6
F411
sg7
F-1.5
sg8
F409
sg9
F1
sg10
F411
saa(lp77
V104939
p78
a(dp79
g6
F411
sg7
F-1.5
sg8
F409
sg9
F1
sg10
F411
saa(lp80
V105801
p81
a(dp82
g6
F411
sg7
F-1.5
sg8
F409
sg9
F1
sg10
F411
saa(lp83
V105811
p84
a(dp85
g6
F411
sg7
F-1.5
sg8
F409
sg9
F1
sg10
F411
saa(lp86
V110237
p87
a(dp88
g6
F411
sg7
F-3
sg8
F409.5
sg9
F1
sg10
F409.5
saa(lp89
V110418
p90
a(dp91
g6
F410
sg7
F-2.5
sg8
F409
sg9
F2
sg10
F410
saa(lp92
V110749
p93
a(dp94
g6
F410
sg7
F-3.5
sg8
F409
sg9
F2
sg10
F409
saa(lp95
V110754
p96
a(dp97
g6
F410
sg7
F-3.5
sg8
F409
sg9
F1
sg10
F409
saa(lp98
V110814
p99
a(dp100
g6
F410
sg7
F-2.5
sg8
F408.5
sg9
F1
sg10
F410
saa(lp101
V111230
p102
a(dp103
g6
F410
sg7
F-3.5
sg8
F409
sg9
F3
sg10
F409
saa(lp104
V111421
p105
a(dp106
g6
F410
sg7
F-3.5
sg8
F409
sg9
F2
sg10
F409
saa(lp107
V111451
p108
a(dp109
g6
F410
sg7
F-2.5
sg8
F409
sg9
F1
sg10
F410
saa(lp110
V111617
p111
a(dp112
g6
F410
sg7
F-3.5
sg8
F409
sg9
F3
sg10
F409
saa(lp113
V111947
p114
a(dp115
g6
F410
sg7
F-3.5
sg8
F409
sg9
F1
sg10
F409
saa(lp116
V112022
p117
a(dp118
g6
F410
sg7
F-2.5
sg8
F409.5
sg9
F1
sg10
F410
saa(lp119
V112555
p120
a(dp121
g6
F410
sg7
F-3
sg8
F409.5
sg9
F1
sg10
F409.5
saa(lp122
V112605
p123
a(dp124
g6
F410
sg7
F-3
sg8
F409.5
sg9
F1
sg10
F409.5
saa(lp125
V113542
p126
a(dp127
g6
F410
sg7
F-3
sg8
F409.5
sg9
F1
sg10
F409.5
saa(lp128
V113933
p129
a(dp130
g6
F410
sg7
F-3
sg8
F409.5
sg9
F1
sg10
F409.5
saa(lp131
V114038
p132
a(dp133
g6
F410
sg7
F-3
sg8
F409.5
sg9
F1
sg10
F409.5
saa(lp134
V114043
p135
a(dp136
g6
F410
sg7
F-3
sg8
F409
sg9
F1
sg10
F409.5
saa(lp137
V114154
p138
a(dp139
g6
F410
sg7
F-3
sg8
F409.5
sg9
F1
sg10
F409.5
saa(lp140
V114725
p141
a(dp142
g6
F410
sg7
F-3
sg8
F409.5
sg9
F1
sg10
F409.5
saa(lp143
V115106
p144
a(dp145
g6
F410
sg7
F-3
sg8
F409.5
sg9
F1
sg10
F409.5
saa(lp146
V115242
p147
a(dp148
g6
F410
sg7
F-3
sg8
F409.5
sg9
F3
sg10
F409.5
saa(lp149
V115618
p150
a(dp151
g6
F410
sg7
F-3
sg8
F409.5
sg9
F1
sg10
F409.5
saa(lp152
V120249
p153
a(dp154
g6
F410
sg7
F-3
sg8
F409.5
sg9
F1
sg10
F409.5
saa(lp155
V120300
p156
a(dp157
g6
F410
sg7
F-3
sg8
F409.5
sg9
F1
sg10
F409.5
saa(lp158
V120901
p159
a(dp160
g6
F410
sg7
F-3
sg8
F409.5
sg9
F1
sg10
F409.5
saa(lp161
V120921
p162
a(dp163
g6
F410
sg7
F-2.5
sg8
F409.5
sg9
F1
sg10
F410
saa(lp164
V121107
p165
a(dp166
g6
F410
sg7
F-3
sg8
F409.5
sg9
F1
sg10
F409.5
saa(lp167
V121312
p168
a(dp169
g6
F410
sg7
F-3
sg8
F409.5
sg9
F1
sg10
F409.5
saa(lp170
V121408
p171
a(dp172
g6
F410
sg7
F-2.5
sg8
F409.5
sg9
F2
sg10
F410
saa(lp173
V122120
p174
a(dp175
g6
F410
sg7
F-3
sg8
F409.5
sg9
F1
sg10
F409.5
saa(lp176
V122922
p177
a(dp178
g6
F410
sg7
F-3
sg8
F409.5
sg9
F2
sg10
F409.5
saa(lp179
V123559
p180
a(dp181
g6
F410
sg7
F-3
sg8
F409.5
sg9
F2
sg10
F409.5
saa(lp182
V123609
p183
a(dp184
g6
F410
sg7
F-3
sg8
F409.5
sg9
F1
sg10
F409.5
saa(lp185
V123950
p186
a(dp187
g6
F410
sg7
F-3
sg8
F409.5
sg9
F1
sg10
F409.5
saa(lp188
V124015
p189
a(dp190
g6
F410
sg7
F-2.5
sg8
F409.5
sg9
F1
sg10
F410
saa(lp191
V124030
p192
a(dp193
g6
F410
sg7
F-2.5
sg8
F409.5
sg9
F1
sg10
F410
saa(lp194
V124035
p195
a(dp196
g6
F410
sg7
F-2.5
sg8
F409.5
sg9
F4
sg10
F410
saa(lp197
V124140
p198
a(dp199
g6
F411
sg7
F-2.5
sg8
F410
sg9
F3
sg10
F410
saa(lp200
V124230
p201
a(dp202
g6
F410.5
sg7
F-2
sg8
F410
sg9
F1
sg10
F410.5
saa(lp203
V124346
p204
a(dp205
g6
F410.5
sg7
F-2
sg8
F410
sg9
F1
sg10
F410.5
saa(lp206
V124436
p207
a(dp208
g6
F410.5
sg7
F-2.5
sg8
F410
sg9
F2
sg10
F410
saa(lp209
V124511
p210
a(dp211
g6
F410.5
sg7
F-2.5
sg8
F410
sg9
F1
sg10
F410
saa(lp212
V124607
p213
a(dp214
g6
F410.5
sg7
F-2
sg8
F409.5
sg9
F1
sg10
F410.5
saa(lp215
V124712
p216
a(dp217
g6
F410.5
sg7
F-2
sg8
F409.5
sg9
F1
sg10
F410.5
saa(lp218
V124952
p219
a(dp220
g6
F410.5
sg7
F-2
sg8
F410
sg9
F1
sg10
F410.5
saa(lp221
V125318
p222
a(dp223
g6
F410.5
sg7
F-2.5
sg8
F410
sg9
F1
sg10
F410
saa(lp224
V125555
p225
a(dp226
g6
F410.5
sg7
F-2.5
sg8
F410
sg9
F1
sg10
F410
saa(lp227
V125845
p228
a(dp229
g6
F410.5
sg7
F-2.5
sg8
F410
sg9
F1
sg10
F410
saa(lp230
V125950
p231
a(dp232
g6
F410.5
sg7
F-2
sg8
F410
sg9
F1
sg10
F410.5
saa(lp233
V130111
p234
a(dp235
g6
F410.5
sg7
F-2
sg8
F410
sg9
F1
sg10
F410.5
saa(lp236
V130501
p237
a(dp238
g6
F410.5
sg7
F-2
sg8
F410
sg9
F1
sg10
F410.5
saa(lp239
V130557
p240
a(dp241
g6
F410.5
sg7
F-2.5
sg8
F410
sg9
F1
sg10
F410
saa(lp242
V130642
p243
a(dp244
g6
F410.5
sg7
F-2
sg8
F410
sg9
F1
sg10
F410.5
saa(lp245
V130833
p246
a(dp247
g6
F410.5
sg7
F-2.5
sg8
F410
sg9
F1
sg10
F410
saa(lp248
V131108
p249
a(dp250
g6
F410.5
sg7
F-2
sg8
F410
sg9
F1
sg10
F410.5
saa(lp251
V131359
p252
a(dp253
g6
F410.5
sg7
F-2
sg8
F410
sg9
F1
sg10
F410.5
saa(lp254
V131836
p255
a(dp256
g6
F410.5
sg7
F-2
sg8
F410
sg9
F1
sg10
F410.5
saa(lp257
V131931
p258
a(dp259
g6
F411
sg7
F-1.5
sg8
F410
sg9
F1
sg10
F411
saa(lp260
V132006
p261
a(dp262
g6
F411
sg7
F-1.5
sg8
F410
sg9
F4
sg10
F411
saa(lp263
V132121
p264
a(dp265
g6
F411.5
sg7
F-1
sg8
F410
sg9
F1
sg10
F411.5
saa(lp266
V132247
p267
a(dp268
g6
F411
sg7
F-1.5
sg8
F410
sg9
F5
sg10
F411
saa(lp269
V132357
p270
a(dp271
g6
F412
sg7
F-2.5
sg8
F410
sg9
F1
sg10
F410
saa(lp272
V132427
p273
a(dp274
g6
F411.5
sg7
F-2.5
sg8
F410
sg9
F2
sg10
F410
saa(lp275
V133000
p276
a(dp277
g6
F411
sg7
F-2.5
sg8
F410
sg9
F6
sg10
F410
saatRp278
.