ccollections
OrderedDict
p1
((lp2
(lp3
V090127
p4
a(dp5
S'sell'
p6
F412.5
sS'diff'
p7
F2.5
sS'buy'
p8
F410
sS'count'
p9
F1
sS'deal'
p10
F412.5
saa(lp11
V090523
p12
a(dp13
g6
F412
sg7
F0
sg8
F410
sg9
F1
sg10
F410
saa(lp14
V090549
p15
a(dp16
g6
F411.5
sg7
F1.5
sg8
F408
sg9
F1
sg10
F411.5
saa(lp17
V090939
p18
a(dp19
g6
F412
sg7
F2
sg8
F409.5
sg9
F1
sg10
F412
saa(lp20
V091310
p21
a(dp22
g6
F412
sg7
F2
sg8
F410
sg9
F1
sg10
F412
saa(lp23
V092108
p24
a(dp25
g6
F412
sg7
F2
sg8
F410
sg9
F1
sg10
F412
saa(lp26
V092348
p27
a(dp28
g6
F412
sg7
F1
sg8
F411
sg9
F1
sg10
F411
saa(lp29
V092750
p30
a(dp31
g6
F412
sg7
F2
sg8
F411
sg9
F3
sg10
F412
saa(lp32
V092905
p33
a(dp34
g6
F413
sg7
F2
sg8
F412
sg9
F1
sg10
F412
saa(lp35
V093020
p36
a(dp37
g6
F413
sg7
F3
sg8
F412
sg9
F1
sg10
F413
saa(lp38
V093110
p39
a(dp40
g6
F413
sg7
F3
sg8
F412
sg9
F3
sg10
F413
saa(lp41
V093236
p42
a(dp43
g6
F415
sg7
F5
sg8
F413
sg9
F1
sg10
F415
saa(lp44
V093456
p45
a(dp46
g6
F415
sg7
F3
sg8
F413
sg9
F1
sg10
F413
saa(lp47
V093607
p48
a(dp49
g6
F414.5
sg7
F4.5
sg8
F412
sg9
F1
sg10
F414.5
saa(lp50
V093712
p51
a(dp52
g6
F414.5
sg7
F2.5
sg8
F412.5
sg9
F1
sg10
F412.5
saa(lp53
V093958
p54
a(dp55
g6
F414
sg7
F4
sg8
F412
sg9
F1
sg10
F414
saa(lp56
V094208
p57
a(dp58
g6
F414
sg7
F4
sg8
F413
sg9
F1
sg10
F414
saa(lp59
V094414
p60
a(dp61
g6
F414
sg7
F5
sg8
F413
sg9
F3
sg10
F415
saa(lp62
V094535
p63
a(dp64
g6
F415
sg7
F3.5
sg8
F413.5
sg9
F1
sg10
F413.5
saa(lp65
V094605
p66
a(dp67
g6
F415
sg7
F5
sg8
F413.5
sg9
F1
sg10
F415
saa(lp68
V094815
p69
a(dp70
g6
F414.5
sg7
F3.5
sg8
F413.5
sg9
F1
sg10
F413.5
saa(lp71
V094850
p72
a(dp73
g6
F414.5
sg7
F4
sg8
F414
sg9
F1
sg10
F414
saa(lp74
V095131
p75
a(dp76
g6
F414.5
sg7
F4
sg8
F414
sg9
F1
sg10
F414
saa(lp77
V100550
p78
a(dp79
g6
F414.5
sg7
F3
sg8
F413
sg9
F2
sg10
F413
saa(lp80
V100931
p81
a(dp82
g6
F414
sg7
F3
sg8
F413
sg9
F1
sg10
F413
saa(lp83
V101447
p84
a(dp85
g6
F414
sg7
F4
sg8
F413
sg9
F1
sg10
F414
saa(lp86
V103433
p87
a(dp88
g6
F414
sg7
F3
sg8
F413
sg9
F1
sg10
F413
saa(lp89
V103929
p90
a(dp91
g6
F413
sg7
F2.5
sg8
F412.5
sg9
F1
sg10
F412.5
saa(lp92
V105042
p93
a(dp94
g6
F413
sg7
F2
sg8
F412
sg9
F1
sg10
F412
saa(lp95
V110557
p96
a(dp97
g6
F413
sg7
F1
sg8
F411
sg9
F1
sg10
F411
saa(lp98
V111911
p99
a(dp100
g6
F412.5
sg7
F2.5
sg8
F409.5
sg9
F1
sg10
F412.5
saa(lp101
V112718
p102
a(dp103
g6
F412.5
sg7
F1
sg8
F411
sg9
F1
sg10
F411
saa(lp104
V113736
p105
a(dp106
g6
F412.5
sg7
F0.5
sg8
F410.5
sg9
F2
sg10
F410.5
saa(lp107
V115125
p108
a(dp109
g6
F412
sg7
F-0.5
sg8
F409.5
sg9
F1
sg10
F409.5
saa(lp110
V121627
p111
a(dp112
g6
F411.5
sg7
F1.5
sg8
F409
sg9
F1
sg10
F411.5
saa(lp113
V121832
p114
a(dp115
g6
F411.5
sg7
F1.5
sg8
F410
sg9
F1
sg10
F411.5
saa(lp116
V122514
p117
a(dp118
g6
F411.5
sg7
F0
sg8
F410
sg9
F2
sg10
F410
saa(lp119
V122850
p120
a(dp121
g6
F409.5
sg7
F-0.5
sg8
F408.5
sg9
F1
sg10
F409.5
saa(lp122
V123411
p123
a(dp124
g6
F409.5
sg7
F-0.5
sg8
F408.5
sg9
F4
sg10
F409.5
saa(lp125
V123437
p126
a(dp127
g6
F411.5
sg7
F1.5
sg8
F408.5
sg9
F1
sg10
F411.5
saa(lp128
V123547
p129
a(dp130
g6
F411.5
sg7
F0
sg8
F410
sg9
F1
sg10
F410
saa(lp131
V124304
p132
a(dp133
g6
F411
sg7
F-0.5
sg8
F409.5
sg9
F4
sg10
F409.5
saa(lp134
V124309
p135
a(dp136
g6
F411
sg7
F-1
sg8
F409
sg9
F1
sg10
F409
saa(lp137
V124414
p138
a(dp139
g6
F410
sg7
F0
sg8
F408
sg9
F3
sg10
F410
saa(lp140
V124439
p141
a(dp142
g6
F410
sg7
F0
sg8
F408
sg9
F3
sg10
F410
saa(lp143
V124600
p144
a(dp145
g6
F410
sg7
F0
sg8
F408
sg9
F1
sg10
F410
saa(lp146
V125954
p147
a(dp148
g6
F410
sg7
F0
sg8
F408
sg9
F1
sg10
F410
saa(lp149
V131127
p150
a(dp151
g6
F410
sg7
F0
sg8
F408
sg9
F2
sg10
F410
saa(lp152
V131403
p153
a(dp154
g6
F412.5
sg7
F2.5
sg8
F409
sg9
F1
sg10
F412.5
saa(lp155
V131423
p156
a(dp157
g6
F412.5
sg7
F0
sg8
F410
sg9
F1
sg10
F410
saa(lp158
V132451
p159
a(dp160
g6
F410
sg7
F-1
sg8
F409
sg9
F1
sg10
F409
saa(lp161
V133000
p162
a(dp163
g6
F408.5
sg7
F-2
sg8
F407.5
sg9
F4
sg10
F408
saatRp164
.