ccollections
OrderedDict
p1
((lp2
(lp3
V090055
p4
a(dp5
S'sell'
p6
F411.5
sS'diff'
p7
F0.5
sS'buy'
p8
F411
sS'count'
p9
F1
sS'deal'
p10
F411.5
saa(lp11
V090401
p12
a(dp13
g6
F412
sg7
F0.5
sg8
F411.5
sg9
F1
sg10
F411.5
saa(lp14
V090406
p15
a(dp16
g6
F412
sg7
F1
sg8
F411
sg9
F1
sg10
F412
saa(lp17
V090537
p18
a(dp19
g6
F413.5
sg7
F2
sg8
F413
sg9
F1
sg10
F413
saa(lp20
V090542
p21
a(dp22
g6
F413.5
sg7
F2.5
sg8
F411
sg9
F1
sg10
F413.5
saa(lp23
V090632
p24
a(dp25
g6
F414
sg7
F2.5
sg8
F411
sg9
F1
sg10
F413.5
saa(lp26
V090747
p27
a(dp28
g6
F414
sg7
F3
sg8
F411
sg9
F1
sg10
F414
saa(lp29
V091017
p30
a(dp31
g6
F414
sg7
F3
sg8
F411.5
sg9
F1
sg10
F414
saa(lp32
V091514
p33
a(dp34
g6
F413.5
sg7
F1
sg8
F412
sg9
F1
sg10
F412
saa(lp35
V092602
p36
a(dp37
g6
F412
sg7
F0.5
sg8
F411.5
sg9
F1
sg10
F411.5
saa(lp38
V092607
p39
a(dp40
g6
F412
sg7
F0
sg8
F411
sg9
F1
sg10
F411
saa(lp41
V093821
p42
a(dp43
g6
F412
sg7
F0.5
sg8
F411.5
sg9
F1
sg10
F411.5
saa(lp44
V094628
p45
a(dp46
g6
F412
sg7
F1
sg8
F411.5
sg9
F1
sg10
F412
saa(lp47
V095445
p48
a(dp49
g6
F412
sg7
F1
sg8
F411.5
sg9
F1
sg10
F412
saa(lp50
V101531
p51
a(dp52
g6
F412
sg7
F0.5
sg8
F411.5
sg9
F1
sg10
F411.5
saa(lp53
V101606
p54
a(dp55
g6
F412
sg7
F0.5
sg8
F411.5
sg9
F1
sg10
F411.5
saa(lp56
V102358
p57
a(dp58
g6
F412
sg7
F1
sg8
F411
sg9
F1
sg10
F412
saa(lp59
V102443
p60
a(dp61
g6
F412
sg7
F0
sg8
F411
sg9
F2
sg10
F411
saa(lp62
V102453
p63
a(dp64
g6
F412
sg7
F0
sg8
F411
sg9
F1
sg10
F411
saa(lp65
V102840
p66
a(dp67
g6
F411.5
sg7
F0.5
sg8
F410
sg9
F1
sg10
F411.5
saa(lp68
V103010
p69
a(dp70
g6
F411.5
sg7
F0.5
sg8
F410
sg9
F3
sg10
F411.5
saa(lp71
V103110
p72
a(dp73
g6
F413
sg7
F2
sg8
F411.5
sg9
F1
sg10
F413
saa(lp74
V103205
p75
a(dp76
g6
F413
sg7
F2
sg8
F411.5
sg9
F2
sg10
F413
saa(lp77
V103311
p78
a(dp79
g6
F413.5
sg7
F0.5
sg8
F411.5
sg9
F2
sg10
F411.5
saa(lp80
V103411
p81
a(dp82
g6
F413
sg7
F2
sg8
F411
sg9
F2
sg10
F413
saa(lp83
V103416
p84
a(dp85
g6
F413.5
sg7
F2
sg8
F413
sg9
F1
sg10
F413
saa(lp86
V103441
p87
a(dp88
g6
F413
sg7
F0.5
sg8
F411.5
sg9
F1
sg10
F411.5
saa(lp89
V103537
p90
a(dp91
g6
F413
sg7
F0
sg8
F411
sg9
F3
sg10
F411
saa(lp92
V105206
p93
a(dp94
g6
F412
sg7
F0.5
sg8
F411.5
sg9
F1
sg10
F411.5
saa(lp95
V105236
p96
a(dp97
g6
F411.5
sg7
F0
sg8
F411
sg9
F1
sg10
F411
saa(lp98
V105456
p99
a(dp100
g6
F411.5
sg7
F-1
sg8
F410
sg9
F1
sg10
F410
saa(lp101
V110114
p102
a(dp103
g6
F410.5
sg7
F-1
sg8
F410
sg9
F1
sg10
F410
saa(lp104
V110119
p105
a(dp106
g6
F410.5
sg7
F-1
sg8
F410
sg9
F1
sg10
F410
saa(lp107
V110129
p108
a(dp109
g6
F410
sg7
F-1.5
sg8
F409.5
sg9
F1
sg10
F409.5
saa(lp110
V110139
p111
a(dp112
g6
F410
sg7
F-3
sg8
F408
sg9
F1
sg10
F408
saa(lp113
V110149
p114
a(dp115
g6
F407.5
sg7
F-3.5
sg8
F407
sg9
F1
sg10
F407.5
saa(lp116
V111016
p117
a(dp118
g6
F409
sg7
F-2
sg8
F407
sg9
F1
sg10
F409
saa(lp119
V113559
p120
a(dp121
g6
F411
sg7
F0
sg8
F409
sg9
F1
sg10
F411
saa(lp122
V113604
p123
a(dp124
g6
F411
sg7
F-1.5
sg8
F409
sg9
F1
sg10
F409.5
saa(lp125
V113909
p126
a(dp127
g6
F411
sg7
F-1.5
sg8
F409.5
sg9
F1
sg10
F409.5
saa(lp128
V115925
p129
a(dp130
g6
F411
sg7
F-1.5
sg8
F409.5
sg9
F1
sg10
F409.5
saa(lp131
V121519
p132
a(dp133
g6
F411
sg7
F0
sg8
F409.5
sg9
F1
sg10
F411
saa(lp134
V121850
p135
a(dp136
g6
F411
sg7
F0
sg8
F410
sg9
F1
sg10
F411
saa(lp137
V122502
p138
a(dp139
g6
F411
sg7
F-0.5
sg8
F410.5
sg9
F1
sg10
F410.5
saa(lp140
V122723
p141
a(dp142
g6
F411
sg7
F0
sg8
F410
sg9
F1
sg10
F411
saa(lp143
V122728
p144
a(dp145
g6
F411
sg7
F-1
sg8
F410
sg9
F1
sg10
F410
saa(lp146
V123535
p147
a(dp148
g6
F411.5
sg7
F-1
sg8
F410
sg9
F1
sg10
F410
saa(lp149
V123625
p150
a(dp151
g6
F411.5
sg7
F-1
sg8
F410
sg9
F1
sg10
F410
saa(lp152
V123635
p153
a(dp154
g6
F411.5
sg7
F0.5
sg8
F410
sg9
F1
sg10
F411.5
saa(lp155
V123816
p156
a(dp157
g6
F409.5
sg7
F-2
sg8
F409
sg9
F1
sg10
F409
saa(lp158
V123821
p159
a(dp160
g6
F409.5
sg7
F-2.5
sg8
F408.5
sg9
F1
sg10
F408.5
saa(lp161
V124457
p162
a(dp163
g6
F409.5
sg7
F-1.5
sg8
F408
sg9
F2
sg10
F409.5
saa(lp164
V124502
p165
a(dp166
g6
F409.5
sg7
F-2.5
sg8
F408
sg9
F1
sg10
F408.5
saa(lp167
V124934
p168
a(dp169
g6
F412
sg7
F-2
sg8
F409
sg9
F1
sg10
F409
saa(lp170
V124954
p171
a(dp172
g6
F411.5
sg7
F-2
sg8
F409
sg9
F1
sg10
F409
saa(lp173
V125139
p174
a(dp175
g6
F409
sg7
F-2
sg8
F408.5
sg9
F1
sg10
F409
saa(lp176
V125229
p177
a(dp178
g6
F409
sg7
F-2
sg8
F408.5
sg9
F1
sg10
F409
saa(lp179
V125340
p180
a(dp181
g6
F409
sg7
F-2
sg8
F408
sg9
F2
sg10
F409
saa(lp182
V125415
p183
a(dp184
g6
F409
sg7
F-2
sg8
F408
sg9
F2
sg10
F409
saa(lp185
V125500
p186
a(dp187
g6
F410
sg7
F-1
sg8
F408.5
sg9
F1
sg10
F410
saa(lp188
V125541
p189
a(dp190
g6
F410
sg7
F-1
sg8
F408.5
sg9
F1
sg10
F410
saa(lp191
V130357
p192
a(dp193
g6
F409
sg7
F-2.5
sg8
F408.5
sg9
F1
sg10
F408.5
saa(lp194
V131019
p195
a(dp196
g6
F409
sg7
F-2
sg8
F408
sg9
F1
sg10
F409
saa(lp197
V131837
p198
a(dp199
g6
F409
sg7
F-2.5
sg8
F408.5
sg9
F1
sg10
F408.5
saa(lp200
V132228
p201
a(dp202
g6
F409
sg7
F-3
sg8
F408
sg9
F1
sg10
F408
saa(lp203
V132458
p204
a(dp205
g6
F409
sg7
F-2
sg8
F408.5
sg9
F1
sg10
F409
saa(lp206
V133000
p207
a(dp208
g6
F410.5
sg7
F-1
sg8
F410
sg9
F5
sg10
F410
saatRp209
.