ccollections
OrderedDict
p1
((lp2
(lp3
V090025
p4
a(dp5
S'sell'
p6
F22.399999999999999
sS'diff'
p7
F-0.050000000000000003
sS'buy'
p8
F22.300000000000001
sS'count'
p9
F1
sS'deal'
p10
F22.350000000000001
saa(lp11
V090051
p12
a(dp13
g6
F22.399999999999999
sg7
F-0.29999999999999999
sg8
F22.350000000000001
sg9
F6
sg10
F22.100000000000001
saa(lp14
V090101
p15
a(dp16
g6
F22.399999999999999
sg7
F-0.40000000000000002
sg8
F22.100000000000001
sg9
F8
sg10
F22
saa(lp17
V090111
p18
a(dp19
g6
F22.399999999999999
sg7
F-0.40000000000000002
sg8
F22
sg9
F4
sg10
F22
saa(lp20
V090146
p21
a(dp22
g6
F22.399999999999999
sg7
F-0.050000000000000003
sg8
F22.350000000000001
sg9
F1
sg10
F22.350000000000001
saa(lp23
V090346
p24
a(dp25
g6
F22.399999999999999
sg7
F-0.050000000000000003
sg8
F22.350000000000001
sg9
F2
sg10
F22.350000000000001
saa(lp26
V090633
p27
a(dp28
g6
F22.350000000000001
sg7
F-0.050000000000000003
sg8
F22.300000000000001
sg9
F1
sg10
F22.350000000000001
saa(lp29
V090743
p30
a(dp31
g6
F22.399999999999999
sg7
F-0.050000000000000003
sg8
F22.350000000000001
sg9
F1
sg10
F22.350000000000001
saa(lp32
V090753
p33
a(dp34
g6
F22.350000000000001
sg7
F-0.050000000000000003
sg8
F22.300000000000001
sg9
F1
sg10
F22.350000000000001
saa(lp35
V090853
p36
a(dp37
g6
F22.399999999999999
sg7
F0
sg8
F22.350000000000001
sg9
F2
sg10
F22.399999999999999
saa(lp38
V091028
p39
a(dp40
g6
F22.399999999999999
sg7
F0
sg8
F22.300000000000001
sg9
F5
sg10
F22.399999999999999
saa(lp41
V091124
p42
a(dp43
g6
F22.399999999999999
sg7
F0
sg8
F22.300000000000001
sg9
F2
sg10
F22.399999999999999
saa(lp44
V091209
p45
a(dp46
g6
F22.399999999999999
sg7
F0
sg8
F22.300000000000001
sg9
F10
sg10
F22.399999999999999
saa(lp47
V091751
p48
a(dp49
g6
F22.399999999999999
sg7
F0
sg8
F22.300000000000001
sg9
F2
sg10
F22.399999999999999
saa(lp50
V091936
p51
a(dp52
g6
F22.399999999999999
sg7
F0
sg8
F22.300000000000001
sg9
F4
sg10
F22.399999999999999
saa(lp53
V092001
p54
a(dp55
g6
F22.399999999999999
sg7
F0
sg8
F22.300000000000001
sg9
F5
sg10
F22.399999999999999
saa(lp56
V092006
p57
a(dp58
g6
F22.449999999999999
sg7
F0.050000000000000003
sg8
F22.399999999999999
sg9
F1
sg10
F22.449999999999999
saa(lp59
V092011
p60
a(dp61
g6
F22.5
sg7
F0.10000000000000001
sg8
F22.449999999999999
sg9
F3
sg10
F22.5
saa(lp62
V092016
p63
a(dp64
g6
F22.600000000000001
sg7
F0.20000000000000001
sg8
F22.5
sg9
F1
sg10
F22.600000000000001
saa(lp65
V092021
p66
a(dp67
g6
F22.699999999999999
sg7
F0.29999999999999999
sg8
F22.600000000000001
sg9
F6
sg10
F22.699999999999999
saa(lp68
V092026
p69
a(dp70
g6
F22.699999999999999
sg7
F0.34999999999999998
sg8
F22.449999999999999
sg9
F5
sg10
F22.75
saa(lp71
V092111
p72
a(dp73
g6
F22.699999999999999
sg7
F0.29999999999999999
sg8
F22.5
sg9
F1
sg10
F22.699999999999999
saa(lp74
V092116
p75
a(dp76
g6
F22.75
sg7
F0.29999999999999999
sg8
F22.699999999999999
sg9
F15
sg10
F22.699999999999999
saa(lp77
V092121
p78
a(dp79
g6
F22.75
sg7
F0.29999999999999999
sg8
F22.699999999999999
sg9
F2
sg10
F22.699999999999999
saa(lp80
V092136
p81
a(dp82
g6
F22.75
sg7
F0.29999999999999999
sg8
F22.699999999999999
sg9
F1
sg10
F22.699999999999999
saa(lp83
V092141
p84
a(dp85
g6
F22.75
sg7
F0.29999999999999999
sg8
F22.699999999999999
sg9
F7
sg10
F22.699999999999999
saa(lp86
V092347
p87
a(dp88
g6
F22.699999999999999
sg7
F0.14999999999999999
sg8
F22.550000000000001
sg9
F1
sg10
F22.550000000000001
saa(lp89
V092728
p90
a(dp91
g6
F22.550000000000001
sg7
F0.10000000000000001
sg8
F22.5
sg9
F1
sg10
F22.5
saa(lp92
V092748
p93
a(dp94
g6
F22.550000000000001
sg7
F0.050000000000000003
sg8
F22.449999999999999
sg9
F2
sg10
F22.449999999999999
saa(lp95
V093425
p96
a(dp97
g6
F22.449999999999999
sg7
F0.050000000000000003
sg8
F22.399999999999999
sg9
F1
sg10
F22.449999999999999
saa(lp98
V093611
p99
a(dp100
g6
F22.449999999999999
sg7
F0.050000000000000003
sg8
F22.399999999999999
sg9
F1
sg10
F22.449999999999999
saa(lp101
V093856
p102
a(dp103
g6
F22.449999999999999
sg7
F0.050000000000000003
sg8
F22.399999999999999
sg9
F1
sg10
F22.449999999999999
saa(lp104
V094032
p105
a(dp106
g6
F22.449999999999999
sg7
F0
sg8
F22.399999999999999
sg9
F3
sg10
F22.399999999999999
saa(lp107
V094037
p108
a(dp109
g6
F22.449999999999999
sg7
F0.050000000000000003
sg8
F22.399999999999999
sg9
F1
sg10
F22.449999999999999
saa(lp110
V094157
p111
a(dp112
g6
F22.449999999999999
sg7
F0.050000000000000003
sg8
F22.399999999999999
sg9
F1
sg10
F22.449999999999999
saa(lp113
V094528
p114
a(dp115
g6
F22.449999999999999
sg7
F0.050000000000000003
sg8
F22.399999999999999
sg9
F5
sg10
F22.449999999999999
saa(lp116
V094554
p117
a(dp118
g6
F22.449999999999999
sg7
F0.050000000000000003
sg8
F22.399999999999999
sg9
F3
sg10
F22.449999999999999
saa(lp119
V094649
p120
a(dp121
g6
F22.449999999999999
sg7
F0.050000000000000003
sg8
F22.399999999999999
sg9
F3
sg10
F22.449999999999999
saa(lp122
V094719
p123
a(dp124
g6
F22.5
sg7
F0.050000000000000003
sg8
F22.449999999999999
sg9
F2
sg10
F22.449999999999999
saa(lp125
V095115
p126
a(dp127
g6
F22.5
sg7
F0.050000000000000003
sg8
F22.449999999999999
sg9
F1
sg10
F22.449999999999999
saa(lp128
V095120
p129
a(dp130
g6
F22.5
sg7
F0.050000000000000003
sg8
F22.449999999999999
sg9
F5
sg10
F22.449999999999999
saa(lp131
V095125
p132
a(dp133
g6
F22.5
sg7
F0.050000000000000003
sg8
F22.449999999999999
sg9
F1
sg10
F22.449999999999999
saa(lp134
V095240
p135
a(dp136
g6
F22.5
sg7
F0.10000000000000001
sg8
F22.399999999999999
sg9
F1
sg10
F22.5
saa(lp137
V095305
p138
a(dp139
g6
F22.5
sg7
F0.10000000000000001
sg8
F22.399999999999999
sg9
F2
sg10
F22.5
saa(lp140
V095657
p141
a(dp142
g6
F22.5
sg7
F0.10000000000000001
sg8
F22.399999999999999
sg9
F1
sg10
F22.5
saa(lp143
V095857
p144
a(dp145
g6
F22.5
sg7
F0.10000000000000001
sg8
F22.399999999999999
sg9
F3
sg10
F22.5
saa(lp146
V100208
p147
a(dp148
g6
F22.5
sg7
F0.10000000000000001
sg8
F22.399999999999999
sg9
F1
sg10
F22.5
saa(lp149
V100438
p150
a(dp151
g6
F22.5
sg7
F0.10000000000000001
sg8
F22.399999999999999
sg9
F1
sg10
F22.5
saa(lp152
V100825
p153
a(dp154
g6
F22.5
sg7
F0.10000000000000001
sg8
F22.399999999999999
sg9
F3
sg10
F22.5
saa(lp155
V101005
p156
a(dp157
g6
F22.550000000000001
sg7
F0.14999999999999999
sg8
F22.5
sg9
F4
sg10
F22.550000000000001
saa(lp158
V101030
p159
a(dp160
g6
F22.550000000000001
sg7
F0.10000000000000001
sg8
F22.5
sg9
F1
sg10
F22.5
saa(lp161
V101105
p162
a(dp163
g6
F22.550000000000001
sg7
F0.20000000000000001
sg8
F22.5
sg9
F5
sg10
F22.600000000000001
saa(lp164
V101236
p165
a(dp166
g6
F22.600000000000001
sg7
F0.20000000000000001
sg8
F22.550000000000001
sg9
F2
sg10
F22.600000000000001
saa(lp167
V101241
p168
a(dp169
g6
F22.649999999999999
sg7
F0.14999999999999999
sg8
F22.550000000000001
sg9
F1
sg10
F22.550000000000001
saa(lp170
V101903
p171
a(dp172
g6
F22.600000000000001
sg7
F0.20000000000000001
sg8
F22.550000000000001
sg9
F4
sg10
F22.600000000000001
saa(lp173
V101908
p174
a(dp175
g6
F22.649999999999999
sg7
F0.14999999999999999
sg8
F22.550000000000001
sg9
F1
sg10
F22.550000000000001
saa(lp176
V102259
p177
a(dp178
g6
F22.600000000000001
sg7
F0.14999999999999999
sg8
F22.550000000000001
sg9
F1
sg10
F22.550000000000001
saa(lp179
V102459
p180
a(dp181
g6
F22.600000000000001
sg7
F0.14999999999999999
sg8
F22.550000000000001
sg9
F1
sg10
F22.550000000000001
saa(lp182
V102725
p183
a(dp184
g6
F22.600000000000001
sg7
F0.14999999999999999
sg8
F22.550000000000001
sg9
F1
sg10
F22.550000000000001
saa(lp185
V102850
p186
a(dp187
g6
F22.600000000000001
sg7
F0.14999999999999999
sg8
F22.550000000000001
sg9
F1
sg10
F22.550000000000001
saa(lp188
V102900
p189
a(dp190
g6
F22.600000000000001
sg7
F0.14999999999999999
sg8
F22.550000000000001
sg9
F1
sg10
F22.550000000000001
saa(lp191
V103231
p192
a(dp193
g6
F22.600000000000001
sg7
F0.14999999999999999
sg8
F22.550000000000001
sg9
F1
sg10
F22.550000000000001
saa(lp194
V103327
p195
a(dp196
g6
F22.600000000000001
sg7
F0.14999999999999999
sg8
F22.550000000000001
sg9
F1
sg10
F22.550000000000001
saa(lp197
V103402
p198
a(dp199
g6
F22.600000000000001
sg7
F0.14999999999999999
sg8
F22.550000000000001
sg9
F1
sg10
F22.550000000000001
saa(lp200
V103633
p201
a(dp202
g6
F22.600000000000001
sg7
F0.10000000000000001
sg8
F22.5
sg9
F5
sg10
F22.5
saa(lp203
V104129
p204
a(dp205
g6
F22.5
sg7
F0
sg8
F22.399999999999999
sg9
F1
sg10
F22.399999999999999
saa(lp206
V104806
p207
a(dp208
g6
F22.449999999999999
sg7
F0.050000000000000003
sg8
F22.399999999999999
sg9
F2
sg10
F22.449999999999999
saa(lp209
V105122
p210
a(dp211
g6
F22.449999999999999
sg7
F0.050000000000000003
sg8
F22.399999999999999
sg9
F1
sg10
F22.449999999999999
saa(lp212
V105317
p213
a(dp214
g6
F22.449999999999999
sg7
F0
sg8
F22.399999999999999
sg9
F1
sg10
F22.399999999999999
saa(lp215
V110812
p216
a(dp217
g6
F22.449999999999999
sg7
F0
sg8
F22.399999999999999
sg9
F10
sg10
F22.399999999999999
saa(lp218
V110817
p219
a(dp220
g6
F22.449999999999999
sg7
F0
sg8
F22.399999999999999
sg9
F3
sg10
F22.399999999999999
saa(lp221
V110822
p222
a(dp223
g6
F22.449999999999999
sg7
F0
sg8
F22.399999999999999
sg9
F1
sg10
F22.399999999999999
saa(lp224
V111724
p225
a(dp226
g6
F22.449999999999999
sg7
F0
sg8
F22.399999999999999
sg9
F1
sg10
F22.399999999999999
saa(lp227
V111814
p228
a(dp229
g6
F22.399999999999999
sg7
F0
sg8
F22.350000000000001
sg9
F1
sg10
F22.399999999999999
saa(lp230
V112120
p231
a(dp232
g6
F22.449999999999999
sg7
F0.050000000000000003
sg8
F22.350000000000001
sg9
F1
sg10
F22.449999999999999
saa(lp233
V112326
p234
a(dp235
g6
F22.449999999999999
sg7
F0.050000000000000003
sg8
F22.399999999999999
sg9
F1
sg10
F22.449999999999999
saa(lp236
V112411
p237
a(dp238
g6
F22.449999999999999
sg7
F0.050000000000000003
sg8
F22.399999999999999
sg9
F1
sg10
F22.449999999999999
saa(lp239
V112431
p240
a(dp241
g6
F22.449999999999999
sg7
F0
sg8
F22.399999999999999
sg9
F1
sg10
F22.399999999999999
saa(lp242
V112957
p243
a(dp244
g6
F22.449999999999999
sg7
F0
sg8
F22.399999999999999
sg9
F3
sg10
F22.399999999999999
saa(lp245
V113705
p246
a(dp247
g6
F22.449999999999999
sg7
F0
sg8
F22.399999999999999
sg9
F1
sg10
F22.399999999999999
saa(lp248
V120331
p249
a(dp250
g6
F22.399999999999999
sg7
F0
sg8
F22.350000000000001
sg9
F1
sg10
F22.399999999999999
saa(lp251
V120427
p252
a(dp253
g6
F22.399999999999999
sg7
F0
sg8
F22.350000000000001
sg9
F2
sg10
F22.399999999999999
saa(lp254
V120643
p255
a(dp256
g6
F22.399999999999999
sg7
F0
sg8
F22.350000000000001
sg9
F13
sg10
F22.399999999999999
saa(lp257
V120828
p258
a(dp259
g6
F22.399999999999999
sg7
F0
sg8
F22.350000000000001
sg9
F5
sg10
F22.399999999999999
saa(lp260
V121520
p261
a(dp262
g6
F22.449999999999999
sg7
F0
sg8
F22.399999999999999
sg9
F6
sg10
F22.399999999999999
saa(lp263
V122217
p264
a(dp265
g6
F22.399999999999999
sg7
F-0.050000000000000003
sg8
F22.350000000000001
sg9
F1
sg10
F22.350000000000001
saa(lp266
V122507
p267
a(dp268
g6
F22.399999999999999
sg7
F-0.050000000000000003
sg8
F22.350000000000001
sg9
F3
sg10
F22.350000000000001
saa(lp269
V122512
p270
a(dp271
g6
F22.399999999999999
sg7
F-0.050000000000000003
sg8
F22.350000000000001
sg9
F1
sg10
F22.350000000000001
saa(lp272
V123315
p273
a(dp274
g6
F22.399999999999999
sg7
F-0.050000000000000003
sg8
F22.350000000000001
sg9
F20
sg10
F22.350000000000001
saa(lp275
V123320
p276
a(dp277
g6
F22.399999999999999
sg7
F-0.10000000000000001
sg8
F22.300000000000001
sg9
F1
sg10
F22.300000000000001
saa(lp278
V123350
p279
a(dp280
g6
F22.399999999999999
sg7
F0
sg8
F22.300000000000001
sg9
F10
sg10
F22.399999999999999
saa(lp281
V123721
p282
a(dp283
g6
F22.399999999999999
sg7
F0
sg8
F22.300000000000001
sg9
F15
sg10
F22.399999999999999
saa(lp284
V123916
p285
a(dp286
g6
F22.399999999999999
sg7
F-0.050000000000000003
sg8
F22.350000000000001
sg9
F1
sg10
F22.350000000000001
saa(lp287
V124016
p288
a(dp289
g6
F22.399999999999999
sg7
F0
sg8
F22.300000000000001
sg9
F1
sg10
F22.399999999999999
saa(lp290
V125722
p291
a(dp292
g6
F22.399999999999999
sg7
F-0.10000000000000001
sg8
F22.300000000000001
sg9
F18
sg10
F22.300000000000001
saa(lp293
V125732
p294
a(dp295
g6
F22.399999999999999
sg7
F-0.10000000000000001
sg8
F22.300000000000001
sg9
F1
sg10
F22.300000000000001
saa(lp296
V125747
p297
a(dp298
g6
F22.300000000000001
sg7
F-0.10000000000000001
sg8
F22.25
sg9
F1
sg10
F22.300000000000001
saa(lp299
V125917
p300
a(dp301
g6
F22.300000000000001
sg7
F-0.14999999999999999
sg8
F22.25
sg9
F1
sg10
F22.25
saa(lp302
V125932
p303
a(dp304
g6
F22.300000000000001
sg7
F-0.10000000000000001
sg8
F22.25
sg9
F2
sg10
F22.300000000000001
saa(lp305
V125937
p306
a(dp307
g6
F22.350000000000001
sg7
F-0.10000000000000001
sg8
F22.300000000000001
sg9
F1
sg10
F22.300000000000001
saa(lp308
V130002
p309
a(dp310
g6
F22.300000000000001
sg7
F-0.14999999999999999
sg8
F22.25
sg9
F2
sg10
F22.25
saa(lp311
V130243
p312
a(dp313
g6
F22.300000000000001
sg7
F-0.14999999999999999
sg8
F22.25
sg9
F1
sg10
F22.25
saa(lp314
V130343
p315
a(dp316
g6
F22.300000000000001
sg7
F-0.10000000000000001
sg8
F22.25
sg9
F1
sg10
F22.300000000000001
saa(lp317
V130800
p318
a(dp319
g6
F22.300000000000001
sg7
F-0.10000000000000001
sg8
F22.25
sg9
F1
sg10
F22.300000000000001
saa(lp320
V130905
p321
a(dp322
g6
F22.300000000000001
sg7
F-0.14999999999999999
sg8
F22.25
sg9
F5
sg10
F22.25
saa(lp323
V130930
p324
a(dp325
g6
F22.300000000000001
sg7
F-0.14999999999999999
sg8
F22.25
sg9
F1
sg10
F22.25
saa(lp326
V130945
p327
a(dp328
g6
F22.300000000000001
sg7
F-0.14999999999999999
sg8
F22.25
sg9
F2
sg10
F22.25
saa(lp329
V131000
p330
a(dp331
g6
F22.300000000000001
sg7
F-0.20000000000000001
sg8
F22.199999999999999
sg9
F1
sg10
F22.199999999999999
saa(lp332
V131105
p333
a(dp334
g6
F22.25
sg7
F-0.20000000000000001
sg8
F22.199999999999999
sg9
F2
sg10
F22.199999999999999
saa(lp335
V131226
p336
a(dp337
g6
F22.25
sg7
F-0.20000000000000001
sg8
F22.199999999999999
sg9
F20
sg10
F22.199999999999999
saa(lp338
V131411
p339
a(dp340
g6
F22.25
sg7
F-0.20000000000000001
sg8
F22.199999999999999
sg9
F4
sg10
F22.199999999999999
saa(lp341
V131617
p342
a(dp343
g6
F22.25
sg7
F-0.14999999999999999
sg8
F22.199999999999999
sg9
F5
sg10
F22.25
saa(lp344
V131848
p345
a(dp346
g6
F22.25
sg7
F-0.14999999999999999
sg8
F22.199999999999999
sg9
F1
sg10
F22.25
saa(lp347
V132003
p348
a(dp349
g6
F22.25
sg7
F-0.20000000000000001
sg8
F22.199999999999999
sg9
F1
sg10
F22.199999999999999
saa(lp350
V132133
p351
a(dp352
g6
F22.25
sg7
F-0.20000000000000001
sg8
F22.199999999999999
sg9
F1
sg10
F22.199999999999999
saa(lp353
V132229
p354
a(dp355
g6
F22.25
sg7
F-0.14999999999999999
sg8
F22.199999999999999
sg9
F1
sg10
F22.25
saa(lp356
V132234
p357
a(dp358
g6
F22.25
sg7
F-0.20000000000000001
sg8
F22.199999999999999
sg9
F1
sg10
F22.199999999999999
saa(lp359
V132324
p360
a(dp361
g6
F22.25
sg7
F-0.20000000000000001
sg8
F22.199999999999999
sg9
F1
sg10
F22.199999999999999
saa(lp362
V132349
p363
a(dp364
g6
F22.25
sg7
F-0.20000000000000001
sg8
F22.199999999999999
sg9
F1
sg10
F22.199999999999999
saa(lp365
V132419
p366
a(dp367
g6
F22.25
sg7
F-0.14999999999999999
sg8
F22.199999999999999
sg9
F2
sg10
F22.25
saa(lp368
V132444
p369
a(dp370
g6
F22.25
sg7
F-0.20000000000000001
sg8
F22.199999999999999
sg9
F1
sg10
F22.199999999999999
saa(lp371
V133000
p372
a(dp373
g6
F22.25
sg7
F-0.20000000000000001
sg8
F22.199999999999999
sg9
F57
sg10
F22.199999999999999
saatRp374
.