ccollections
OrderedDict
p0
((lp1
(lp2
V090016
p3
a(dp4
S'sell'
p5
F63.2
sS'diff'
p6
F-0.6
sS'buy'
p7
F62.8
sS'count'
p8
F3.0
sS'deal'
p9
F62.8
saa(lp10
V090021
p11
a(dp12
g5
F62.8
sg6
F-0.8
sg7
F62.6
sg8
F1.0
sg9
F62.6
saa(lp13
V090031
p14
a(dp15
g5
F62.6
sg6
F-0.9
sg7
F62.5
sg8
F6.0
sg9
F62.5
saa(lp16
V090036
p17
a(dp18
g5
F62.5
sg6
F-0.9
sg7
F62.3
sg8
F2.0
sg9
F62.5
saa(lp19
V090041
p20
a(dp21
g5
F62.6
sg6
F-0.8
sg7
F62.3
sg8
F2.0
sg9
F62.6
saa(lp22
V090046
p23
a(dp24
g5
F62.6
sg6
F-1.1
sg7
F62.3
sg8
F1.0
sg9
F62.3
saa(lp25
V090051
p26
a(dp27
g5
F62.6
sg6
F-1.1
sg7
F62.3
sg8
F2.0
sg9
F62.3
saa(lp28
V090117
p29
a(dp30
g5
F62.6
sg6
F-0.9
sg7
F62.5
sg8
F1.0
sg9
F62.5
saa(lp31
V090122
p32
a(dp33
g5
F62.5
sg6
F-1.0
sg7
F62.4
sg8
F2.0
sg9
F62.4
saa(lp34
V090127
p35
a(dp36
g5
F62.4
sg6
F-1.0
sg7
F62.3
sg8
F1.0
sg9
F62.4
saa(lp37
V090137
p38
a(dp39
g5
F62.4
sg6
F-1.0
sg7
F62.3
sg8
F1.0
sg9
F62.4
saa(lp40
V090142
p41
a(dp42
g5
F62.4
sg6
F-1.0
sg7
F62.3
sg8
F2.0
sg9
F62.4
saa(lp43
V090147
p44
a(dp45
g5
F62.4
sg6
F-1.0
sg7
F62.3
sg8
F3.0
sg9
F62.4
saa(lp46
V090157
p47
a(dp48
g5
F62.8
sg6
F-1.0
sg7
F62.4
sg8
F1.0
sg9
F62.4
saa(lp49
V090202
p50
a(dp51
g5
F62.8
sg6
F-0.6
sg7
F62.4
sg8
F1.0
sg9
F62.8
saa(lp52
V090352
p53
a(dp54
g5
F62.9
sg6
F-0.6
sg7
F62.8
sg8
F1.0
sg9
F62.8
saa(lp55
V090408
p56
a(dp57
g5
F62.9
sg6
F-0.6
sg7
F62.8
sg8
F1.0
sg9
F62.8
saa(lp58
V090413
p59
a(dp60
g5
F62.9
sg6
F-0.5
sg7
F62.8
sg8
F1.0
sg9
F62.9
saa(lp61
V090418
p62
a(dp63
g5
F62.9
sg6
F-0.6
sg7
F62.8
sg8
F1.0
sg9
F62.8
saa(lp64
V090423
p65
a(dp66
g5
F62.9
sg6
F-0.6
sg7
F62.8
sg8
F1.0
sg9
F62.8
saa(lp67
V090428
p68
a(dp69
g5
F62.9
sg6
F-0.6
sg7
F62.8
sg8
F2.0
sg9
F62.8
saa(lp70
V090448
p71
a(dp72
g5
F62.9
sg6
F-0.6
sg7
F62.8
sg8
F2.0
sg9
F62.8
saa(lp73
V090453
p74
a(dp75
g5
F62.9
sg6
F-0.6
sg7
F62.8
sg8
F1.0
sg9
F62.8
saa(lp76
V090458
p77
a(dp78
g5
F62.8
sg6
F-0.7
sg7
F62.7
sg8
F1.0
sg9
F62.7
saa(lp79
V090518
p80
a(dp81
g5
F62.7
sg6
F-0.8
sg7
F62.6
sg8
F1.0
sg9
F62.6
saa(lp82
V090618
p83
a(dp84
g5
F62.7
sg6
F-0.8
sg7
F62.6
sg8
F2.0
sg9
F62.6
saa(lp85
V090623
p86
a(dp87
g5
F62.7
sg6
F-0.8
sg7
F62.6
sg8
F1.0
sg9
F62.6
saa(lp88
V090643
p89
a(dp90
g5
F62.7
sg6
F-0.8
sg7
F62.6
sg8
F2.0
sg9
F62.6
saa(lp91
V090658
p92
a(dp93
g5
F62.7
sg6
F-0.7
sg7
F62.6
sg8
F1.0
sg9
F62.7
saa(lp94
V090703
p95
a(dp96
g5
F62.7
sg6
F-0.8
sg7
F62.6
sg8
F4.0
sg9
F62.6
saa(lp97
V090708
p98
a(dp99
g5
F62.7
sg6
F-0.8
sg7
F62.6
sg8
F2.0
sg9
F62.6
saa(lp100
V090728
p101
a(dp102
g5
F62.7
sg6
F-0.7
sg7
F62.6
sg8
F1.0
sg9
F62.7
saa(lp103
V090733
p104
a(dp105
g5
F62.7
sg6
F-0.7
sg7
F62.6
sg8
F7.0
sg9
F62.7
saa(lp106
V090743
p107
a(dp108
g5
F62.8
sg6
F-0.6
sg7
F62.7
sg8
F5.0
sg9
F62.8
saa(lp109
V090748
p110
a(dp111
g5
F62.8
sg6
F-0.6
sg7
F62.7
sg8
F1.0
sg9
F62.8
saa(lp112
V090753
p113
a(dp114
g5
F62.9
sg6
F-0.6
sg7
F62.7
sg8
F1.0
sg9
F62.8
saa(lp115
V090844
p116
a(dp117
g5
F62.9
sg6
F-0.5
sg7
F62.8
sg8
F1.0
sg9
F62.9
saa(lp118
V090859
p119
a(dp120
g5
F62.9
sg6
F-0.5
sg7
F62.8
sg8
F1.0
sg9
F62.9
saa(lp121
V090904
p122
a(dp123
g5
F62.9
sg6
F-0.5
sg7
F62.8
sg8
F3.0
sg9
F62.9
saa(lp124
V090914
p125
a(dp126
g5
F63.0
sg6
F-0.3
sg7
F62.9
sg8
F3.0
sg9
F63.1
saa(lp127
V090949
p128
a(dp129
g5
F63.3
sg6
F-0.3
sg7
F63.2
sg8
F1.0
sg9
F63.1
saa(lp130
V091014
p131
a(dp132
g5
F63.3
sg6
F-0.4
sg7
F63.0
sg8
F2.0
sg9
F63.0
saa(lp133
V091024
p134
a(dp135
g5
F63.0
sg6
F-0.4
sg7
F62.9
sg8
F1.0
sg9
F63.0
saa(lp136
V091029
p137
a(dp138
g5
F63.1
sg6
F-0.4
sg7
F62.9
sg8
F1.0
sg9
F63.0
saa(lp139
V091034
p140
a(dp141
g5
F63.1
sg6
F-0.4
sg7
F63.0
sg8
F1.0
sg9
F63.0
saa(lp142
V091044
p143
a(dp144
g5
F63.0
sg6
F-0.5
sg7
F62.9
sg8
F1.0
sg9
F62.9
saa(lp145
V091049
p146
a(dp147
g5
F63.0
sg6
F-0.5
sg7
F62.9
sg8
F1.0
sg9
F62.9
saa(lp148
V091059
p149
a(dp150
g5
F63.0
sg6
F-0.5
sg7
F62.9
sg8
F2.0
sg9
F62.9
saa(lp151
V091134
p152
a(dp153
g5
F63.0
sg6
F-0.5
sg7
F62.9
sg8
F1.0
sg9
F62.9
saa(lp154
V091159
p155
a(dp156
g5
F63.0
sg6
F-0.5
sg7
F62.9
sg8
F1.0
sg9
F62.9
saa(lp157
V091204
p158
a(dp159
g5
F63.0
sg6
F-0.5
sg7
F62.9
sg8
F3.0
sg9
F62.9
saa(lp160
V091209
p161
a(dp162
g5
F62.9
sg6
F-0.6
sg7
F62.8
sg8
F3.0
sg9
F62.8
saa(lp163
V091235
p164
a(dp165
g5
F62.9
sg6
F-0.6
sg7
F62.8
sg8
F2.0
sg9
F62.8
saa(lp166
V091255
p167
a(dp168
g5
F63.0
sg6
F-0.4
sg7
F62.7
sg8
F1.0
sg9
F63.0
saa(lp169
V091325
p170
a(dp171
g5
F62.9
sg6
F-0.5
sg7
F62.7
sg8
F1.0
sg9
F62.9
saa(lp172
V091355
p173
a(dp174
g5
F62.9
sg6
F-0.6
sg7
F62.8
sg8
F1.0
sg9
F62.8
saa(lp175
V091456
p176
a(dp177
g5
F62.8
sg6
F-0.6
sg7
F62.7
sg8
F1.0
sg9
F62.8
saa(lp178
V091501
p179
a(dp180
g5
F62.8
sg6
F-0.6
sg7
F62.7
sg8
F1.0
sg9
F62.8
saa(lp181
V091506
p182
a(dp183
g5
F62.8
sg6
F-0.6
sg7
F62.7
sg8
F3.0
sg9
F62.8
saa(lp184
V091531
p185
a(dp186
g5
F62.8
sg6
F-0.7
sg7
F62.7
sg8
F1.0
sg9
F62.7
saa(lp187
V091536
p188
a(dp189
g5
F62.8
sg6
F-0.7
sg7
F62.7
sg8
F1.0
sg9
F62.7
saa(lp190
V091611
p191
a(dp192
g5
F62.8
sg6
F-0.6
sg7
F62.7
sg8
F1.0
sg9
F62.8
saa(lp193
V091626
p194
a(dp195
g5
F62.8
sg6
F-0.6
sg7
F62.7
sg8
F1.0
sg9
F62.8
saa(lp196
V091631
p197
a(dp198
g5
F62.8
sg6
F-0.6
sg7
F62.7
sg8
F1.0
sg9
F62.8
saa(lp199
V091641
p200
a(dp201
g5
F62.8
sg6
F-0.6
sg7
F62.7
sg8
F1.0
sg9
F62.8
saa(lp202
V091656
p203
a(dp204
g5
F62.9
sg6
F-0.7
sg7
F62.7
sg8
F2.0
sg9
F62.7
saa(lp205
V091731
p206
a(dp207
g5
F62.8
sg6
F-0.6
sg7
F62.7
sg8
F1.0
sg9
F62.8
saa(lp208
V091736
p209
a(dp210
g5
F62.9
sg6
F-0.6
sg7
F62.8
sg8
F1.0
sg9
F62.8
saa(lp211
V091741
p212
a(dp213
g5
F62.9
sg6
F-0.5
sg7
F62.8
sg8
F2.0
sg9
F62.9
saa(lp214
V091756
p215
a(dp216
g5
F62.9
sg6
F-0.6
sg7
F62.8
sg8
F1.0
sg9
F62.8
saa(lp217
V091821
p218
a(dp219
g5
F62.9
sg6
F-0.6
sg7
F62.8
sg8
F1.0
sg9
F62.8
saa(lp220
V091846
p221
a(dp222
g5
F62.8
sg6
F-0.7
sg7
F62.7
sg8
F1.0
sg9
F62.7
saa(lp223
V091856
p224
a(dp225
g5
F62.8
sg6
F-0.6
sg7
F62.7
sg8
F1.0
sg9
F62.8
saa(lp226
V091927
p227
a(dp228
g5
F62.9
sg6
F-0.5
sg7
F62.8
sg8
F2.0
sg9
F62.9
saa(lp229
V091932
p230
a(dp231
g5
F62.9
sg6
F-0.5
sg7
F62.8
sg8
F5.0
sg9
F62.9
saa(lp232
V091942
p233
a(dp234
g5
F62.9
sg6
F-0.5
sg7
F62.8
sg8
F1.0
sg9
F62.9
saa(lp235
V091947
p236
a(dp237
g5
F62.9
sg6
F-0.4
sg7
F62.8
sg8
F5.0
sg9
F63.0
saa(lp238
V091957
p239
a(dp240
g5
F63.0
sg6
F-0.5
sg7
F62.9
sg8
F3.0
sg9
F62.9
saa(lp241
V092002
p242
a(dp243
g5
F62.9
sg6
F-0.5
sg7
F62.8
sg8
F1.0
sg9
F62.9
saa(lp244
V092147
p245
a(dp246
g5
F63.0
sg6
F-0.5
sg7
F62.9
sg8
F2.0
sg9
F62.9
saa(lp247
V092152
p248
a(dp249
g5
F63.0
sg6
F-0.5
sg7
F62.9
sg8
F1.0
sg9
F62.9
saa(lp250
V092217
p251
a(dp252
g5
F63.0
sg6
F-0.5
sg7
F62.9
sg8
F1.0
sg9
F62.9
saa(lp253
V092237
p254
a(dp255
g5
F63.0
sg6
F-0.4
sg7
F62.9
sg8
F1.0
sg9
F63.0
saa(lp256
V092242
p257
a(dp258
g5
F63.0
sg6
F-0.5
sg7
F62.9
sg8
F2.0
sg9
F62.9
saa(lp259
V092308
p260
a(dp261
g5
F62.9
sg6
F-0.5
sg7
F62.8
sg8
F1.0
sg9
F62.9
saa(lp262
V092418
p263
a(dp264
g5
F62.9
sg6
F-0.6
sg7
F62.8
sg8
F1.0
sg9
F62.8
saa(lp265
V092443
p266
a(dp267
g5
F62.9
sg6
F-0.6
sg7
F62.8
sg8
F3.0
sg9
F62.8
saa(lp268
V092448
p269
a(dp270
g5
F62.9
sg6
F-0.6
sg7
F62.8
sg8
F3.0
sg9
F62.8
saa(lp271
V092504
p272
a(dp273
g5
F62.9
sg6
F-0.6
sg7
F62.8
sg8
F1.0
sg9
F62.8
saa(lp274
V092514
p275
a(dp276
g5
F62.9
sg6
F-0.6
sg7
F62.8
sg8
F4.0
sg9
F62.8
saa(lp277
V092524
p278
a(dp279
g5
F62.9
sg6
F-0.6
sg7
F62.8
sg8
F3.0
sg9
F62.8
saa(lp280
V092529
p281
a(dp282
g5
F62.9
sg6
F-0.6
sg7
F62.8
sg8
F1.0
sg9
F62.8
saa(lp283
V092539
p284
a(dp285
g5
F62.8
sg6
F-0.6
sg7
F62.7
sg8
F1.0
sg9
F62.8
saa(lp286
V092634
p287
a(dp288
g5
F62.9
sg6
F-0.6
sg7
F62.8
sg8
F1.0
sg9
F62.8
saa(lp289
V092704
p290
a(dp291
g5
F62.9
sg6
F-0.7
sg7
F62.7
sg8
F1.0
sg9
F62.7
saa(lp292
V092749
p293
a(dp294
g5
F62.8
sg6
F-0.6
sg7
F62.7
sg8
F3.0
sg9
F62.8
saa(lp295
V092814
p296
a(dp297
g5
F62.9
sg6
F-0.7
sg7
F62.7
sg8
F2.0
sg9
F62.7
saa(lp298
V092914
p299
a(dp300
g5
F62.9
sg6
F-0.6
sg7
F62.8
sg8
F1.0
sg9
F62.8
saa(lp301
V093020
p302
a(dp303
g5
F62.8
sg6
F-0.7
sg7
F62.7
sg8
F7.0
sg9
F62.7
saa(lp304
V093025
p305
a(dp306
g5
F62.8
sg6
F-0.7
sg7
F62.7
sg8
F6.0
sg9
F62.7
saa(lp307
V093030
p308
a(dp309
g5
F62.8
sg6
F-0.7
sg7
F62.7
sg8
F2.0
sg9
F62.7
saa(lp310
V093035
p311
a(dp312
g5
F62.7
sg6
F-0.8
sg7
F62.6
sg8
F7.0
sg9
F62.6
saa(lp313
V093040
p314
a(dp315
g5
F62.7
sg6
F-0.8
sg7
F62.6
sg8
F5.0
sg9
F62.6
saa(lp316
V093045
p317
a(dp318
g5
F62.7
sg6
F-0.9
sg7
F62.5
sg8
F1.0
sg9
F62.5
saa(lp319
V093115
p320
a(dp321
g5
F62.7
sg6
F-0.9
sg7
F62.5
sg8
F2.0
sg9
F62.5
saa(lp322
V093130
p323
a(dp324
g5
F62.7
sg6
F-0.8
sg7
F62.6
sg8
F2.0
sg9
F62.6
saa(lp325
V093200
p326
a(dp327
g5
F62.6
sg6
F-0.9
sg7
F62.5
sg8
F1.0
sg9
F62.5
saa(lp328
V093205
p329
a(dp330
g5
F62.6
sg6
F-0.8
sg7
F62.5
sg8
F1.0
sg9
F62.6
saa(lp331
V093235
p332
a(dp333
g5
F62.6
sg6
F-0.8
sg7
F62.5
sg8
F2.0
sg9
F62.6
saa(lp334
V093245
p335
a(dp336
g5
F62.6
sg6
F-0.8
sg7
F62.5
sg8
F3.0
sg9
F62.6
saa(lp337
V093315
p338
a(dp339
g5
F62.8
sg6
F-0.8
sg7
F62.6
sg8
F2.0
sg9
F62.6
saa(lp340
V093406
p341
a(dp342
g5
F62.6
sg6
F-0.8
sg7
F62.5
sg8
F1.0
sg9
F62.6
saa(lp343
V093431
p344
a(dp345
g5
F62.6
sg6
F-0.8
sg7
F62.5
sg8
F1.0
sg9
F62.6
saa(lp346
V093441
p347
a(dp348
g5
F62.6
sg6
F-0.8
sg7
F62.5
sg8
F3.0
sg9
F62.6
saa(lp349
V093446
p350
a(dp351
g5
F62.6
sg6
F-0.8
sg7
F62.5
sg8
F2.0
sg9
F62.6
saa(lp352
V093451
p353
a(dp354
g5
F62.6
sg6
F-0.9
sg7
F62.5
sg8
F1.0
sg9
F62.5
saa(lp355
V093506
p356
a(dp357
g5
F62.6
sg6
F-0.9
sg7
F62.5
sg8
F13.0
sg9
F62.5
saa(lp358
V093511
p359
a(dp360
g5
F62.6
sg6
F-1.0
sg7
F62.4
sg8
F1.0
sg9
F62.4
saa(lp361
V093526
p362
a(dp363
g5
F62.6
sg6
F-1.0
sg7
F62.4
sg8
F18.0
sg9
F62.4
saa(lp364
V093531
p365
a(dp366
g5
F62.4
sg6
F-1.1
sg7
F62.3
sg8
F5.0
sg9
F62.3
saa(lp367
V093536
p368
a(dp369
g5
F62.4
sg6
F-1.1
sg7
F62.3
sg8
F3.0
sg9
F62.3
saa(lp370
V093541
p371
a(dp372
g5
F62.4
sg6
F-1.1
sg7
F62.3
sg8
F1.0
sg9
F62.3
saa(lp373
V093546
p374
a(dp375
g5
F62.4
sg6
F-1.1
sg7
F62.3
sg8
F15.0
sg9
F62.3
saa(lp376
V093551
p377
a(dp378
g5
F62.4
sg6
F-1.1
sg7
F62.3
sg8
F2.0
sg9
F62.3
saa(lp379
V093601
p380
a(dp381
g5
F62.3
sg6
F-1.2
sg7
F62.2
sg8
F1.0
sg9
F62.2
saa(lp382
V093611
p383
a(dp384
g5
F62.3
sg6
F-1.1
sg7
F62.2
sg8
F1.0
sg9
F62.3
saa(lp385
V093621
p386
a(dp387
g5
F62.3
sg6
F-1.1
sg7
F62.2
sg8
F5.0
sg9
F62.3
saa(lp388
V093631
p389
a(dp390
g5
F62.3
sg6
F-1.1
sg7
F62.2
sg8
F3.0
sg9
F62.3
saa(lp391
V093636
p392
a(dp393
g5
F62.3
sg6
F-1.1
sg7
F62.2
sg8
F3.0
sg9
F62.3
saa(lp394
V093656
p395
a(dp396
g5
F62.4
sg6
F-1.0
sg7
F62.3
sg8
F1.0
sg9
F62.4
saa(lp397
V093701
p398
a(dp399
g5
F62.5
sg6
F-1.1
sg7
F62.3
sg8
F1.0
sg9
F62.3
saa(lp400
V093722
p401
a(dp402
g5
F62.5
sg6
F-0.9
sg7
F62.3
sg8
F1.0
sg9
F62.5
saa(lp403
V093727
p404
a(dp405
g5
F62.6
sg6
F-1.1
sg7
F62.3
sg8
F2.0
sg9
F62.3
saa(lp406
V093742
p407
a(dp408
g5
F62.6
sg6
F-1.1
sg7
F62.4
sg8
F2.0
sg9
F62.3
saa(lp409
V093852
p410
a(dp411
g5
F62.6
sg6
F-1.0
sg7
F62.4
sg8
F3.0
sg9
F62.4
saa(lp412
V094218
p413
a(dp414
g5
F62.6
sg6
F-1.0
sg7
F62.4
sg8
F1.0
sg9
F62.4
saa(lp415
V094223
p416
a(dp417
g5
F62.6
sg6
F-1.0
sg7
F62.4
sg8
F1.0
sg9
F62.4
saa(lp418
V094333
p419
a(dp420
g5
F62.6
sg6
F-0.9
sg7
F62.5
sg8
F1.0
sg9
F62.5
saa(lp421
V094348
p422
a(dp423
g5
F62.5
sg6
F-0.9
sg7
F62.4
sg8
F1.0
sg9
F62.5
saa(lp424
V094353
p425
a(dp426
g5
F62.5
sg6
F-1.0
sg7
F62.4
sg8
F1.0
sg9
F62.4
saa(lp427
V094504
p428
a(dp429
g5
F62.5
sg6
F-1.0
sg7
F62.4
sg8
F1.0
sg9
F62.4
saa(lp430
V094544
p431
a(dp432
g5
F62.5
sg6
F-1.0
sg7
F62.4
sg8
F1.0
sg9
F62.4
saa(lp433
V094619
p434
a(dp435
g5
F62.5
sg6
F-1.0
sg7
F62.4
sg8
F1.0
sg9
F62.4
saa(lp436
V094629
p437
a(dp438
g5
F62.5
sg6
F-1.0
sg7
F62.4
sg8
F1.0
sg9
F62.4
saa(lp439
V094639
p440
a(dp441
g5
F62.5
sg6
F-1.0
sg7
F62.4
sg8
F1.0
sg9
F62.4
saa(lp442
V094644
p443
a(dp444
g5
F62.5
sg6
F-0.9
sg7
F62.4
sg8
F1.0
sg9
F62.5
saa(lp445
V094649
p446
a(dp447
g5
F62.5
sg6
F-1.0
sg7
F62.4
sg8
F1.0
sg9
F62.4
saa(lp448
V094714
p449
a(dp450
g5
F62.5
sg6
F-1.0
sg7
F62.4
sg8
F1.0
sg9
F62.4
saa(lp451
V094719
p452
a(dp453
g5
F62.5
sg6
F-0.9
sg7
F62.4
sg8
F7.0
sg9
F62.5
saa(lp454
V094754
p455
a(dp456
g5
F62.5
sg6
F-0.9
sg7
F62.4
sg8
F2.0
sg9
F62.5
saa(lp457
V094804
p458
a(dp459
g5
F62.8
sg6
F-0.6
sg7
F62.5
sg8
F1.0
sg9
F62.8
saa(lp460
V095130
p461
a(dp462
g5
F62.7
sg6
F-0.6
sg7
F62.5
sg8
F1.0
sg9
F62.8
saa(lp463
V095145
p464
a(dp465
g5
F62.8
sg6
F-0.7
sg7
F62.7
sg8
F1.0
sg9
F62.7
saa(lp466
V095231
p467
a(dp468
g5
F62.8
sg6
F-0.8
sg7
F62.6
sg8
F1.0
sg9
F62.6
saa(lp469
V095426
p470
a(dp471
g5
F62.6
sg6
F-0.7
sg7
F62.5
sg8
F3.0
sg9
F62.7
saa(lp472
V095451
p473
a(dp474
g5
F62.8
sg6
F-0.9
sg7
F62.5
sg8
F1.0
sg9
F62.5
saa(lp475
V095532
p476
a(dp477
g5
F62.8
sg6
F-0.9
sg7
F62.5
sg8
F1.0
sg9
F62.5
saa(lp478
V095552
p479
a(dp480
g5
F62.8
sg6
F-0.9
sg7
F62.5
sg8
F7.0
sg9
F62.5
saa(lp481
V100058
p482
a(dp483
g5
F62.7
sg6
F-0.7
sg7
F62.5
sg8
F2.0
sg9
F62.7
saa(lp484
V100203
p485
a(dp486
g5
F62.7
sg6
F-0.7
sg7
F62.5
sg8
F1.0
sg9
F62.7
saa(lp487
V100228
p488
a(dp489
g5
F62.7
sg6
F-0.9
sg7
F62.5
sg8
F1.0
sg9
F62.5
saa(lp490
V100253
p491
a(dp492
g5
F62.7
sg6
F-0.9
sg7
F62.5
sg8
F1.0
sg9
F62.5
saa(lp493
V100258
p494
a(dp495
g5
F62.7
sg6
F-0.9
sg7
F62.5
sg8
F2.0
sg9
F62.5
saa(lp496
V100318
p497
a(dp498
g5
F62.7
sg6
F-0.9
sg7
F62.5
sg8
F1.0
sg9
F62.5
saa(lp499
V100333
p500
a(dp501
g5
F62.7
sg6
F-0.9
sg7
F62.5
sg8
F2.0
sg9
F62.5
saa(lp502
V100359
p503
a(dp504
g5
F62.7
sg6
F-0.9
sg7
F62.5
sg8
F1.0
sg9
F62.5
saa(lp505
V100534
p506
a(dp507
g5
F62.6
sg6
F-0.9
sg7
F62.5
sg8
F5.0
sg9
F62.5
saa(lp508
V100620
p509
a(dp510
g5
F62.6
sg6
F-0.9
sg7
F62.5
sg8
F1.0
sg9
F62.5
saa(lp511
V100625
p512
a(dp513
g5
F62.5
sg6
F-0.9
sg7
F62.4
sg8
F1.0
sg9
F62.5
saa(lp514
V100635
p515
a(dp516
g5
F62.5
sg6
F-0.9
sg7
F62.4
sg8
F1.0
sg9
F62.5
saa(lp517
V100710
p518
a(dp519
g5
F62.5
sg6
F-0.9
sg7
F62.4
sg8
F7.0
sg9
F62.5
saa(lp520
V100715
p521
a(dp522
g5
F62.6
sg6
F-0.9
sg7
F62.5
sg8
F1.0
sg9
F62.5
saa(lp523
V100830
p524
a(dp525
g5
F62.8
sg6
F-0.9
sg7
F62.5
sg8
F1.0
sg9
F62.5
saa(lp526
V100945
p527
a(dp528
g5
F62.8
sg6
F-0.8
sg7
F62.6
sg8
F1.0
sg9
F62.6
saa(lp529
V101010
p530
a(dp531
g5
F62.6
sg6
F-0.9
sg7
F62.5
sg8
F1.0
sg9
F62.5
saa(lp532
V101141
p533
a(dp534
g5
F62.6
sg6
F-0.9
sg7
F62.5
sg8
F2.0
sg9
F62.5
saa(lp535
V101146
p536
a(dp537
g5
F62.6
sg6
F-0.8
sg7
F62.5
sg8
F1.0
sg9
F62.6
saa(lp538
V101241
p539
a(dp540
g5
F62.6
sg6
F-0.8
sg7
F62.5
sg8
F1.0
sg9
F62.6
saa(lp541
V101316
p542
a(dp543
g5
F62.6
sg6
F-0.8
sg7
F62.5
sg8
F1.0
sg9
F62.6
saa(lp544
V101452
p545
a(dp546
g5
F62.6
sg6
F-0.8
sg7
F62.5
sg8
F2.0
sg9
F62.6
saa(lp547
V101552
p548
a(dp549
g5
F62.6
sg6
F-0.9
sg7
F62.5
sg8
F1.0
sg9
F62.5
saatp550
Rp551
.