ccollections
OrderedDict
p0
((lp1
(lp2
V090011
p3
a(dp4
S'sell'
p5
F113.5
sS'diff'
p6
F1.0
sS'buy'
p7
F113.0
sS'count'
p8
F12.0
sS'deal'
p9
F114.0
saa(lp10
V090016
p11
a(dp12
g5
F114.0
sg6
F1.0
sg7
F113.5
sg8
F14.0
sg9
F114.0
saa(lp13
V090021
p14
a(dp15
g5
F114.0
sg6
F1.0
sg7
F113.5
sg8
F12.0
sg9
F114.0
saa(lp16
V090026
p17
a(dp18
g5
F114.5
sg6
F1.5
sg7
F114.0
sg8
F5.0
sg9
F114.5
saa(lp19
V090031
p20
a(dp21
g5
F114.5
sg6
F1.0
sg7
F114.0
sg8
F2.0
sg9
F114.0
saa(lp22
V090036
p23
a(dp24
g5
F114.5
sg6
F1.5
sg7
F114.0
sg8
F13.0
sg9
F114.5
saa(lp25
V090041
p26
a(dp27
g5
F114.5
sg6
F1.5
sg7
F114.0
sg8
F10.0
sg9
F114.5
saa(lp28
V090046
p29
a(dp30
g5
F114.5
sg6
F1.5
sg7
F114.0
sg8
F12.0
sg9
F114.5
saa(lp31
V090051
p32
a(dp33
g5
F114.5
sg6
F1.5
sg7
F114.0
sg8
F11.0
sg9
F114.5
saa(lp34
V090056
p35
a(dp36
g5
F114.5
sg6
F1.5
sg7
F114.0
sg8
F13.0
sg9
F114.5
saa(lp37
V090101
p38
a(dp39
g5
F114.5
sg6
F1.5
sg7
F114.0
sg8
F16.0
sg9
F114.5
saa(lp40
V090106
p41
a(dp42
g5
F114.5
sg6
F1.5
sg7
F114.0
sg8
F19.0
sg9
F114.5
saa(lp43
V090111
p44
a(dp45
g5
F115.0
sg6
F2.0
sg7
F114.5
sg8
F3.0
sg9
F115.0
saa(lp46
V090116
p47
a(dp48
g5
F115.0
sg6
F2.0
sg7
F114.5
sg8
F7.0
sg9
F115.0
saa(lp49
V090121
p50
a(dp51
g5
F115.0
sg6
F2.0
sg7
F114.5
sg8
F8.0
sg9
F115.0
saa(lp52
V090126
p53
a(dp54
g5
F115.0
sg6
F2.0
sg7
F114.5
sg8
F8.0
sg9
F115.0
saa(lp55
V090131
p56
a(dp57
g5
F115.0
sg6
F1.5
sg7
F114.5
sg8
F11.0
sg9
F114.5
saa(lp58
V090136
p59
a(dp60
g5
F115.0
sg6
F1.5
sg7
F114.5
sg8
F17.0
sg9
F114.5
saa(lp61
V090142
p62
a(dp63
g5
F115.0
sg6
F1.5
sg7
F114.5
sg8
F33.0
sg9
F114.5
saa(lp64
V090147
p65
a(dp66
g5
F115.0
sg6
F1.5
sg7
F114.5
sg8
F4.0
sg9
F114.5
saa(lp67
V090157
p68
a(dp69
g5
F114.5
sg6
F1.5
sg7
F114.0
sg8
F1.0
sg9
F114.5
saa(lp70
V090202
p71
a(dp72
g5
F114.5
sg6
F1.0
sg7
F114.0
sg8
F2.0
sg9
F114.0
saa(lp73
V090207
p74
a(dp75
g5
F114.5
sg6
F1.0
sg7
F114.0
sg8
F26.0
sg9
F114.0
saa(lp76
V090212
p77
a(dp78
g5
F114.5
sg6
F0.5
sg7
F114.0
sg8
F20.0
sg9
F113.5
saa(lp79
V090217
p80
a(dp81
g5
F114.0
sg6
F0.5
sg7
F113.5
sg8
F11.0
sg9
F113.5
saa(lp82
V090222
p83
a(dp84
g5
F114.0
sg6
F0.0
sg7
F113.5
sg8
F10.0
sg9
F113.0
saa(lp85
V090227
p86
a(dp87
g5
F113.5
sg6
F0.0
sg7
F113.0
sg8
F22.0
sg9
F113.0
saa(lp88
V090232
p89
a(dp90
g5
F113.5
sg6
F0.0
sg7
F113.0
sg8
F57.0
sg9
F113.0
saa(lp91
V090237
p92
a(dp93
g5
F113.0
sg6
F-0.5
sg7
F112.5
sg8
F13.0
sg9
F112.5
saa(lp94
V090242
p95
a(dp96
g5
F113.0
sg6
F-0.5
sg7
F112.5
sg8
F14.0
sg9
F112.5
saa(lp97
V090247
p98
a(dp99
g5
F112.5
sg6
F-1.0
sg7
F112.0
sg8
F30.0
sg9
F112.0
saa(lp100
V090252
p101
a(dp102
g5
F112.5
sg6
F-1.0
sg7
F112.0
sg8
F13.0
sg9
F112.0
saa(lp103
V090257
p104
a(dp105
g5
F112.5
sg6
F-1.5
sg7
F112.0
sg8
F39.0
sg9
F111.5
saa(lp106
V090302
p107
a(dp108
g5
F111.5
sg6
F-2.0
sg7
F111.0
sg8
F59.0
sg9
F111.0
saa(lp109
V090307
p110
a(dp111
g5
F111.5
sg6
F-1.5
sg7
F111.0
sg8
F26.0
sg9
F111.5
saa(lp112
V090312
p113
a(dp114
g5
F111.5
sg6
F-1.5
sg7
F111.0
sg8
F17.0
sg9
F111.5
saa(lp115
V090317
p116
a(dp117
g5
F111.5
sg6
F-2.0
sg7
F111.0
sg8
F30.0
sg9
F111.0
saa(lp118
V090322
p119
a(dp120
g5
F111.5
sg6
F-1.5
sg7
F111.0
sg8
F11.0
sg9
F111.5
saa(lp121
V090327
p122
a(dp123
g5
F112.0
sg6
F-1.5
sg7
F111.5
sg8
F1.0
sg9
F111.5
saa(lp124
V090332
p125
a(dp126
g5
F112.0
sg6
F-1.0
sg7
F111.5
sg8
F19.0
sg9
F112.0
saa(lp127
V090337
p128
a(dp129
g5
F112.5
sg6
F-0.5
sg7
F112.0
sg8
F9.0
sg9
F112.5
saa(lp130
V090342
p131
a(dp132
g5
F113.0
sg6
F-1.0
sg7
F112.5
sg8
F16.0
sg9
F112.0
saa(lp133
V090347
p134
a(dp135
g5
F113.0
sg6
F-1.0
sg7
F112.0
sg8
F13.0
sg9
F112.0
saa(lp136
V090352
p137
a(dp138
g5
F112.5
sg6
F-0.5
sg7
F112.0
sg8
F7.0
sg9
F112.5
saa(lp139
V090357
p140
a(dp141
g5
F113.0
sg6
F-0.5
sg7
F112.5
sg8
F6.0
sg9
F112.5
saa(lp142
V090402
p143
a(dp144
g5
F112.5
sg6
F-1.0
sg7
F112.0
sg8
F3.0
sg9
F112.0
saa(lp145
V090407
p146
a(dp147
g5
F112.5
sg6
F-1.0
sg7
F112.0
sg8
F2.0
sg9
F112.0
saa(lp148
V090412
p149
a(dp150
g5
F112.5
sg6
F-1.0
sg7
F112.0
sg8
F15.0
sg9
F112.0
saa(lp151
V090417
p152
a(dp153
g5
F112.5
sg6
F-1.0
sg7
F112.0
sg8
F13.0
sg9
F112.0
saa(lp154
V090422
p155
a(dp156
g5
F112.5
sg6
F-1.0
sg7
F112.0
sg8
F9.0
sg9
F112.0
saa(lp157
V090427
p158
a(dp159
g5
F112.0
sg6
F-1.0
sg7
F111.5
sg8
F15.0
sg9
F112.0
saa(lp160
V090437
p161
a(dp162
g5
F112.5
sg6
F-1.0
sg7
F112.0
sg8
F12.0
sg9
F112.0
saa(lp163
V090442
p164
a(dp165
g5
F112.0
sg6
F-1.0
sg7
F111.5
sg8
F8.0
sg9
F112.0
saa(lp166
V090447
p167
a(dp168
g5
F112.0
sg6
F-1.5
sg7
F111.5
sg8
F14.0
sg9
F111.5
saa(lp169
V090452
p170
a(dp171
g5
F112.0
sg6
F-1.0
sg7
F111.5
sg8
F1.0
sg9
F112.0
saa(lp172
V090457
p173
a(dp174
g5
F112.0
sg6
F-1.0
sg7
F111.5
sg8
F10.0
sg9
F112.0
saa(lp175
V090502
p176
a(dp177
g5
F112.0
sg6
F-1.0
sg7
F111.5
sg8
F9.0
sg9
F112.0
saa(lp178
V090507
p179
a(dp180
g5
F112.5
sg6
F-1.0
sg7
F112.0
sg8
F27.0
sg9
F112.0
saa(lp181
V090512
p182
a(dp183
g5
F112.0
sg6
F-1.0
sg7
F111.5
sg8
F11.0
sg9
F112.0
saa(lp184
V090517
p185
a(dp186
g5
F112.0
sg6
F-1.0
sg7
F111.5
sg8
F13.0
sg9
F112.0
saa(lp187
V090522
p188
a(dp189
g5
F112.5
sg6
F-0.5
sg7
F112.0
sg8
F1.0
sg9
F112.5
saa(lp190
V090532
p191
a(dp192
g5
F112.5
sg6
F-0.5
sg7
F112.0
sg8
F4.0
sg9
F112.5
saa(lp193
V090537
p194
a(dp195
g5
F112.5
sg6
F-0.5
sg7
F112.0
sg8
F3.0
sg9
F112.5
saa(lp196
V090542
p197
a(dp198
g5
F112.5
sg6
F-0.5
sg7
F112.0
sg8
F3.0
sg9
F112.5
saa(lp199
V090547
p200
a(dp201
g5
F113.0
sg6
F-0.5
sg7
F112.0
sg8
F1.0
sg9
F112.5
saa(lp202
V090557
p203
a(dp204
g5
F113.0
sg6
F0.0
sg7
F112.5
sg8
F10.0
sg9
F113.0
saa(lp205
V090603
p206
a(dp207
g5
F113.0
sg6
F0.0
sg7
F112.5
sg8
F1.0
sg9
F113.0
saa(lp208
V090608
p209
a(dp210
g5
F113.0
sg6
F0.0
sg7
F112.5
sg8
F1.0
sg9
F113.0
saa(lp211
V090613
p212
a(dp213
g5
F113.0
sg6
F0.0
sg7
F112.5
sg8
F1.0
sg9
F113.0
saa(lp214
V090618
p215
a(dp216
g5
F113.0
sg6
F0.0
sg7
F112.5
sg8
F1.0
sg9
F113.0
saa(lp217
V090623
p218
a(dp219
g5
F113.0
sg6
F0.0
sg7
F112.5
sg8
F2.0
sg9
F113.0
saa(lp220
V090628
p221
a(dp222
g5
F113.0
sg6
F0.0
sg7
F112.5
sg8
F2.0
sg9
F113.0
saa(lp223
V090633
p224
a(dp225
g5
F113.0
sg6
F0.0
sg7
F112.5
sg8
F2.0
sg9
F113.0
saa(lp226
V090643
p227
a(dp228
g5
F113.0
sg6
F0.0
sg7
F112.5
sg8
F10.0
sg9
F113.0
saa(lp229
V090648
p230
a(dp231
g5
F113.0
sg6
F0.0
sg7
F112.5
sg8
F3.0
sg9
F113.0
saa(lp232
V090653
p233
a(dp234
g5
F113.5
sg6
F0.0
sg7
F113.0
sg8
F2.0
sg9
F113.0
saa(lp235
V090658
p236
a(dp237
g5
F113.5
sg6
F0.0
sg7
F113.0
sg8
F10.0
sg9
F113.0
saa(lp238
V090703
p239
a(dp240
g5
F113.5
sg6
F0.0
sg7
F113.0
sg8
F2.0
sg9
F113.0
saa(lp241
V090708
p242
a(dp243
g5
F113.0
sg6
F-0.5
sg7
F112.5
sg8
F2.0
sg9
F112.5
saa(lp244
V090713
p245
a(dp246
g5
F113.0
sg6
F0.0
sg7
F112.5
sg8
F2.0
sg9
F113.0
saa(lp247
V090723
p248
a(dp249
g5
F113.0
sg6
F0.0
sg7
F112.5
sg8
F1.0
sg9
F113.0
saa(lp250
V090728
p251
a(dp252
g5
F113.0
sg6
F0.0
sg7
F112.5
sg8
F2.0
sg9
F113.0
saa(lp253
V090733
p254
a(dp255
g5
F113.0
sg6
F0.0
sg7
F112.5
sg8
F1.0
sg9
F113.0
saa(lp256
V090738
p257
a(dp258
g5
F113.0
sg6
F0.0
sg7
F112.5
sg8
F5.0
sg9
F113.0
saa(lp259
V090743
p260
a(dp261
g5
F113.0
sg6
F0.0
sg7
F112.5
sg8
F1.0
sg9
F113.0
saa(lp262
V090748
p263
a(dp264
g5
F113.0
sg6
F0.0
sg7
F112.5
sg8
F1.0
sg9
F113.0
saa(lp265
V090753
p266
a(dp267
g5
F113.0
sg6
F0.0
sg7
F112.5
sg8
F7.0
sg9
F113.0
saa(lp268
V090758
p269
a(dp270
g5
F113.5
sg6
F0.5
sg7
F113.0
sg8
F1.0
sg9
F113.5
saa(lp271
V090803
p272
a(dp273
g5
F113.5
sg6
F0.5
sg7
F113.0
sg8
F1.0
sg9
F113.5
saa(lp274
V090808
p275
a(dp276
g5
F113.5
sg6
F0.5
sg7
F113.0
sg8
F1.0
sg9
F113.5
saa(lp277
V090813
p278
a(dp279
g5
F113.5
sg6
F0.5
sg7
F113.0
sg8
F1.0
sg9
F113.5
saa(lp280
V090818
p281
a(dp282
g5
F113.5
sg6
F0.5
sg7
F113.0
sg8
F1.0
sg9
F113.5
saa(lp283
V090823
p284
a(dp285
g5
F113.5
sg6
F0.5
sg7
F113.0
sg8
F1.0
sg9
F113.5
saa(lp286
V090833
p287
a(dp288
g5
F113.5
sg6
F0.5
sg7
F113.0
sg8
F2.0
sg9
F113.5
saa(lp289
V090843
p290
a(dp291
g5
F113.5
sg6
F0.5
sg7
F113.0
sg8
F3.0
sg9
F113.5
saa(lp292
V090848
p293
a(dp294
g5
F113.5
sg6
F0.5
sg7
F113.0
sg8
F1.0
sg9
F113.5
saa(lp295
V090853
p296
a(dp297
g5
F113.5
sg6
F0.5
sg7
F113.0
sg8
F1.0
sg9
F113.5
saa(lp298
V090858
p299
a(dp300
g5
F113.5
sg6
F0.5
sg7
F113.0
sg8
F2.0
sg9
F113.5
saa(lp301
V090903
p302
a(dp303
g5
F113.5
sg6
F0.5
sg7
F113.0
sg8
F2.0
sg9
F113.5
saa(lp304
V090908
p305
a(dp306
g5
F113.5
sg6
F0.5
sg7
F113.0
sg8
F1.0
sg9
F113.5
saa(lp307
V090913
p308
a(dp309
g5
F113.5
sg6
F0.5
sg7
F113.0
sg8
F2.0
sg9
F113.5
saa(lp310
V090918
p311
a(dp312
g5
F113.5
sg6
F0.5
sg7
F113.0
sg8
F2.0
sg9
F113.5
saa(lp313
V090923
p314
a(dp315
g5
F113.5
sg6
F0.5
sg7
F113.0
sg8
F2.0
sg9
F113.5
saa(lp316
V090929
p317
a(dp318
g5
F113.5
sg6
F0.5
sg7
F113.0
sg8
F2.0
sg9
F113.5
saa(lp319
V090934
p320
a(dp321
g5
F113.5
sg6
F0.5
sg7
F113.0
sg8
F1.0
sg9
F113.5
saa(lp322
V090939
p323
a(dp324
g5
F114.0
sg6
F0.5
sg7
F113.5
sg8
F7.0
sg9
F113.5
saa(lp325
V090944
p326
a(dp327
g5
F113.5
sg6
F0.5
sg7
F113.0
sg8
F1.0
sg9
F113.5
saa(lp328
V090949
p329
a(dp330
g5
F113.5
sg6
F0.5
sg7
F113.0
sg8
F2.0
sg9
F113.5
saa(lp331
V090954
p332
a(dp333
g5
F113.5
sg6
F0.5
sg7
F113.0
sg8
F2.0
sg9
F113.5
saa(lp334
V090959
p335
a(dp336
g5
F113.5
sg6
F0.5
sg7
F113.0
sg8
F2.0
sg9
F113.5
saa(lp337
V091019
p338
a(dp339
g5
F113.5
sg6
F0.0
sg7
F113.0
sg8
F1.0
sg9
F113.0
saa(lp340
V091024
p341
a(dp342
g5
F113.5
sg6
F0.0
sg7
F113.0
sg8
F29.0
sg9
F113.0
saa(lp343
V091029
p344
a(dp345
g5
F113.0
sg6
F-0.5
sg7
F112.5
sg8
F3.0
sg9
F112.5
saa(lp346
V091044
p347
a(dp348
g5
F113.0
sg6
F-0.5
sg7
F112.5
sg8
F3.0
sg9
F112.5
saa(lp349
V091049
p350
a(dp351
g5
F113.0
sg6
F-0.5
sg7
F112.5
sg8
F2.0
sg9
F112.5
saa(lp352
V091054
p353
a(dp354
g5
F113.0
sg6
F-0.5
sg7
F112.5
sg8
F4.0
sg9
F112.5
saa(lp355
V091059
p356
a(dp357
g5
F113.0
sg6
F0.0
sg7
F112.5
sg8
F1.0
sg9
F113.0
saa(lp358
V091104
p359
a(dp360
g5
F113.0
sg6
F0.0
sg7
F112.5
sg8
F4.0
sg9
F113.0
saa(lp361
V091109
p362
a(dp363
g5
F113.0
sg6
F0.0
sg7
F112.5
sg8
F2.0
sg9
F113.0
saa(lp364
V091129
p365
a(dp366
g5
F113.0
sg6
F0.0
sg7
F112.5
sg8
F1.0
sg9
F113.0
saa(lp367
V091139
p368
a(dp369
g5
F113.0
sg6
F0.0
sg7
F112.5
sg8
F1.0
sg9
F113.0
saa(lp370
V091144
p371
a(dp372
g5
F113.0
sg6
F0.0
sg7
F112.5
sg8
F2.0
sg9
F113.0
saa(lp373
V091154
p374
a(dp375
g5
F113.0
sg6
F0.0
sg7
F112.5
sg8
F10.0
sg9
F113.0
saa(lp376
V091159
p377
a(dp378
g5
F113.0
sg6
F0.0
sg7
F112.5
sg8
F2.0
sg9
F113.0
saa(lp379
V091204
p380
a(dp381
g5
F113.0
sg6
F0.0
sg7
F112.5
sg8
F1.0
sg9
F113.0
saa(lp382
V091214
p383
a(dp384
g5
F113.0
sg6
F0.0
sg7
F112.5
sg8
F1.0
sg9
F113.0
saa(lp385
V091219
p386
a(dp387
g5
F113.5
sg6
F0.5
sg7
F112.5
sg8
F2.0
sg9
F113.5
saa(lp388
V091224
p389
a(dp390
g5
F113.5
sg6
F-0.5
sg7
F112.5
sg8
F1.0
sg9
F112.5
saa(lp391
V091234
p392
a(dp393
g5
F113.0
sg6
F0.0
sg7
F112.5
sg8
F1.0
sg9
F113.0
saa(lp394
V091250
p395
a(dp396
g5
F113.5
sg6
F0.0
sg7
F113.0
sg8
F1.0
sg9
F113.0
saa(lp397
V091255
p398
a(dp399
g5
F113.5
sg6
F0.0
sg7
F113.0
sg8
F8.0
sg9
F113.0
saa(lp400
V091300
p401
a(dp402
g5
F113.5
sg6
F0.0
sg7
F113.0
sg8
F6.0
sg9
F113.0
saa(lp403
V091305
p404
a(dp405
g5
F113.5
sg6
F0.0
sg7
F113.0
sg8
F4.0
sg9
F113.0
saa(lp406
V091320
p407
a(dp408
g5
F113.5
sg6
F-0.5
sg7
F113.0
sg8
F2.0
sg9
F112.5
saa(lp409
V091330
p410
a(dp411
g5
F113.0
sg6
F0.0
sg7
F112.5
sg8
F1.0
sg9
F113.0
saa(lp412
V091340
p413
a(dp414
g5
F113.0
sg6
F0.0
sg7
F112.5
sg8
F3.0
sg9
F113.0
saa(lp415
V091410
p416
a(dp417
g5
F113.5
sg6
F0.0
sg7
F113.0
sg8
F5.0
sg9
F113.0
saa(lp418
V091415
p419
a(dp420
g5
F113.5
sg6
F0.0
sg7
F113.0
sg8
F10.0
sg9
F113.0
saa(lp421
V091420
p422
a(dp423
g5
F113.5
sg6
F0.0
sg7
F113.0
sg8
F1.0
sg9
F113.0
saa(lp424
V091430
p425
a(dp426
g5
F113.5
sg6
F0.0
sg7
F113.0
sg8
F2.0
sg9
F113.0
saa(lp427
V091435
p428
a(dp429
g5
F113.5
sg6
F0.5
sg7
F112.5
sg8
F6.0
sg9
F113.5
saa(lp430
V091445
p431
a(dp432
g5
F113.0
sg6
F-0.5
sg7
F112.5
sg8
F4.0
sg9
F112.5
saa(lp433
V091455
p434
a(dp435
g5
F113.0
sg6
F0.0
sg7
F112.5
sg8
F15.0
sg9
F113.0
saa(lp436
V091505
p437
a(dp438
g5
F113.5
sg6
F0.0
sg7
F113.0
sg8
F2.0
sg9
F113.0
saa(lp439
V091520
p440
a(dp441
g5
F113.5
sg6
F0.0
sg7
F113.0
sg8
F1.0
sg9
F113.0
saa(lp442
V091530
p443
a(dp444
g5
F113.5
sg6
F0.5
sg7
F113.0
sg8
F1.0
sg9
F113.5
saa(lp445
V091555
p446
a(dp447
g5
F113.5
sg6
F0.5
sg7
F113.0
sg8
F1.0
sg9
F113.5
saa(lp448
V091600
p449
a(dp450
g5
F113.5
sg6
F0.5
sg7
F113.0
sg8
F1.0
sg9
F113.5
saa(lp451
V091620
p452
a(dp453
g5
F113.5
sg6
F0.5
sg7
F113.0
sg8
F1.0
sg9
F113.5
saa(lp454
V091645
p455
a(dp456
g5
F113.5
sg6
F0.5
sg7
F113.0
sg8
F1.0
sg9
F113.5
saa(lp457
V091650
p458
a(dp459
g5
F113.5
sg6
F0.5
sg7
F113.0
sg8
F2.0
sg9
F113.5
saa(lp460
V091656
p461
a(dp462
g5
F113.5
sg6
F0.5
sg7
F113.0
sg8
F1.0
sg9
F113.5
saa(lp463
V091706
p464
a(dp465
g5
F113.5
sg6
F0.5
sg7
F113.0
sg8
F2.0
sg9
F113.5
saa(lp466
V091716
p467
a(dp468
g5
F113.5
sg6
F0.5
sg7
F113.0
sg8
F5.0
sg9
F113.5
saa(lp469
V091721
p470
a(dp471
g5
F113.5
sg6
F0.5
sg7
F113.0
sg8
F1.0
sg9
F113.5
saa(lp472
V091726
p473
a(dp474
g5
F113.5
sg6
F0.5
sg7
F113.0
sg8
F1.0
sg9
F113.5
saa(lp475
V091746
p476
a(dp477
g5
F113.5
sg6
F0.5
sg7
F113.0
sg8
F1.0
sg9
F113.5
saa(lp478
V091751
p479
a(dp480
g5
F113.5
sg6
F0.5
sg7
F113.0
sg8
F3.0
sg9
F113.5
saa(lp481
V091756
p482
a(dp483
g5
F113.5
sg6
F0.5
sg7
F113.0
sg8
F2.0
sg9
F113.5
saa(lp484
V091801
p485
a(dp486
g5
F113.5
sg6
F0.5
sg7
F113.0
sg8
F1.0
sg9
F113.5
saa(lp487
V091816
p488
a(dp489
g5
F113.5
sg6
F0.5
sg7
F113.0
sg8
F3.0
sg9
F113.5
saa(lp490
V091826
p491
a(dp492
g5
F113.5
sg6
F0.5
sg7
F113.0
sg8
F2.0
sg9
F113.5
saa(lp493
V091836
p494
a(dp495
g5
F113.5
sg6
F0.5
sg7
F113.0
sg8
F1.0
sg9
F113.5
saa(lp496
V091846
p497
a(dp498
g5
F113.5
sg6
F0.5
sg7
F113.0
sg8
F1.0
sg9
F113.5
saa(lp499
V091851
p500
a(dp501
g5
F113.5
sg6
F0.5
sg7
F113.0
sg8
F4.0
sg9
F113.5
saa(lp502
V091901
p503
a(dp504
g5
F113.5
sg6
F0.5
sg7
F113.0
sg8
F1.0
sg9
F113.5
saa(lp505
V091916
p506
a(dp507
g5
F113.5
sg6
F0.5
sg7
F113.0
sg8
F1.0
sg9
F113.5
saa(lp508
V091932
p509
a(dp510
g5
F113.5
sg6
F0.5
sg7
F113.0
sg8
F2.0
sg9
F113.5
saa(lp511
V091937
p512
a(dp513
g5
F113.5
sg6
F0.5
sg7
F113.0
sg8
F1.0
sg9
F113.5
saa(lp514
V092007
p515
a(dp516
g5
F113.5
sg6
F0.5
sg7
F113.0
sg8
F1.0
sg9
F113.5
saa(lp517
V092027
p518
a(dp519
g5
F113.5
sg6
F0.5
sg7
F113.0
sg8
F2.0
sg9
F113.5
saa(lp520
V092102
p521
a(dp522
g5
F113.5
sg6
F0.5
sg7
F113.0
sg8
F1.0
sg9
F113.5
saa(lp523
V092132
p524
a(dp525
g5
F113.5
sg6
F0.5
sg7
F113.0
sg8
F5.0
sg9
F113.5
saa(lp526
V092142
p527
a(dp528
g5
F113.5
sg6
F0.5
sg7
F113.0
sg8
F2.0
sg9
F113.5
saa(lp529
V092147
p530
a(dp531
g5
F113.5
sg6
F0.5
sg7
F113.0
sg8
F3.0
sg9
F113.5
saa(lp532
V092217
p533
a(dp534
g5
F113.5
sg6
F0.5
sg7
F113.0
sg8
F1.0
sg9
F113.5
saa(lp535
V092237
p536
a(dp537
g5
F113.5
sg6
F0.5
sg7
F113.0
sg8
F1.0
sg9
F113.5
saa(lp538
V092317
p539
a(dp540
g5
F113.5
sg6
F0.0
sg7
F113.0
sg8
F1.0
sg9
F113.0
saa(lp541
V092332
p542
a(dp543
g5
F113.5
sg6
F0.0
sg7
F113.0
sg8
F2.0
sg9
F113.0
saa(lp544
V092347
p545
a(dp546
g5
F113.5
sg6
F0.0
sg7
F113.0
sg8
F2.0
sg9
F113.0
saa(lp547
V092352
p548
a(dp549
g5
F113.5
sg6
F0.0
sg7
F113.0
sg8
F1.0
sg9
F113.0
saa(lp550
V092358
p551
a(dp552
g5
F113.5
sg6
F0.0
sg7
F113.0
sg8
F50.0
sg9
F113.0
saa(lp553
V092403
p554
a(dp555
g5
F113.0
sg6
F-0.5
sg7
F112.5
sg8
F1.0
sg9
F112.5
saa(lp556
V092413
p557
a(dp558
g5
F113.0
sg6
F-0.5
sg7
F112.5
sg8
F1.0
sg9
F112.5
saa(lp559
V092423
p560
a(dp561
g5
F113.0
sg6
F-0.5
sg7
F112.5
sg8
F1.0
sg9
F112.5
saa(lp562
V092428
p563
a(dp564
g5
F113.0
sg6
F-0.5
sg7
F112.5
sg8
F3.0
sg9
F112.5
saa(lp565
V092433
p566
a(dp567
g5
F113.0
sg6
F-0.5
sg7
F112.5
sg8
F1.0
sg9
F112.5
saa(lp568
V092503
p569
a(dp570
g5
F113.0
sg6
F-0.5
sg7
F112.5
sg8
F1.0
sg9
F112.5
saa(lp571
V092518
p572
a(dp573
g5
F113.0
sg6
F-0.5
sg7
F112.5
sg8
F1.0
sg9
F112.5
saa(lp574
V092523
p575
a(dp576
g5
F113.0
sg6
F-0.5
sg7
F112.5
sg8
F11.0
sg9
F112.5
saa(lp577
V092533
p578
a(dp579
g5
F113.0
sg6
F-0.5
sg7
F112.5
sg8
F16.0
sg9
F112.5
saa(lp580
V092538
p581
a(dp582
g5
F113.0
sg6
F-0.5
sg7
F112.5
sg8
F4.0
sg9
F112.5
saa(lp583
V092543
p584
a(dp585
g5
F113.0
sg6
F-0.5
sg7
F112.5
sg8
F1.0
sg9
F112.5
saa(lp586
V092548
p587
a(dp588
g5
F113.0
sg6
F-0.5
sg7
F112.5
sg8
F4.0
sg9
F112.5
saa(lp589
V092553
p590
a(dp591
g5
F113.0
sg6
F-0.5
sg7
F112.5
sg8
F1.0
sg9
F112.5
saa(lp592
V092558
p593
a(dp594
g5
F113.0
sg6
F-0.5
sg7
F112.5
sg8
F2.0
sg9
F112.5
saa(lp595
V092653
p596
a(dp597
g5
F113.0
sg6
F-0.5
sg7
F112.5
sg8
F1.0
sg9
F112.5
saa(lp598
V092658
p599
a(dp600
g5
F113.0
sg6
F-0.5
sg7
F112.5
sg8
F8.0
sg9
F112.5
saa(lp601
V092708
p602
a(dp603
g5
F113.0
sg6
F-0.5
sg7
F112.5
sg8
F2.0
sg9
F112.5
saa(lp604
V092723
p605
a(dp606
g5
F113.0
sg6
F-0.5
sg7
F112.5
sg8
F2.0
sg9
F112.5
saa(lp607
V092728
p608
a(dp609
g5
F113.0
sg6
F-0.5
sg7
F112.5
sg8
F2.0
sg9
F112.5
saa(lp610
V092749
p611
a(dp612
g5
F113.0
sg6
F-0.5
sg7
F112.5
sg8
F4.0
sg9
F112.5
saa(lp613
V092754
p614
a(dp615
g5
F113.0
sg6
F-0.5
sg7
F112.5
sg8
F1.0
sg9
F112.5
saa(lp616
V092814
p617
a(dp618
g5
F113.0
sg6
F-0.5
sg7
F112.5
sg8
F1.0
sg9
F112.5
saa(lp619
V092919
p620
a(dp621
g5
F113.0
sg6
F-0.5
sg7
F112.5
sg8
F1.0
sg9
F112.5
saa(lp622
V093009
p623
a(dp624
g5
F113.0
sg6
F-0.5
sg7
F112.5
sg8
F1.0
sg9
F112.5
saa(lp625
V093014
p626
a(dp627
g5
F113.0
sg6
F-0.5
sg7
F112.5
sg8
F1.0
sg9
F112.5
saa(lp628
V093030
p629
a(dp630
g5
F113.0
sg6
F0.0
sg7
F112.5
sg8
F1.0
sg9
F113.0
saa(lp631
V093135
p632
a(dp633
g5
F113.0
sg6
F0.0
sg7
F112.5
sg8
F1.0
sg9
F113.0
saa(lp634
V093215
p635
a(dp636
g5
F113.0
sg6
F0.0
sg7
F112.5
sg8
F1.0
sg9
F113.0
saa(lp637
V093225
p638
a(dp639
g5
F113.0
sg6
F-0.5
sg7
F112.5
sg8
F1.0
sg9
F112.5
saa(lp640
V093325
p641
a(dp642
g5
F113.0
sg6
F-0.5
sg7
F112.5
sg8
F1.0
sg9
F112.5
saa(lp643
V093350
p644
a(dp645
g5
F113.0
sg6
F0.0
sg7
F112.5
sg8
F1.0
sg9
F113.0
saa(lp646
V093435
p647
a(dp648
g5
F113.0
sg6
F0.0
sg7
F112.5
sg8
F1.0
sg9
F113.0
saa(lp649
V093440
p650
a(dp651
g5
F113.0
sg6
F0.0
sg7
F112.5
sg8
F2.0
sg9
F113.0
saa(lp652
V093450
p653
a(dp654
g5
F113.0
sg6
F0.0
sg7
F112.5
sg8
F1.0
sg9
F113.0
saa(lp655
V093500
p656
a(dp657
g5
F113.0
sg6
F0.0
sg7
F112.5
sg8
F1.0
sg9
F113.0
saa(lp658
V093505
p659
a(dp660
g5
F113.0
sg6
F0.0
sg7
F112.5
sg8
F11.0
sg9
F113.0
saa(lp661
V093511
p662
a(dp663
g5
F113.0
sg6
F0.0
sg7
F112.5
sg8
F1.0
sg9
F113.0
saa(lp664
V093516
p665
a(dp666
g5
F113.0
sg6
F0.0
sg7
F112.5
sg8
F1.0
sg9
F113.0
saa(lp667
V093521
p668
a(dp669
g5
F113.0
sg6
F0.0
sg7
F112.5
sg8
F2.0
sg9
F113.0
saa(lp670
V093526
p671
a(dp672
g5
F113.0
sg6
F0.0
sg7
F112.5
sg8
F1.0
sg9
F113.0
saa(lp673
V093531
p674
a(dp675
g5
F113.0
sg6
F0.0
sg7
F112.5
sg8
F1.0
sg9
F113.0
saa(lp676
V093536
p677
a(dp678
g5
F113.0
sg6
F0.0
sg7
F112.5
sg8
F4.0
sg9
F113.0
saa(lp679
V093541
p680
a(dp681
g5
F113.0
sg6
F0.0
sg7
F112.5
sg8
F7.0
sg9
F113.0
saa(lp682
V093546
p683
a(dp684
g5
F113.0
sg6
F0.0
sg7
F112.5
sg8
F2.0
sg9
F113.0
saa(lp685
V093551
p686
a(dp687
g5
F113.0
sg6
F0.0
sg7
F112.5
sg8
F3.0
sg9
F113.0
saa(lp688
V093556
p689
a(dp690
g5
F113.0
sg6
F0.0
sg7
F112.5
sg8
F7.0
sg9
F113.0
saa(lp691
V093601
p692
a(dp693
g5
F113.0
sg6
F0.0
sg7
F112.5
sg8
F1.0
sg9
F113.0
saa(lp694
V093616
p695
a(dp696
g5
F113.0
sg6
F0.0
sg7
F112.5
sg8
F7.0
sg9
F113.0
saa(lp697
V093621
p698
a(dp699
g5
F113.0
sg6
F0.0
sg7
F112.5
sg8
F2.0
sg9
F113.0
saa(lp700
V093636
p701
a(dp702
g5
F113.0
sg6
F0.0
sg7
F112.5
sg8
F1.0
sg9
F113.0
saa(lp703
V093641
p704
a(dp705
g5
F113.0
sg6
F0.0
sg7
F112.5
sg8
F2.0
sg9
F113.0
saa(lp706
V093646
p707
a(dp708
g5
F113.0
sg6
F0.0
sg7
F112.5
sg8
F2.0
sg9
F113.0
saa(lp709
V093701
p710
a(dp711
g5
F113.0
sg6
F0.0
sg7
F112.5
sg8
F1.0
sg9
F113.0
saa(lp712
V093706
p713
a(dp714
g5
F113.0
sg6
F0.0
sg7
F112.5
sg8
F2.0
sg9
F113.0
saa(lp715
V093711
p716
a(dp717
g5
F113.0
sg6
F0.0
sg7
F112.5
sg8
F1.0
sg9
F113.0
saa(lp718
V093716
p719
a(dp720
g5
F113.0
sg6
F0.0
sg7
F112.5
sg8
F7.0
sg9
F113.0
saa(lp721
V093721
p722
a(dp723
g5
F113.5
sg6
F0.0
sg7
F113.0
sg8
F1.0
sg9
F113.0
saa(lp724
V093726
p725
a(dp726
g5
F113.5
sg6
F0.0
sg7
F113.0
sg8
F2.0
sg9
F113.0
saa(lp727
V093736
p728
a(dp729
g5
F113.5
sg6
F0.0
sg7
F113.0
sg8
F1.0
sg9
F113.0
saa(lp730
V093751
p731
a(dp732
g5
F113.5
sg6
F0.0
sg7
F113.0
sg8
F1.0
sg9
F113.0
saa(lp733
V093806
p734
a(dp735
g5
F113.5
sg6
F0.0
sg7
F113.0
sg8
F1.0
sg9
F113.0
saa(lp736
V093816
p737
a(dp738
g5
F113.5
sg6
F0.5
sg7
F113.0
sg8
F1.0
sg9
F113.5
saa(lp739
V093841
p740
a(dp741
g5
F113.5
sg6
F0.5
sg7
F113.0
sg8
F2.0
sg9
F113.5
saa(lp742
V093856
p743
a(dp744
g5
F113.5
sg6
F0.5
sg7
F113.0
sg8
F1.0
sg9
F113.5
saa(lp745
V093916
p746
a(dp747
g5
F113.5
sg6
F0.5
sg7
F113.0
sg8
F1.0
sg9
F113.5
saa(lp748
V094002
p749
a(dp750
g5
F113.5
sg6
F0.5
sg7
F113.0
sg8
F3.0
sg9
F113.5
saa(lp751
V094027
p752
a(dp753
g5
F113.5
sg6
F0.0
sg7
F113.0
sg8
F7.0
sg9
F113.0
saa(lp754
V094032
p755
a(dp756
g5
F113.5
sg6
F0.5
sg7
F113.0
sg8
F1.0
sg9
F113.5
saa(lp757
V094052
p758
a(dp759
g5
F113.5
sg6
F0.0
sg7
F113.0
sg8
F1.0
sg9
F113.0
saa(lp760
V094143
p761
a(dp762
g5
F113.5
sg6
F0.0
sg7
F113.0
sg8
F1.0
sg9
F113.0
saa(lp763
V094148
p764
a(dp765
g5
F113.5
sg6
F0.0
sg7
F113.0
sg8
F1.0
sg9
F113.0
saa(lp766
V094158
p767
a(dp768
g5
F113.5
sg6
F0.0
sg7
F113.0
sg8
F3.0
sg9
F113.0
saa(lp769
V094208
p770
a(dp771
g5
F113.5
sg6
F0.0
sg7
F113.0
sg8
F1.0
sg9
F113.0
saa(lp772
V094253
p773
a(dp774
g5
F113.5
sg6
F0.0
sg7
F113.0
sg8
F1.0
sg9
F113.0
saa(lp775
V094308
p776
a(dp777
g5
F113.5
sg6
F0.0
sg7
F113.0
sg8
F1.0
sg9
F113.0
saa(lp778
V094338
p779
a(dp780
g5
F113.5
sg6
F0.0
sg7
F113.0
sg8
F6.0
sg9
F113.0
saa(lp781
V094403
p782
a(dp783
g5
F113.5
sg6
F0.5
sg7
F113.0
sg8
F1.0
sg9
F113.5
saa(lp784
V094413
p785
a(dp786
g5
F113.5
sg6
F0.0
sg7
F113.0
sg8
F2.0
sg9
F113.0
saa(lp787
V094433
p788
a(dp789
g5
F113.5
sg6
F0.0
sg7
F113.0
sg8
F10.0
sg9
F113.0
saa(lp790
V094443
p791
a(dp792
g5
F113.5
sg6
F0.0
sg7
F113.0
sg8
F1.0
sg9
F113.0
saa(lp793
V094448
p794
a(dp795
g5
F113.5
sg6
F0.0
sg7
F113.0
sg8
F2.0
sg9
F113.0
saa(lp796
V094508
p797
a(dp798
g5
F113.5
sg6
F0.0
sg7
F113.0
sg8
F6.0
sg9
F113.0
saa(lp799
V094528
p800
a(dp801
g5
F113.5
sg6
F0.0
sg7
F113.0
sg8
F1.0
sg9
F113.0
saa(lp802
V094604
p803
a(dp804
g5
F113.5
sg6
F0.0
sg7
F113.0
sg8
F2.0
sg9
F113.0
saa(lp805
V094609
p806
a(dp807
g5
F113.5
sg6
F0.0
sg7
F113.0
sg8
F2.0
sg9
F113.0
saa(lp808
V094619
p809
a(dp810
g5
F113.5
sg6
F0.0
sg7
F113.0
sg8
F1.0
sg9
F113.0
saa(lp811
V094624
p812
a(dp813
g5
F113.5
sg6
F0.0
sg7
F113.0
sg8
F5.0
sg9
F113.0
saa(lp814
V094629
p815
a(dp816
g5
F113.5
sg6
F0.0
sg7
F113.0
sg8
F1.0
sg9
F113.0
saa(lp817
V094639
p818
a(dp819
g5
F113.5
sg6
F0.0
sg7
F113.0
sg8
F5.0
sg9
F113.0
saa(lp820
V094644
p821
a(dp822
g5
F113.5
sg6
F0.0
sg7
F113.0
sg8
F2.0
sg9
F113.0
saa(lp823
V094724
p824
a(dp825
g5
F113.5
sg6
F0.0
sg7
F113.0
sg8
F1.0
sg9
F113.0
saa(lp826
V094739
p827
a(dp828
g5
F113.5
sg6
F0.0
sg7
F113.0
sg8
F1.0
sg9
F113.0
saa(lp829
V094749
p830
a(dp831
g5
F113.5
sg6
F0.0
sg7
F113.0
sg8
F8.0
sg9
F113.0
saa(lp832
V094754
p833
a(dp834
g5
F113.5
sg6
F0.0
sg7
F113.0
sg8
F1.0
sg9
F113.0
saa(lp835
V094824
p836
a(dp837
g5
F113.0
sg6
F0.0
sg7
F112.5
sg8
F1.0
sg9
F113.0
saa(lp838
V094829
p839
a(dp840
g5
F113.0
sg6
F0.0
sg7
F112.5
sg8
F2.0
sg9
F113.0
saa(lp841
V094919
p842
a(dp843
g5
F113.5
sg6
F0.0
sg7
F113.0
sg8
F1.0
sg9
F113.0
saa(lp844
V094940
p845
a(dp846
g5
F113.5
sg6
F0.0
sg7
F113.0
sg8
F1.0
sg9
F113.0
saa(lp847
V095145
p848
a(dp849
g5
F113.5
sg6
F0.0
sg7
F113.0
sg8
F1.0
sg9
F113.0
saa(lp850
V095205
p851
a(dp852
g5
F113.5
sg6
F0.0
sg7
F113.0
sg8
F1.0
sg9
F113.0
saa(lp853
V095416
p854
a(dp855
g5
F113.5
sg6
F0.0
sg7
F113.0
sg8
F3.0
sg9
F113.0
saa(lp856
V095431
p857
a(dp858
g5
F113.5
sg6
F0.0
sg7
F113.0
sg8
F1.0
sg9
F113.0
saa(lp859
V095506
p860
a(dp861
g5
F113.5
sg6
F0.0
sg7
F113.0
sg8
F1.0
sg9
F113.0
saa(lp862
V095651
p863
a(dp864
g5
F113.5
sg6
F0.0
sg7
F113.0
sg8
F1.0
sg9
F113.0
saa(lp865
V095656
p866
a(dp867
g5
F113.5
sg6
F0.0
sg7
F113.0
sg8
F1.0
sg9
F113.0
saa(lp868
V095731
p869
a(dp870
g5
F113.5
sg6
F0.0
sg7
F113.0
sg8
F2.0
sg9
F113.0
saa(lp871
V095807
p872
a(dp873
g5
F113.5
sg6
F0.0
sg7
F113.0
sg8
F1.0
sg9
F113.0
saa(lp874
V095812
p875
a(dp876
g5
F113.5
sg6
F0.0
sg7
F113.0
sg8
F1.0
sg9
F113.0
saa(lp877
V095817
p878
a(dp879
g5
F113.5
sg6
F0.0
sg7
F113.0
sg8
F1.0
sg9
F113.0
saa(lp880
V095837
p881
a(dp882
g5
F113.5
sg6
F0.0
sg7
F113.0
sg8
F1.0
sg9
F113.0
saa(lp883
V095907
p884
a(dp885
g5
F113.5
sg6
F0.0
sg7
F113.0
sg8
F5.0
sg9
F113.0
saa(lp886
V095922
p887
a(dp888
g5
F113.5
sg6
F0.0
sg7
F113.0
sg8
F2.0
sg9
F113.0
saa(lp889
V095927
p890
a(dp891
g5
F113.5
sg6
F0.0
sg7
F113.0
sg8
F1.0
sg9
F113.0
saa(lp892
V095938
p893
a(dp894
g5
F113.5
sg6
F0.0
sg7
F113.0
sg8
F4.0
sg9
F113.0
saa(lp895
V100023
p896
a(dp897
g5
F113.0
sg6
F0.0
sg7
F112.5
sg8
F1.0
sg9
F113.0
saa(lp898
V100028
p899
a(dp900
g5
F113.0
sg6
F0.0
sg7
F112.5
sg8
F6.0
sg9
F113.0
saa(lp901
V100218
p902
a(dp903
g5
F113.5
sg6
F0.5
sg7
F113.0
sg8
F1.0
sg9
F113.5
saa(lp904
V100303
p905
a(dp906
g5
F113.5
sg6
F0.5
sg7
F113.0
sg8
F2.0
sg9
F113.5
saa(lp907
V100318
p908
a(dp909
g5
F113.5
sg6
F0.5
sg7
F113.0
sg8
F26.0
sg9
F113.5
saa(lp910
V100323
p911
a(dp912
g5
F113.5
sg6
F0.5
sg7
F113.0
sg8
F45.0
sg9
F113.5
saa(lp913
V100328
p914
a(dp915
g5
F114.0
sg6
F1.0
sg7
F113.5
sg8
F1.0
sg9
F114.0
saa(lp916
V100333
p917
a(dp918
g5
F114.0
sg6
F1.0
sg7
F113.5
sg8
F1.0
sg9
F114.0
saa(lp919
V100338
p920
a(dp921
g5
F114.0
sg6
F1.0
sg7
F113.5
sg8
F1.0
sg9
F114.0
saa(lp922
V100348
p923
a(dp924
g5
F114.0
sg6
F1.0
sg7
F113.5
sg8
F10.0
sg9
F114.0
saa(lp925
V100353
p926
a(dp927
g5
F114.0
sg6
F1.0
sg7
F113.5
sg8
F1.0
sg9
F114.0
saa(lp928
V100358
p929
a(dp930
g5
F114.0
sg6
F1.0
sg7
F113.5
sg8
F1.0
sg9
F114.0
saa(lp931
V100408
p932
a(dp933
g5
F114.0
sg6
F1.0
sg7
F113.5
sg8
F51.0
sg9
F114.0
saa(lp934
V100413
p935
a(dp936
g5
F114.0
sg6
F1.0
sg7
F113.5
sg8
F2.0
sg9
F114.0
saa(lp937
V100418
p938
a(dp939
g5
F114.0
sg6
F1.0
sg7
F113.5
sg8
F11.0
sg9
F114.0
saa(lp940
V100423
p941
a(dp942
g5
F114.5
sg6
F1.0
sg7
F114.0
sg8
F2.0
sg9
F114.0
saa(lp943
V100434
p944
a(dp945
g5
F114.5
sg6
F1.0
sg7
F114.0
sg8
F1.0
sg9
F114.0
saa(lp946
V100439
p947
a(dp948
g5
F114.5
sg6
F1.0
sg7
F114.0
sg8
F2.0
sg9
F114.0
saa(lp949
V100444
p950
a(dp951
g5
F114.5
sg6
F1.5
sg7
F114.0
sg8
F2.0
sg9
F114.5
saa(lp952
V100449
p953
a(dp954
g5
F114.5
sg6
F1.0
sg7
F114.0
sg8
F2.0
sg9
F114.0
saa(lp955
V100454
p956
a(dp957
g5
F114.5
sg6
F1.0
sg7
F114.0
sg8
F1.0
sg9
F114.0
saa(lp958
V100504
p959
a(dp960
g5
F114.5
sg6
F1.0
sg7
F114.0
sg8
F11.0
sg9
F114.0
saa(lp961
V100509
p962
a(dp963
g5
F114.5
sg6
F1.0
sg7
F114.0
sg8
F3.0
sg9
F114.0
saa(lp964
V100529
p965
a(dp966
g5
F114.0
sg6
F0.5
sg7
F113.5
sg8
F1.0
sg9
F113.5
saa(lp967
V100539
p968
a(dp969
g5
F114.0
sg6
F1.0
sg7
F113.5
sg8
F1.0
sg9
F114.0
saa(lp970
V100554
p971
a(dp972
g5
F114.0
sg6
F1.0
sg7
F113.5
sg8
F1.0
sg9
F114.0
saa(lp973
V100629
p974
a(dp975
g5
F114.0
sg6
F1.0
sg7
F113.5
sg8
F1.0
sg9
F114.0
saa(lp976
V100634
p977
a(dp978
g5
F114.0
sg6
F1.0
sg7
F113.5
sg8
F7.0
sg9
F114.0
saa(lp979
V100639
p980
a(dp981
g5
F114.0
sg6
F1.0
sg7
F113.5
sg8
F20.0
sg9
F114.0
saa(lp982
V100644
p983
a(dp984
g5
F114.5
sg6
F1.5
sg7
F114.0
sg8
F1.0
sg9
F114.5
saa(lp985
V100649
p986
a(dp987
g5
F114.5
sg6
F1.0
sg7
F114.0
sg8
F10.0
sg9
F114.0
saa(lp988
V100654
p989
a(dp990
g5
F114.5
sg6
F1.0
sg7
F114.0
sg8
F2.0
sg9
F114.0
saa(lp991
V100704
p992
a(dp993
g5
F114.0
sg6
F1.0
sg7
F113.5
sg8
F2.0
sg9
F114.0
saa(lp994
V100709
p995
a(dp996
g5
F114.0
sg6
F1.0
sg7
F113.5
sg8
F8.0
sg9
F114.0
saa(lp997
V100714
p998
a(dp999
g5
F114.5
sg6
F1.5
sg7
F114.0
sg8
F1.0
sg9
F114.5
saa(lp1000
V100719
p1001
a(dp1002
g5
F114.5
sg6
F1.0
sg7
F114.0
sg8
F1.0
sg9
F114.0
saa(lp1003
V100739
p1004
a(dp1005
g5
F114.5
sg6
F1.0
sg7
F114.0
sg8
F3.0
sg9
F114.0
saa(lp1006
V100744
p1007
a(dp1008
g5
F114.5
sg6
F1.5
sg7
F114.0
sg8
F5.0
sg9
F114.5
saa(lp1009
V100809
p1010
a(dp1011
g5
F114.5
sg6
F1.5
sg7
F114.0
sg8
F3.0
sg9
F114.5
saa(lp1012
V100824
p1013
a(dp1014
g5
F114.5
sg6
F1.0
sg7
F114.0
sg8
F1.0
sg9
F114.0
saa(lp1015
V100829
p1016
a(dp1017
g5
F114.5
sg6
F1.5
sg7
F114.0
sg8
F2.0
sg9
F114.5
saa(lp1018
V100834
p1019
a(dp1020
g5
F114.5
sg6
F1.0
sg7
F114.0
sg8
F1.0
sg9
F114.0
saa(lp1021
V100840
p1022
a(dp1023
g5
F114.5
sg6
F1.0
sg7
F114.0
sg8
F1.0
sg9
F114.0
saa(lp1024
V100900
p1025
a(dp1026
g5
F114.5
sg6
F1.0
sg7
F114.0
sg8
F1.0
sg9
F114.0
saa(lp1027
V100905
p1028
a(dp1029
g5
F114.5
sg6
F1.5
sg7
F114.0
sg8
F1.0
sg9
F114.5
saa(lp1030
V100910
p1031
a(dp1032
g5
F114.5
sg6
F1.0
sg7
F114.0
sg8
F5.0
sg9
F114.0
saa(lp1033
V100915
p1034
a(dp1035
g5
F114.5
sg6
F1.0
sg7
F114.0
sg8
F1.0
sg9
F114.0
saa(lp1036
V100920
p1037
a(dp1038
g5
F114.5
sg6
F1.0
sg7
F114.0
sg8
F5.0
sg9
F114.0
saa(lp1039
V100925
p1040
a(dp1041
g5
F114.5
sg6
F1.0
sg7
F114.0
sg8
F4.0
sg9
F114.0
saa(lp1042
V100930
p1043
a(dp1044
g5
F114.0
sg6
F0.5
sg7
F113.5
sg8
F10.0
sg9
F113.5
saa(lp1045
V100945
p1046
a(dp1047
g5
F114.0
sg6
F0.5
sg7
F113.5
sg8
F1.0
sg9
F113.5
saa(lp1048
V101021
p1049
a(dp1050
g5
F114.0
sg6
F1.0
sg7
F113.5
sg8
F4.0
sg9
F114.0
saa(lp1051
V101051
p1052
a(dp1053
g5
F114.0
sg6
F1.0
sg7
F113.5
sg8
F3.0
sg9
F114.0
saa(lp1054
V101111
p1055
a(dp1056
g5
F114.5
sg6
F1.0
sg7
F114.0
sg8
F1.0
sg9
F114.0
saa(lp1057
V101116
p1058
a(dp1059
g5
F114.5
sg6
F1.0
sg7
F114.0
sg8
F1.0
sg9
F114.0
saa(lp1060
V101126
p1061
a(dp1062
g5
F114.5
sg6
F1.0
sg7
F114.0
sg8
F1.0
sg9
F114.0
saa(lp1063
V101136
p1064
a(dp1065
g5
F114.5
sg6
F1.0
sg7
F114.0
sg8
F3.0
sg9
F114.0
saa(lp1066
V101156
p1067
a(dp1068
g5
F114.0
sg6
F1.0
sg7
F113.5
sg8
F2.0
sg9
F114.0
saa(lp1069
V101201
p1070
a(dp1071
g5
F114.0
sg6
F1.0
sg7
F113.5
sg8
F3.0
sg9
F114.0
saa(lp1072
V101221
p1073
a(dp1074
g5
F114.5
sg6
F1.5
sg7
F114.0
sg8
F1.0
sg9
F114.5
saa(lp1075
V101226
p1076
a(dp1077
g5
F114.5
sg6
F1.0
sg7
F114.0
sg8
F1.0
sg9
F114.0
saa(lp1078
V101246
p1079
a(dp1080
g5
F114.5
sg6
F1.0
sg7
F114.0
sg8
F3.0
sg9
F114.0
saa(lp1081
V101406
p1082
a(dp1083
g5
F114.0
sg6
F1.0
sg7
F113.5
sg8
F5.0
sg9
F114.0
saa(lp1084
V101451
p1085
a(dp1086
g5
F114.5
sg6
F1.0
sg7
F114.0
sg8
F1.0
sg9
F114.0
saa(lp1087
V101506
p1088
a(dp1089
g5
F114.5
sg6
F1.0
sg7
F114.0
sg8
F2.0
sg9
F114.0
saa(lp1090
V101512
p1091
a(dp1092
g5
F114.5
sg6
F1.0
sg7
F114.0
sg8
F5.0
sg9
F114.0
saa(lp1093
V101517
p1094
a(dp1095
g5
F114.0
sg6
F1.0
sg7
F113.5
sg8
F2.0
sg9
F114.0
saa(lp1096
V101527
p1097
a(dp1098
g5
F114.0
sg6
F1.0
sg7
F113.5
sg8
F6.0
sg9
F114.0
saa(lp1099
V101547
p1100
a(dp1101
g5
F114.0
sg6
F1.0
sg7
F113.5
sg8
F6.0
sg9
F114.0
saa(lp1102
V101552
p1103
a(dp1104
g5
F114.0
sg6
F1.0
sg7
F113.5
sg8
F4.0
sg9
F114.0
saa(lp1105
V101602
p1106
a(dp1107
g5
F114.5
sg6
F1.5
sg7
F114.0
sg8
F1.0
sg9
F114.5
saa(lp1108
V101607
p1109
a(dp1110
g5
F114.5
sg6
F1.0
sg7
F114.0
sg8
F4.0
sg9
F114.0
saa(lp1111
V101612
p1112
a(dp1113
g5
F114.0
sg6
F1.0
sg7
F113.5
sg8
F3.0
sg9
F114.0
saa(lp1114
V101617
p1115
a(dp1116
g5
F114.0
sg6
F1.0
sg7
F113.5
sg8
F2.0
sg9
F114.0
saa(lp1117
V101622
p1118
a(dp1119
g5
F114.0
sg6
F1.0
sg7
F113.5
sg8
F1.0
sg9
F114.0
saa(lp1120
V101627
p1121
a(dp1122
g5
F114.0
sg6
F1.0
sg7
F113.5
sg8
F1.0
sg9
F114.0
saa(lp1123
V101632
p1124
a(dp1125
g5
F114.5
sg6
F1.0
sg7
F114.0
sg8
F1.0
sg9
F114.0
saa(lp1126
V101642
p1127
a(dp1128
g5
F114.5
sg6
F1.5
sg7
F114.0
sg8
F1.0
sg9
F114.5
saa(lp1129
V101647
p1130
a(dp1131
g5
F114.5
sg6
F1.0
sg7
F114.0
sg8
F1.0
sg9
F114.0
saa(lp1132
V101657
p1133
a(dp1134
g5
F114.5
sg6
F1.5
sg7
F114.0
sg8
F10.0
sg9
F114.5
saa(lp1135
V101707
p1136
a(dp1137
g5
F114.5
sg6
F1.5
sg7
F114.0
sg8
F10.0
sg9
F114.5
saa(lp1138
V101737
p1139
a(dp1140
g5
F114.5
sg6
F1.5
sg7
F114.0
sg8
F3.0
sg9
F114.5
saa(lp1141
V101807
p1142
a(dp1143
g5
F114.5
sg6
F1.0
sg7
F114.0
sg8
F1.0
sg9
F114.0
saa(lp1144
V101817
p1145
a(dp1146
g5
F114.5
sg6
F1.5
sg7
F114.0
sg8
F1.0
sg9
F114.5
saa(lp1147
V101827
p1148
a(dp1149
g5
F114.5
sg6
F1.5
sg7
F114.0
sg8
F1.0
sg9
F114.5
saa(lp1150
V101832
p1151
a(dp1152
g5
F114.5
sg6
F1.0
sg7
F114.0
sg8
F12.0
sg9
F114.0
saa(lp1153
V101847
p1154
a(dp1155
g5
F114.5
sg6
F1.0
sg7
F114.0
sg8
F6.0
sg9
F114.0
saa(lp1156
V101852
p1157
a(dp1158
g5
F114.5
sg6
F1.0
sg7
F114.0
sg8
F4.0
sg9
F114.0
saa(lp1159
V101912
p1160
a(dp1161
g5
F114.0
sg6
F1.0
sg7
F113.5
sg8
F1.0
sg9
F114.0
saa(lp1162
V102053
p1163
a(dp1164
g5
F114.5
sg6
F1.5
sg7
F114.0
sg8
F60.0
sg9
F114.5
saa(lp1165
V102058
p1166
a(dp1167
g5
F114.5
sg6
F1.5
sg7
F114.0
sg8
F6.0
sg9
F114.5
saa(lp1168
V102103
p1169
a(dp1170
g5
F114.5
sg6
F1.5
sg7
F114.0
sg8
F1.0
sg9
F114.5
saa(lp1171
V102108
p1172
a(dp1173
g5
F115.0
sg6
F1.5
sg7
F114.5
sg8
F3.0
sg9
F114.5
saa(lp1174
V102118
p1175
a(dp1176
g5
F115.0
sg6
F1.5
sg7
F114.5
sg8
F2.0
sg9
F114.5
saa(lp1177
V102123
p1178
a(dp1179
g5
F114.5
sg6
F1.5
sg7
F114.0
sg8
F10.0
sg9
F114.5
saa(lp1180
V102128
p1181
a(dp1182
g5
F114.5
sg6
F1.0
sg7
F114.0
sg8
F27.0
sg9
F114.0
saa(lp1183
V102133
p1184
a(dp1185
g5
F114.0
sg6
F1.0
sg7
F113.5
sg8
F1.0
sg9
F114.0
saa(lp1186
V102144
p1187
a(dp1188
g5
F114.0
sg6
F0.5
sg7
F113.5
sg8
F47.0
sg9
F113.5
saa(lp1189
V102154
p1190
a(dp1191
g5
F114.5
sg6
F2.0
sg7
F113.5
sg8
F29.0
sg9
F115.0
saa(lp1192
V102159
p1193
a(dp1194
g5
F115.0
sg6
F2.0
sg7
F114.5
sg8
F7.0
sg9
F115.0
saa(lp1195
V102204
p1196
a(dp1197
g5
F115.0
sg6
F1.5
sg7
F114.5
sg8
F14.0
sg9
F114.5
saa(lp1198
V102219
p1199
a(dp1200
g5
F114.5
sg6
F1.5
sg7
F114.0
sg8
F1.0
sg9
F114.5
saa(lp1201
V102229
p1202
a(dp1203
g5
F114.5
sg6
F1.0
sg7
F114.0
sg8
F1.0
sg9
F114.0
saa(lp1204
V102234
p1205
a(dp1206
g5
F114.5
sg6
F1.5
sg7
F114.0
sg8
F13.0
sg9
F114.5
saa(lp1207
V102244
p1208
a(dp1209
g5
F114.5
sg6
F1.5
sg7
F114.0
sg8
F3.0
sg9
F114.5
saa(lp1210
V102249
p1211
a(dp1212
g5
F114.5
sg6
F1.5
sg7
F114.0
sg8
F1.0
sg9
F114.5
saa(lp1213
V102259
p1214
a(dp1215
g5
F114.5
sg6
F1.5
sg7
F114.0
sg8
F1.0
sg9
F114.5
saa(lp1216
V102314
p1217
a(dp1218
g5
F114.5
sg6
F1.5
sg7
F114.0
sg8
F1.0
sg9
F114.5
saa(lp1219
V102329
p1220
a(dp1221
g5
F114.5
sg6
F1.5
sg7
F114.0
sg8
F2.0
sg9
F114.5
saa(lp1222
V102334
p1223
a(dp1224
g5
F114.5
sg6
F1.5
sg7
F114.0
sg8
F6.0
sg9
F114.5
saa(lp1225
V102339
p1226
a(dp1227
g5
F114.5
sg6
F1.5
sg7
F114.0
sg8
F10.0
sg9
F114.5
saa(lp1228
V102404
p1229
a(dp1230
g5
F114.5
sg6
F1.5
sg7
F114.0
sg8
F6.0
sg9
F114.5
saa(lp1231
V102409
p1232
a(dp1233
g5
F114.5
sg6
F2.0
sg7
F114.0
sg8
F11.0
sg9
F115.0
saa(lp1234
V102419
p1235
a(dp1236
g5
F115.0
sg6
F2.0
sg7
F114.5
sg8
F10.0
sg9
F115.0
saa(lp1237
V102424
p1238
a(dp1239
g5
F115.0
sg6
F1.5
sg7
F114.5
sg8
F1.0
sg9
F114.5
saa(lp1240
V102429
p1241
a(dp1242
g5
F115.0
sg6
F1.5
sg7
F114.5
sg8
F3.0
sg9
F114.5
saa(lp1243
V102439
p1244
a(dp1245
g5
F115.0
sg6
F1.5
sg7
F114.5
sg8
F1.0
sg9
F114.5
saa(lp1246
V102444
p1247
a(dp1248
g5
F115.0
sg6
F1.5
sg7
F114.5
sg8
F12.0
sg9
F114.5
saa(lp1249
V102509
p1250
a(dp1251
g5
F114.5
sg6
F1.5
sg7
F114.0
sg8
F10.0
sg9
F114.5
saa(lp1252
V102514
p1253
a(dp1254
g5
F114.5
sg6
F1.5
sg7
F114.0
sg8
F1.0
sg9
F114.5
saa(lp1255
V102534
p1256
a(dp1257
g5
F114.5
sg6
F1.5
sg7
F114.0
sg8
F1.0
sg9
F114.5
saa(lp1258
V102615
p1259
a(dp1260
g5
F114.5
sg6
F1.5
sg7
F114.0
sg8
F2.0
sg9
F114.5
saa(lp1261
V102755
p1262
a(dp1263
g5
F114.5
sg6
F1.5
sg7
F114.0
sg8
F2.0
sg9
F114.5
saa(lp1264
V102830
p1265
a(dp1266
g5
F114.5
sg6
F1.0
sg7
F114.0
sg8
F1.0
sg9
F114.0
saa(lp1267
V102840
p1268
a(dp1269
g5
F114.5
sg6
F2.0
sg7
F114.0
sg8
F19.0
sg9
F115.0
saa(lp1270
V102845
p1271
a(dp1272
g5
F115.0
sg6
F2.0
sg7
F114.5
sg8
F39.0
sg9
F115.0
saa(lp1273
V102850
p1274
a(dp1275
g5
F115.0
sg6
F2.0
sg7
F114.5
sg8
F7.0
sg9
F115.0
saa(lp1276
V102855
p1277
a(dp1278
g5
F115.0
sg6
F2.0
sg7
F114.5
sg8
F11.0
sg9
F115.0
saa(lp1279
V102900
p1280
a(dp1281
g5
F115.0
sg6
F1.5
sg7
F114.5
sg8
F2.0
sg9
F114.5
saa(lp1282
V102905
p1283
a(dp1284
g5
F115.0
sg6
F2.0
sg7
F114.5
sg8
F1.0
sg9
F115.0
saa(lp1285
V102910
p1286
a(dp1287
g5
F115.0
sg6
F2.0
sg7
F114.5
sg8
F10.0
sg9
F115.0
saa(lp1288
V102915
p1289
a(dp1290
g5
F115.0
sg6
F2.0
sg7
F114.5
sg8
F5.0
sg9
F115.0
saa(lp1291
V102946
p1292
a(dp1293
g5
F115.0
sg6
F2.0
sg7
F114.5
sg8
F1.0
sg9
F115.0
saa(lp1294
V102951
p1295
a(dp1296
g5
F115.0
sg6
F1.5
sg7
F114.5
sg8
F1.0
sg9
F114.5
saa(lp1297
V103006
p1298
a(dp1299
g5
F115.0
sg6
F1.5
sg7
F114.5
sg8
F2.0
sg9
F114.5
saa(lp1300
V103021
p1301
a(dp1302
g5
F115.0
sg6
F1.5
sg7
F114.5
sg8
F2.0
sg9
F114.5
saa(lp1303
V103031
p1304
a(dp1305
g5
F115.0
sg6
F1.5
sg7
F114.5
sg8
F5.0
sg9
F114.5
saa(lp1306
V103036
p1307
a(dp1308
g5
F115.0
sg6
F1.5
sg7
F114.5
sg8
F1.0
sg9
F114.5
saa(lp1309
V103041
p1310
a(dp1311
g5
F115.0
sg6
F1.5
sg7
F114.5
sg8
F5.0
sg9
F114.5
saa(lp1312
V103046
p1313
a(dp1314
g5
F115.0
sg6
F1.5
sg7
F114.5
sg8
F1.0
sg9
F114.5
saa(lp1315
V103051
p1316
a(dp1317
g5
F115.0
sg6
F1.5
sg7
F114.5
sg8
F1.0
sg9
F114.5
saa(lp1318
V103056
p1319
a(dp1320
g5
F115.0
sg6
F1.5
sg7
F114.5
sg8
F3.0
sg9
F114.5
saa(lp1321
V103101
p1322
a(dp1323
g5
F115.0
sg6
F1.5
sg7
F114.5
sg8
F10.0
sg9
F114.5
saa(lp1324
V103111
p1325
a(dp1326
g5
F115.0
sg6
F1.5
sg7
F114.5
sg8
F5.0
sg9
F114.5
saa(lp1327
V103116
p1328
a(dp1329
g5
F115.0
sg6
F1.5
sg7
F114.5
sg8
F6.0
sg9
F114.5
saa(lp1330
V103121
p1331
a(dp1332
g5
F115.0
sg6
F1.5
sg7
F114.5
sg8
F4.0
sg9
F114.5
saa(lp1333
V103126
p1334
a(dp1335
g5
F115.0
sg6
F1.5
sg7
F114.5
sg8
F4.0
sg9
F114.5
saa(lp1336
V103131
p1337
a(dp1338
g5
F115.0
sg6
F1.5
sg7
F114.5
sg8
F4.0
sg9
F114.5
saa(lp1339
V103136
p1340
a(dp1341
g5
F115.0
sg6
F1.5
sg7
F114.5
sg8
F1.0
sg9
F114.5
saa(lp1342
V103141
p1343
a(dp1344
g5
F114.5
sg6
F1.5
sg7
F114.0
sg8
F1.0
sg9
F114.5
saa(lp1345
V103146
p1346
a(dp1347
g5
F115.0
sg6
F1.5
sg7
F114.5
sg8
F1.0
sg9
F114.5
saa(lp1348
V103201
p1349
a(dp1350
g5
F114.5
sg6
F2.0
sg7
F114.0
sg8
F25.0
sg9
F115.0
saa(lp1351
V103206
p1352
a(dp1353
g5
F115.0
sg6
F2.0
sg7
F114.5
sg8
F16.0
sg9
F115.0
saa(lp1354
V103211
p1355
a(dp1356
g5
F115.0
sg6
F2.0
sg7
F114.5
sg8
F248.0
sg9
F115.0
saa(lp1357
V103216
p1358
a(dp1359
g5
F115.0
sg6
F2.5
sg7
F114.5
sg8
F94.0
sg9
F115.5
saa(lp1360
V103221
p1361
a(dp1362
g5
F115.5
sg6
F2.5
sg7
F115.0
sg8
F29.0
sg9
F115.5
saa(lp1363
V103226
p1364
a(dp1365
g5
F115.5
sg6
F2.5
sg7
F115.0
sg8
F44.0
sg9
F115.5
saa(lp1366
V103231
p1367
a(dp1368
g5
F115.5
sg6
F2.5
sg7
F115.0
sg8
F22.0
sg9
F115.5
saa(lp1369
V103236
p1370
a(dp1371
g5
F115.5
sg6
F2.5
sg7
F115.0
sg8
F17.0
sg9
F115.5
saa(lp1372
V103241
p1373
a(dp1374
g5
F115.5
sg6
F2.5
sg7
F115.0
sg8
F14.0
sg9
F115.5
saa(lp1375
V103246
p1376
a(dp1377
g5
F115.5
sg6
F2.5
sg7
F115.0
sg8
F8.0
sg9
F115.5
saa(lp1378
V103251
p1379
a(dp1380
g5
F115.5
sg6
F2.5
sg7
F115.0
sg8
F25.0
sg9
F115.5
saa(lp1381
V103256
p1382
a(dp1383
g5
F115.5
sg6
F2.5
sg7
F115.0
sg8
F54.0
sg9
F115.5
saa(lp1384
V103301
p1385
a(dp1386
g5
F115.5
sg6
F2.5
sg7
F115.0
sg8
F10.0
sg9
F115.5
saa(lp1387
V103306
p1388
a(dp1389
g5
F115.5
sg6
F2.5
sg7
F115.0
sg8
F14.0
sg9
F115.5
saa(lp1390
V103311
p1391
a(dp1392
g5
F115.5
sg6
F2.5
sg7
F115.0
sg8
F9.0
sg9
F115.5
saa(lp1393
V103316
p1394
a(dp1395
g5
F115.5
sg6
F2.5
sg7
F115.0
sg8
F10.0
sg9
F115.5
saa(lp1396
V103321
p1397
a(dp1398
g5
F115.5
sg6
F2.0
sg7
F115.0
sg8
F6.0
sg9
F115.0
saa(lp1399
V103326
p1400
a(dp1401
g5
F115.5
sg6
F2.0
sg7
F115.0
sg8
F4.0
sg9
F115.0
saa(lp1402
V103331
p1403
a(dp1404
g5
F115.5
sg6
F2.0
sg7
F115.0
sg8
F2.0
sg9
F115.0
saa(lp1405
V103336
p1406
a(dp1407
g5
F115.5
sg6
F2.0
sg7
F115.0
sg8
F2.0
sg9
F115.0
saa(lp1408
V103341
p1409
a(dp1410
g5
F115.5
sg6
F2.5
sg7
F115.0
sg8
F2.0
sg9
F115.5
saa(lp1411
V103346
p1412
a(dp1413
g5
F115.5
sg6
F2.5
sg7
F115.0
sg8
F2.0
sg9
F115.5
saa(lp1414
V103357
p1415
a(dp1416
g5
F115.5
sg6
F2.5
sg7
F115.0
sg8
F2.0
sg9
F115.5
saa(lp1417
V103402
p1418
a(dp1419
g5
F115.5
sg6
F2.5
sg7
F115.0
sg8
F2.0
sg9
F115.5
saa(lp1420
V103407
p1421
a(dp1422
g5
F115.5
sg6
F2.5
sg7
F115.0
sg8
F2.0
sg9
F115.5
saa(lp1423
V103417
p1424
a(dp1425
g5
F115.5
sg6
F2.5
sg7
F115.0
sg8
F2.0
sg9
F115.5
saa(lp1426
V103422
p1427
a(dp1428
g5
F115.5
sg6
F2.5
sg7
F115.0
sg8
F6.0
sg9
F115.5
saa(lp1429
V103427
p1430
a(dp1431
g5
F115.5
sg6
F2.0
sg7
F115.0
sg8
F1.0
sg9
F115.0
saa(lp1432
V103432
p1433
a(dp1434
g5
F115.5
sg6
F2.5
sg7
F115.0
sg8
F1.0
sg9
F115.5
saa(lp1435
V103437
p1436
a(dp1437
g5
F115.5
sg6
F2.5
sg7
F115.0
sg8
F10.0
sg9
F115.5
saa(lp1438
V103442
p1439
a(dp1440
g5
F115.5
sg6
F2.5
sg7
F115.0
sg8
F1.0
sg9
F115.5
saa(lp1441
V103447
p1442
a(dp1443
g5
F115.5
sg6
F2.5
sg7
F115.0
sg8
F1.0
sg9
F115.5
saa(lp1444
V103452
p1445
a(dp1446
g5
F115.5
sg6
F2.5
sg7
F115.0
sg8
F11.0
sg9
F115.5
saa(lp1447
V103457
p1448
a(dp1449
g5
F115.5
sg6
F2.0
sg7
F115.0
sg8
F1.0
sg9
F115.0
saa(lp1450
V103507
p1451
a(dp1452
g5
F115.5
sg6
F2.5
sg7
F115.0
sg8
F1.0
sg9
F115.5
saa(lp1453
V103512
p1454
a(dp1455
g5
F115.5
sg6
F2.0
sg7
F115.0
sg8
F1.0
sg9
F115.0
saa(lp1456
V103517
p1457
a(dp1458
g5
F115.5
sg6
F2.5
sg7
F115.0
sg8
F1.0
sg9
F115.5
saa(lp1459
V103522
p1460
a(dp1461
g5
F115.5
sg6
F2.0
sg7
F115.0
sg8
F1.0
sg9
F115.0
saa(lp1462
V103542
p1463
a(dp1464
g5
F115.5
sg6
F2.0
sg7
F115.0
sg8
F1.0
sg9
F115.0
saa(lp1465
V103552
p1466
a(dp1467
g5
F115.5
sg6
F2.0
sg7
F115.0
sg8
F21.0
sg9
F115.0
saa(lp1468
V103557
p1469
a(dp1470
g5
F115.5
sg6
F2.0
sg7
F115.0
sg8
F35.0
sg9
F115.0
saa(lp1471
V103602
p1472
a(dp1473
g5
F115.0
sg6
F2.0
sg7
F114.5
sg8
F10.0
sg9
F115.0
saa(lp1474
V103612
p1475
a(dp1476
g5
F115.0
sg6
F2.0
sg7
F114.5
sg8
F2.0
sg9
F115.0
saa(lp1477
V103617
p1478
a(dp1479
g5
F115.0
sg6
F2.0
sg7
F114.5
sg8
F43.0
sg9
F115.0
saa(lp1480
V103622
p1481
a(dp1482
g5
F115.0
sg6
F2.0
sg7
F114.5
sg8
F5.0
sg9
F115.0
saa(lp1483
V103627
p1484
a(dp1485
g5
F115.0
sg6
F2.0
sg7
F114.5
sg8
F7.0
sg9
F115.0
saa(lp1486
V103632
p1487
a(dp1488
g5
F115.0
sg6
F2.0
sg7
F114.5
sg8
F2.0
sg9
F115.0
saa(lp1489
V103637
p1490
a(dp1491
g5
F115.5
sg6
F2.5
sg7
F115.0
sg8
F10.0
sg9
F115.5
saa(lp1492
V103647
p1493
a(dp1494
g5
F115.5
sg6
F2.5
sg7
F115.0
sg8
F12.0
sg9
F115.5
saa(lp1495
V103652
p1496
a(dp1497
g5
F115.5
sg6
F2.0
sg7
F115.0
sg8
F3.0
sg9
F115.0
saa(lp1498
V103657
p1499
a(dp1500
g5
F115.5
sg6
F2.0
sg7
F115.0
sg8
F1.0
sg9
F115.0
saa(lp1501
V103702
p1502
a(dp1503
g5
F115.5
sg6
F2.0
sg7
F115.0
sg8
F1.0
sg9
F115.0
saa(lp1504
V103707
p1505
a(dp1506
g5
F115.5
sg6
F2.0
sg7
F115.0
sg8
F1.0
sg9
F115.0
saa(lp1507
V103717
p1508
a(dp1509
g5
F115.5
sg6
F2.0
sg7
F115.0
sg8
F1.0
sg9
F115.0
saa(lp1510
V103732
p1511
a(dp1512
g5
F115.5
sg6
F2.5
sg7
F115.0
sg8
F2.0
sg9
F115.5
saa(lp1513
V103753
p1514
a(dp1515
g5
F115.5
sg6
F2.0
sg7
F115.0
sg8
F10.0
sg9
F115.0
saa(lp1516
V103818
p1517
a(dp1518
g5
F115.5
sg6
F2.0
sg7
F115.0
sg8
F10.0
sg9
F115.0
saa(lp1519
V103823
p1520
a(dp1521
g5
F115.5
sg6
F2.0
sg7
F115.0
sg8
F1.0
sg9
F115.0
saa(lp1522
V103828
p1523
a(dp1524
g5
F115.5
sg6
F2.0
sg7
F115.0
sg8
F2.0
sg9
F115.0
saa(lp1525
V103833
p1526
a(dp1527
g5
F115.5
sg6
F2.0
sg7
F115.0
sg8
F2.0
sg9
F115.0
saa(lp1528
V103838
p1529
a(dp1530
g5
F115.5
sg6
F2.0
sg7
F115.0
sg8
F13.0
sg9
F115.0
saa(lp1531
V103843
p1532
a(dp1533
g5
F115.0
sg6
F2.0
sg7
F114.5
sg8
F1.0
sg9
F115.0
saa(lp1534
V103848
p1535
a(dp1536
g5
F115.0
sg6
F2.0
sg7
F114.5
sg8
F1.0
sg9
F115.0
saa(lp1537
V103853
p1538
a(dp1539
g5
F115.0
sg6
F2.0
sg7
F114.5
sg8
F6.0
sg9
F115.0
saa(lp1540
V103858
p1541
a(dp1542
g5
F115.0
sg6
F2.0
sg7
F114.5
sg8
F1.0
sg9
F115.0
saa(lp1543
V103903
p1544
a(dp1545
g5
F115.0
sg6
F2.0
sg7
F114.5
sg8
F2.0
sg9
F115.0
saa(lp1546
V103913
p1547
a(dp1548
g5
F115.0
sg6
F2.0
sg7
F114.5
sg8
F1.0
sg9
F115.0
saa(lp1549
V103928
p1550
a(dp1551
g5
F115.0
sg6
F2.0
sg7
F114.5
sg8
F1.0
sg9
F115.0
saa(lp1552
V103933
p1553
a(dp1554
g5
F115.0
sg6
F2.0
sg7
F114.5
sg8
F1.0
sg9
F115.0
saa(lp1555
V103939
p1556
a(dp1557
g5
F115.0
sg6
F2.0
sg7
F114.5
sg8
F5.0
sg9
F115.0
saa(lp1558
V103944
p1559
a(dp1560
g5
F115.0
sg6
F2.0
sg7
F114.5
sg8
F2.0
sg9
F115.0
saa(lp1561
V103949
p1562
a(dp1563
g5
F115.0
sg6
F2.0
sg7
F114.5
sg8
F1.0
sg9
F115.0
saa(lp1564
V104009
p1565
a(dp1566
g5
F115.5
sg6
F2.0
sg7
F115.0
sg8
F1.0
sg9
F115.0
saa(lp1567
V104044
p1568
a(dp1569
g5
F115.0
sg6
F2.0
sg7
F114.5
sg8
F5.0
sg9
F115.0
saa(lp1570
V104049
p1571
a(dp1572
g5
F115.0
sg6
F2.0
sg7
F114.5
sg8
F5.0
sg9
F115.0
saa(lp1573
V104059
p1574
a(dp1575
g5
F115.0
sg6
F2.0
sg7
F114.5
sg8
F1.0
sg9
F115.0
saa(lp1576
V104109
p1577
a(dp1578
g5
F115.0
sg6
F2.0
sg7
F114.5
sg8
F2.0
sg9
F115.0
saa(lp1579
V104134
p1580
a(dp1581
g5
F115.0
sg6
F2.0
sg7
F114.5
sg8
F1.0
sg9
F115.0
saa(lp1582
V104144
p1583
a(dp1584
g5
F115.0
sg6
F2.0
sg7
F114.5
sg8
F3.0
sg9
F115.0
saa(lp1585
V104149
p1586
a(dp1587
g5
F115.0
sg6
F1.5
sg7
F114.5
sg8
F1.0
sg9
F114.5
saa(lp1588
V104234
p1589
a(dp1590
g5
F115.0
sg6
F1.5
sg7
F114.5
sg8
F2.0
sg9
F114.5
saa(lp1591
V104244
p1592
a(dp1593
g5
F115.0
sg6
F1.5
sg7
F114.5
sg8
F1.0
sg9
F114.5
saa(lp1594
V104304
p1595
a(dp1596
g5
F115.0
sg6
F1.5
sg7
F114.5
sg8
F1.0
sg9
F114.5
saa(lp1597
V104314
p1598
a(dp1599
g5
F115.0
sg6
F2.0
sg7
F114.5
sg8
F1.0
sg9
F115.0
saa(lp1600
V104329
p1601
a(dp1602
g5
F115.0
sg6
F2.0
sg7
F114.5
sg8
F1.0
sg9
F115.0
saa(lp1603
V104354
p1604
a(dp1605
g5
F115.0
sg6
F2.0
sg7
F114.5
sg8
F2.0
sg9
F115.0
saa(lp1606
V104505
p1607
a(dp1608
g5
F115.0
sg6
F2.0
sg7
F114.5
sg8
F1.0
sg9
F115.0
saa(lp1609
V104510
p1610
a(dp1611
g5
F115.0
sg6
F2.0
sg7
F114.5
sg8
F3.0
sg9
F115.0
saa(lp1612
V104520
p1613
a(dp1614
g5
F115.0
sg6
F2.0
sg7
F114.5
sg8
F1.0
sg9
F115.0
saa(lp1615
V104540
p1616
a(dp1617
g5
F115.0
sg6
F2.0
sg7
F114.5
sg8
F29.0
sg9
F115.0
saa(lp1618
V104545
p1619
a(dp1620
g5
F115.5
sg6
F2.5
sg7
F115.0
sg8
F2.0
sg9
F115.5
saa(lp1621
V104620
p1622
a(dp1623
g5
F115.5
sg6
F2.5
sg7
F115.0
sg8
F10.0
sg9
F115.5
saa(lp1624
V104645
p1625
a(dp1626
g5
F115.5
sg6
F2.5
sg7
F115.0
sg8
F1.0
sg9
F115.5
saa(lp1627
V104650
p1628
a(dp1629
g5
F115.5
sg6
F2.5
sg7
F115.0
sg8
F1.0
sg9
F115.5
saa(lp1630
V104655
p1631
a(dp1632
g5
F115.5
sg6
F2.5
sg7
F115.0
sg8
F1.0
sg9
F115.5
saa(lp1633
V104715
p1634
a(dp1635
g5
F115.5
sg6
F2.0
sg7
F115.0
sg8
F2.0
sg9
F115.0
saa(lp1636
V104720
p1637
a(dp1638
g5
F115.5
sg6
F2.5
sg7
F115.0
sg8
F2.0
sg9
F115.5
saa(lp1639
V104725
p1640
a(dp1641
g5
F115.5
sg6
F2.0
sg7
F115.0
sg8
F1.0
sg9
F115.0
saa(lp1642
V104730
p1643
a(dp1644
g5
F115.5
sg6
F2.5
sg7
F115.0
sg8
F1.0
sg9
F115.5
saa(lp1645
V104740
p1646
a(dp1647
g5
F115.5
sg6
F2.5
sg7
F115.0
sg8
F1.0
sg9
F115.5
saa(lp1648
V104745
p1649
a(dp1650
g5
F115.5
sg6
F2.5
sg7
F115.0
sg8
F1.0
sg9
F115.5
saa(lp1651
V104755
p1652
a(dp1653
g5
F115.5
sg6
F2.5
sg7
F115.0
sg8
F1.0
sg9
F115.5
saa(lp1654
V104815
p1655
a(dp1656
g5
F115.5
sg6
F2.5
sg7
F115.0
sg8
F1.0
sg9
F115.5
saa(lp1657
V104836
p1658
a(dp1659
g5
F115.5
sg6
F2.5
sg7
F115.0
sg8
F1.0
sg9
F115.5
saa(lp1660
V104911
p1661
a(dp1662
g5
F115.5
sg6
F2.0
sg7
F115.0
sg8
F5.0
sg9
F115.0
saa(lp1663
V104916
p1664
a(dp1665
g5
F115.5
sg6
F2.0
sg7
F115.0
sg8
F5.0
sg9
F115.0
saa(lp1666
V104936
p1667
a(dp1668
g5
F115.5
sg6
F2.0
sg7
F115.0
sg8
F1.0
sg9
F115.0
saa(lp1669
V104941
p1670
a(dp1671
g5
F115.5
sg6
F2.0
sg7
F115.0
sg8
F1.0
sg9
F115.0
saa(lp1672
V104951
p1673
a(dp1674
g5
F115.5
sg6
F2.0
sg7
F115.0
sg8
F2.0
sg9
F115.0
saa(lp1675
V104956
p1676
a(dp1677
g5
F115.5
sg6
F2.0
sg7
F115.0
sg8
F7.0
sg9
F115.0
saa(lp1678
V105006
p1679
a(dp1680
g5
F115.5
sg6
F2.0
sg7
F115.0
sg8
F2.0
sg9
F115.0
saa(lp1681
V105021
p1682
a(dp1683
g5
F115.5
sg6
F2.0
sg7
F115.0
sg8
F14.0
sg9
F115.0
saa(lp1684
V105026
p1685
a(dp1686
g5
F115.0
sg6
F2.0
sg7
F114.5
sg8
F2.0
sg9
F115.0
saa(lp1687
V105036
p1688
a(dp1689
g5
F115.0
sg6
F2.0
sg7
F114.5
sg8
F1.0
sg9
F115.0
saa(lp1690
V105041
p1691
a(dp1692
g5
F115.0
sg6
F2.0
sg7
F114.5
sg8
F1.0
sg9
F115.0
saa(lp1693
V105051
p1694
a(dp1695
g5
F115.5
sg6
F2.0
sg7
F115.0
sg8
F1.0
sg9
F115.0
saa(lp1696
V105137
p1697
a(dp1698
g5
F115.5
sg6
F2.0
sg7
F115.0
sg8
F1.0
sg9
F115.0
saa(lp1699
V105142
p1700
a(dp1701
g5
F115.5
sg6
F2.0
sg7
F115.0
sg8
F1.0
sg9
F115.0
saa(lp1702
V105222
p1703
a(dp1704
g5
F115.5
sg6
F2.0
sg7
F115.0
sg8
F1.0
sg9
F115.0
saa(lp1705
V105227
p1706
a(dp1707
g5
F115.5
sg6
F2.0
sg7
F115.0
sg8
F1.0
sg9
F115.0
saa(lp1708
V105237
p1709
a(dp1710
g5
F115.5
sg6
F2.0
sg7
F115.0
sg8
F2.0
sg9
F115.0
saa(lp1711
V105242
p1712
a(dp1713
g5
F115.5
sg6
F2.0
sg7
F115.0
sg8
F1.0
sg9
F115.0
saa(lp1714
V105247
p1715
a(dp1716
g5
F115.5
sg6
F2.0
sg7
F115.0
sg8
F1.0
sg9
F115.0
saa(lp1717
V105332
p1718
a(dp1719
g5
F115.0
sg6
F2.0
sg7
F114.5
sg8
F1.0
sg9
F115.0
saa(lp1720
V105402
p1721
a(dp1722
g5
F115.5
sg6
F2.0
sg7
F115.0
sg8
F2.0
sg9
F115.0
saa(lp1723
V105407
p1724
a(dp1725
g5
F115.5
sg6
F2.0
sg7
F115.0
sg8
F1.0
sg9
F115.0
saa(lp1726
V105412
p1727
a(dp1728
g5
F115.5
sg6
F2.0
sg7
F115.0
sg8
F4.0
sg9
F115.0
saa(lp1729
V105628
p1730
a(dp1731
g5
F115.0
sg6
F2.0
sg7
F114.5
sg8
F1.0
sg9
F115.0
saa(lp1732
V105748
p1733
a(dp1734
g5
F115.0
sg6
F2.0
sg7
F114.5
sg8
F5.0
sg9
F115.0
saa(lp1735
V105908
p1736
a(dp1737
g5
F115.0
sg6
F1.5
sg7
F114.5
sg8
F1.0
sg9
F114.5
saa(lp1738
V105954
p1739
a(dp1740
g5
F115.0
sg6
F1.5
sg7
F114.5
sg8
F1.0
sg9
F114.5
saa(lp1741
V110004
p1742
a(dp1743
g5
F115.0
sg6
F1.5
sg7
F114.5
sg8
F2.0
sg9
F114.5
saa(lp1744
V110014
p1745
a(dp1746
g5
F115.0
sg6
F2.0
sg7
F114.5
sg8
F5.0
sg9
F115.0
saa(lp1747
V110029
p1748
a(dp1749
g5
F115.0
sg6
F2.0
sg7
F114.5
sg8
F1.0
sg9
F115.0
saa(lp1750
V110224
p1751
a(dp1752
g5
F115.0
sg6
F1.5
sg7
F114.5
sg8
F1.0
sg9
F114.5
saa(lp1753
V110305
p1754
a(dp1755
g5
F115.0
sg6
F1.5
sg7
F114.5
sg8
F1.0
sg9
F114.5
saa(lp1756
V110515
p1757
a(dp1758
g5
F115.0
sg6
F1.5
sg7
F114.5
sg8
F1.0
sg9
F114.5
saa(lp1759
V110530
p1760
a(dp1761
g5
F115.0
sg6
F1.5
sg7
F114.5
sg8
F36.0
sg9
F114.5
saa(lp1762
V110535
p1763
a(dp1764
g5
F115.0
sg6
F1.5
sg7
F114.5
sg8
F1.0
sg9
F114.5
saa(lp1765
V110545
p1766
a(dp1767
g5
F114.5
sg6
F1.5
sg7
F114.0
sg8
F1.0
sg9
F114.5
saa(lp1768
V110600
p1769
a(dp1770
g5
F115.0
sg6
F2.0
sg7
F114.0
sg8
F10.0
sg9
F115.0
saa(lp1771
V110610
p1772
a(dp1773
g5
F114.5
sg6
F1.5
sg7
F114.0
sg8
F2.0
sg9
F114.5
saa(lp1774
V110620
p1775
a(dp1776
g5
F114.5
sg6
F1.5
sg7
F114.0
sg8
F1.0
sg9
F114.5
saa(lp1777
V110635
p1778
a(dp1779
g5
F115.0
sg6
F1.5
sg7
F114.5
sg8
F1.0
sg9
F114.5
saa(lp1780
V110716
p1781
a(dp1782
g5
F115.0
sg6
F1.5
sg7
F114.5
sg8
F1.0
sg9
F114.5
saa(lp1783
V110741
p1784
a(dp1785
g5
F115.0
sg6
F1.5
sg7
F114.5
sg8
F1.0
sg9
F114.5
saa(lp1786
V110921
p1787
a(dp1788
g5
F115.0
sg6
F1.5
sg7
F114.5
sg8
F5.0
sg9
F114.5
saa(lp1789
V110942
p1790
a(dp1791
g5
F115.0
sg6
F1.5
sg7
F114.5
sg8
F23.0
sg9
F114.5
saa(lp1792
V111057
p1793
a(dp1794
g5
F114.5
sg6
F1.5
sg7
F114.0
sg8
F1.0
sg9
F114.5
saa(lp1795
V111147
p1796
a(dp1797
g5
F114.5
sg6
F1.5
sg7
F114.0
sg8
F1.0
sg9
F114.5
saa(lp1798
V111242
p1799
a(dp1800
g5
F114.5
sg6
F1.0
sg7
F114.0
sg8
F1.0
sg9
F114.0
saa(lp1801
V111247
p1802
a(dp1803
g5
F114.5
sg6
F1.0
sg7
F114.0
sg8
F1.0
sg9
F114.0
saa(lp1804
V111307
p1805
a(dp1806
g5
F114.5
sg6
F1.0
sg7
F114.0
sg8
F1.0
sg9
F114.0
saa(lp1807
V111312
p1808
a(dp1809
g5
F114.5
sg6
F1.0
sg7
F114.0
sg8
F1.0
sg9
F114.0
saa(lp1810
V111322
p1811
a(dp1812
g5
F114.5
sg6
F1.0
sg7
F114.0
sg8
F1.0
sg9
F114.0
saa(lp1813
V111428
p1814
a(dp1815
g5
F114.5
sg6
F1.0
sg7
F114.0
sg8
F3.0
sg9
F114.0
saa(lp1816
V111528
p1817
a(dp1818
g5
F114.5
sg6
F1.0
sg7
F114.0
sg8
F1.0
sg9
F114.0
saa(lp1819
V111603
p1820
a(dp1821
g5
F114.5
sg6
F1.0
sg7
F114.0
sg8
F2.0
sg9
F114.0
saa(lp1822
V111723
p1823
a(dp1824
g5
F114.5
sg6
F1.0
sg7
F114.0
sg8
F3.0
sg9
F114.0
saa(lp1825
V111739
p1826
a(dp1827
g5
F114.5
sg6
F1.0
sg7
F114.0
sg8
F1.0
sg9
F114.0
saa(lp1828
V111754
p1829
a(dp1830
g5
F114.5
sg6
F1.0
sg7
F114.0
sg8
F3.0
sg9
F114.0
saa(lp1831
V111759
p1832
a(dp1833
g5
F114.5
sg6
F1.5
sg7
F114.0
sg8
F1.0
sg9
F114.5
saa(lp1834
V111814
p1835
a(dp1836
g5
F114.5
sg6
F1.5
sg7
F114.0
sg8
F1.0
sg9
F114.5
saa(lp1837
V111924
p1838
a(dp1839
g5
F114.5
sg6
F1.5
sg7
F114.0
sg8
F1.0
sg9
F114.5
saa(lp1840
V111934
p1841
a(dp1842
g5
F114.5
sg6
F1.5
sg7
F114.0
sg8
F1.0
sg9
F114.5
saa(lp1843
V111940
p1844
a(dp1845
g5
F114.5
sg6
F1.5
sg7
F114.0
sg8
F1.0
sg9
F114.5
saa(lp1846
V112040
p1847
a(dp1848
g5
F114.5
sg6
F1.5
sg7
F114.0
sg8
F1.0
sg9
F114.5
saa(lp1849
V112055
p1850
a(dp1851
g5
F114.5
sg6
F1.0
sg7
F114.0
sg8
F30.0
sg9
F114.0
saa(lp1852
V112100
p1853
a(dp1854
g5
F114.5
sg6
F1.0
sg7
F114.0
sg8
F50.0
sg9
F114.0
saa(lp1855
V112105
p1856
a(dp1857
g5
F114.5
sg6
F1.0
sg7
F114.0
sg8
F10.0
sg9
F114.0
saa(lp1858
V112110
p1859
a(dp1860
g5
F114.5
sg6
F1.0
sg7
F114.0
sg8
F1.0
sg9
F114.0
saa(lp1861
V112115
p1862
a(dp1863
g5
F114.5
sg6
F1.0
sg7
F114.0
sg8
F15.0
sg9
F114.0
saa(lp1864
V112120
p1865
a(dp1866
g5
F114.0
sg6
F0.5
sg7
F113.5
sg8
F1.0
sg9
F113.5
saa(lp1867
V112135
p1868
a(dp1869
g5
F114.0
sg6
F1.0
sg7
F113.5
sg8
F1.0
sg9
F114.0
saa(lp1870
V112140
p1871
a(dp1872
g5
F114.0
sg6
F0.5
sg7
F113.5
sg8
F1.0
sg9
F113.5
saa(lp1873
V112155
p1874
a(dp1875
g5
F114.0
sg6
F0.5
sg7
F113.5
sg8
F3.0
sg9
F113.5
saa(lp1876
V112200
p1877
a(dp1878
g5
F114.0
sg6
F0.5
sg7
F113.5
sg8
F1.0
sg9
F113.5
saa(lp1879
V112205
p1880
a(dp1881
g5
F114.0
sg6
F0.5
sg7
F113.5
sg8
F35.0
sg9
F113.5
saa(lp1882
V112210
p1883
a(dp1884
g5
F114.0
sg6
F0.5
sg7
F113.5
sg8
F1.0
sg9
F113.5
saa(lp1885
V112215
p1886
a(dp1887
g5
F114.0
sg6
F0.5
sg7
F113.5
sg8
F4.0
sg9
F113.5
saa(lp1888
V112225
p1889
a(dp1890
g5
F114.0
sg6
F0.5
sg7
F113.5
sg8
F1.0
sg9
F113.5
saa(lp1891
V112255
p1892
a(dp1893
g5
F114.0
sg6
F0.5
sg7
F113.5
sg8
F1.0
sg9
F113.5
saa(lp1894
V112310
p1895
a(dp1896
g5
F114.0
sg6
F0.5
sg7
F113.5
sg8
F2.0
sg9
F113.5
saa(lp1897
V112511
p1898
a(dp1899
g5
F114.0
sg6
F0.5
sg7
F113.5
sg8
F7.0
sg9
F113.5
saa(lp1900
V112526
p1901
a(dp1902
g5
F114.0
sg6
F0.5
sg7
F113.5
sg8
F1.0
sg9
F113.5
saa(lp1903
V112536
p1904
a(dp1905
g5
F114.0
sg6
F0.5
sg7
F113.5
sg8
F10.0
sg9
F113.5
saa(lp1906
V112546
p1907
a(dp1908
g5
F114.0
sg6
F0.5
sg7
F113.5
sg8
F2.0
sg9
F113.5
saa(lp1909
V112551
p1910
a(dp1911
g5
F114.0
sg6
F0.5
sg7
F113.5
sg8
F5.0
sg9
F113.5
saa(lp1912
V112556
p1913
a(dp1914
g5
F114.0
sg6
F0.5
sg7
F113.5
sg8
F20.0
sg9
F113.5
saa(lp1915
V112601
p1916
a(dp1917
g5
F114.0
sg6
F0.5
sg7
F113.5
sg8
F11.0
sg9
F113.5
saa(lp1918
V112611
p1919
a(dp1920
g5
F114.0
sg6
F0.5
sg7
F113.5
sg8
F7.0
sg9
F113.5
saa(lp1921
V112616
p1922
a(dp1923
g5
F113.5
sg6
F0.5
sg7
F113.0
sg8
F2.0
sg9
F113.5
saa(lp1924
V112621
p1925
a(dp1926
g5
F113.5
sg6
F0.5
sg7
F113.0
sg8
F3.0
sg9
F113.5
saa(lp1927
V112651
p1928
a(dp1929
g5
F114.0
sg6
F0.5
sg7
F113.5
sg8
F6.0
sg9
F113.5
saa(lp1930
V112701
p1931
a(dp1932
g5
F113.5
sg6
F0.5
sg7
F113.0
sg8
F1.0
sg9
F113.5
saa(lp1933
V112706
p1934
a(dp1935
g5
F113.5
sg6
F0.5
sg7
F113.0
sg8
F1.0
sg9
F113.5
saa(lp1936
V112711
p1937
a(dp1938
g5
F113.5
sg6
F0.5
sg7
F113.0
sg8
F2.0
sg9
F113.5
saa(lp1939
V112721
p1940
a(dp1941
g5
F114.0
sg6
F0.5
sg7
F113.5
sg8
F1.0
sg9
F113.5
saa(lp1942
V112736
p1943
a(dp1944
g5
F114.0
sg6
F0.5
sg7
F113.5
sg8
F1.0
sg9
F113.5
saa(lp1945
V112741
p1946
a(dp1947
g5
F114.0
sg6
F0.5
sg7
F113.5
sg8
F1.0
sg9
F113.5
saa(lp1948
V112751
p1949
a(dp1950
g5
F114.0
sg6
F0.5
sg7
F113.5
sg8
F1.0
sg9
F113.5
saa(lp1951
V112806
p1952
a(dp1953
g5
F113.5
sg6
F0.5
sg7
F113.0
sg8
F1.0
sg9
F113.5
saa(lp1954
V112827
p1955
a(dp1956
g5
F113.5
sg6
F0.5
sg7
F113.0
sg8
F4.0
sg9
F113.5
saa(lp1957
V112912
p1958
a(dp1959
g5
F114.0
sg6
F0.5
sg7
F113.5
sg8
F10.0
sg9
F113.5
saa(lp1960
V112952
p1961
a(dp1962
g5
F114.0
sg6
F0.5
sg7
F113.5
sg8
F1.0
sg9
F113.5
saa(lp1963
V113002
p1964
a(dp1965
g5
F114.0
sg6
F0.5
sg7
F113.5
sg8
F2.0
sg9
F113.5
saa(lp1966
V113103
p1967
a(dp1968
g5
F113.5
sg6
F0.5
sg7
F113.0
sg8
F1.0
sg9
F113.5
saa(lp1969
V113113
p1970
a(dp1971
g5
F113.5
sg6
F0.0
sg7
F113.0
sg8
F2.0
sg9
F113.0
saa(lp1972
V113138
p1973
a(dp1974
g5
F113.5
sg6
F0.0
sg7
F113.0
sg8
F3.0
sg9
F113.0
saa(lp1975
V113148
p1976
a(dp1977
g5
F113.5
sg6
F0.5
sg7
F113.0
sg8
F1.0
sg9
F113.5
saa(lp1978
V113153
p1979
a(dp1980
g5
F113.5
sg6
F0.5
sg7
F113.0
sg8
F1.0
sg9
F113.5
saa(lp1981
V113213
p1982
a(dp1983
g5
F113.5
sg6
F0.5
sg7
F113.0
sg8
F11.0
sg9
F113.5
saa(lp1984
V113218
p1985
a(dp1986
g5
F114.0
sg6
F1.0
sg7
F113.5
sg8
F2.0
sg9
F114.0
saa(lp1987
V113504
p1988
a(dp1989
g5
F114.0
sg6
F1.0
sg7
F113.5
sg8
F2.0
sg9
F114.0
saa(lp1990
V113714
p1991
a(dp1992
g5
F114.0
sg6
F0.5
sg7
F113.5
sg8
F1.0
sg9
F113.5
saa(lp1993
V113739
p1994
a(dp1995
g5
F114.0
sg6
F0.5
sg7
F113.5
sg8
F1.0
sg9
F113.5
saa(lp1996
V113759
p1997
a(dp1998
g5
F114.0
sg6
F0.5
sg7
F113.5
sg8
F1.0
sg9
F113.5
saa(lp1999
V114110
p2000
a(dp2001
g5
F114.0
sg6
F1.0
sg7
F113.5
sg8
F2.0
sg9
F114.0
saa(lp2002
V114221
p2003
a(dp2004
g5
F114.0
sg6
F0.5
sg7
F113.5
sg8
F1.0
sg9
F113.5
saa(lp2005
V114246
p2006
a(dp2007
g5
F114.0
sg6
F0.5
sg7
F113.5
sg8
F1.0
sg9
F113.5
saa(lp2008
V114336
p2009
a(dp2010
g5
F114.0
sg6
F0.5
sg7
F113.5
sg8
F5.0
sg9
F113.5
saa(lp2011
V114351
p2012
a(dp2013
g5
F114.0
sg6
F0.5
sg7
F113.5
sg8
F1.0
sg9
F113.5
saa(lp2014
V114411
p2015
a(dp2016
g5
F114.0
sg6
F0.5
sg7
F113.5
sg8
F5.0
sg9
F113.5
saa(lp2017
V114416
p2018
a(dp2019
g5
F114.0
sg6
F0.5
sg7
F113.5
sg8
F2.0
sg9
F113.5
saa(lp2020
V114506
p2021
a(dp2022
g5
F114.0
sg6
F0.5
sg7
F113.5
sg8
F5.0
sg9
F113.5
saa(lp2023
V114521
p2024
a(dp2025
g5
F114.0
sg6
F1.0
sg7
F113.5
sg8
F1.0
sg9
F114.0
saa(lp2026
V114536
p2027
a(dp2028
g5
F114.0
sg6
F0.5
sg7
F113.5
sg8
F1.0
sg9
F113.5
saa(lp2029
V114607
p2030
a(dp2031
g5
F114.0
sg6
F0.5
sg7
F113.5
sg8
F1.0
sg9
F113.5
saa(lp2032
V114632
p2033
a(dp2034
g5
F114.0
sg6
F0.5
sg7
F113.5
sg8
F1.0
sg9
F113.5
saa(lp2035
V114757
p2036
a(dp2037
g5
F114.0
sg6
F0.5
sg7
F113.5
sg8
F1.0
sg9
F113.5
saa(lp2038
V114933
p2039
a(dp2040
g5
F114.0
sg6
F0.5
sg7
F113.5
sg8
F2.0
sg9
F113.5
saa(lp2041
V114938
p2042
a(dp2043
g5
F114.0
sg6
F0.5
sg7
F113.5
sg8
F1.0
sg9
F113.5
saa(lp2044
V114943
p2045
a(dp2046
g5
F114.0
sg6
F1.0
sg7
F113.5
sg8
F1.0
sg9
F114.0
saa(lp2047
V115239
p2048
a(dp2049
g5
F114.0
sg6
F1.0
sg7
F113.5
sg8
F1.0
sg9
F114.0
saa(lp2050
V115655
p2051
a(dp2052
g5
F114.0
sg6
F0.5
sg7
F113.5
sg8
F33.0
sg9
F113.5
saa(lp2053
V115705
p2054
a(dp2055
g5
F114.0
sg6
F0.5
sg7
F113.5
sg8
F5.0
sg9
F113.5
saa(lp2056
V115720
p2057
a(dp2058
g5
F114.0
sg6
F0.5
sg7
F113.5
sg8
F12.0
sg9
F113.5
saa(lp2059
V115830
p2060
a(dp2061
g5
F113.5
sg6
F0.0
sg7
F113.0
sg8
F2.0
sg9
F113.0
saa(lp2062
V115900
p2063
a(dp2064
g5
F113.5
sg6
F0.5
sg7
F113.0
sg8
F1.0
sg9
F113.5
saa(lp2065
V115941
p2066
a(dp2067
g5
F113.5
sg6
F0.5
sg7
F113.0
sg8
F1.0
sg9
F113.5
saa(lp2068
V115956
p2069
a(dp2070
g5
F113.5
sg6
F0.5
sg7
F113.0
sg8
F1.0
sg9
F113.5
saa(lp2071
V120031
p2072
a(dp2073
g5
F113.5
sg6
F0.5
sg7
F113.0
sg8
F1.0
sg9
F113.5
saa(lp2074
V120036
p2075
a(dp2076
g5
F113.5
sg6
F0.5
sg7
F113.0
sg8
F1.0
sg9
F113.5
saa(lp2077
V120056
p2078
a(dp2079
g5
F113.5
sg6
F0.5
sg7
F113.0
sg8
F1.0
sg9
F113.5
saa(lp2080
V120121
p2081
a(dp2082
g5
F113.5
sg6
F0.0
sg7
F113.0
sg8
F1.0
sg9
F113.0
saa(lp2083
V120151
p2084
a(dp2085
g5
F113.5
sg6
F0.0
sg7
F113.0
sg8
F2.0
sg9
F113.0
saa(lp2086
V120156
p2087
a(dp2088
g5
F113.5
sg6
F0.0
sg7
F113.0
sg8
F1.0
sg9
F113.0
saa(lp2089
V120226
p2090
a(dp2091
g5
F113.5
sg6
F0.0
sg7
F113.0
sg8
F1.0
sg9
F113.0
saa(lp2092
V120322
p2093
a(dp2094
g5
F113.5
sg6
F0.0
sg7
F113.0
sg8
F1.0
sg9
F113.0
saa(lp2095
V120402
p2096
a(dp2097
g5
F113.5
sg6
F0.0
sg7
F113.0
sg8
F1.0
sg9
F113.0
saa(lp2098
V120407
p2099
a(dp2100
g5
F113.5
sg6
F0.0
sg7
F113.0
sg8
F1.0
sg9
F113.0
saa(lp2101
V120617
p2102
a(dp2103
g5
F113.5
sg6
F0.5
sg7
F113.0
sg8
F1.0
sg9
F113.5
saa(lp2104
V120622
p2105
a(dp2106
g5
F113.5
sg6
F0.5
sg7
F113.0
sg8
F1.0
sg9
F113.5
saa(lp2107
V120713
p2108
a(dp2109
g5
F113.5
sg6
F0.5
sg7
F113.0
sg8
F1.0
sg9
F113.5
saa(lp2110
V120823
p2111
a(dp2112
g5
F113.5
sg6
F0.5
sg7
F113.0
sg8
F1.0
sg9
F113.5
saa(lp2113
V121109
p2114
a(dp2115
g5
F113.5
sg6
F0.5
sg7
F113.0
sg8
F1.0
sg9
F113.5
saa(lp2116
V121119
p2117
a(dp2118
g5
F113.5
sg6
F0.5
sg7
F113.0
sg8
F1.0
sg9
F113.5
saa(lp2119
V121204
p2120
a(dp2121
g5
F113.5
sg6
F0.5
sg7
F113.0
sg8
F1.0
sg9
F113.5
saa(lp2122
V121304
p2123
a(dp2124
g5
F113.5
sg6
F0.5
sg7
F113.0
sg8
F31.0
sg9
F113.5
saa(lp2125
V121309
p2126
a(dp2127
g5
F113.5
sg6
F0.5
sg7
F113.0
sg8
F9.0
sg9
F113.5
saa(lp2128
V121409
p2129
a(dp2130
g5
F114.0
sg6
F0.5
sg7
F113.5
sg8
F1.0
sg9
F113.5
saa(lp2131
V121414
p2132
a(dp2133
g5
F114.0
sg6
F0.5
sg7
F113.5
sg8
F16.0
sg9
F113.5
saa(lp2134
V121615
p2135
a(dp2136
g5
F114.0
sg6
F0.5
sg7
F113.5
sg8
F2.0
sg9
F113.5
saa(lp2137
V121645
p2138
a(dp2139
g5
F114.0
sg6
F0.5
sg7
F113.5
sg8
F1.0
sg9
F113.5
saa(lp2140
V121720
p2141
a(dp2142
g5
F114.0
sg6
F0.5
sg7
F113.5
sg8
F2.0
sg9
F113.5
saa(lp2143
V121730
p2144
a(dp2145
g5
F114.0
sg6
F0.5
sg7
F113.5
sg8
F1.0
sg9
F113.5
saa(lp2146
V121745
p2147
a(dp2148
g5
F114.0
sg6
F0.5
sg7
F113.5
sg8
F1.0
sg9
F113.5
saa(lp2149
V121806
p2150
a(dp2151
g5
F114.0
sg6
F0.5
sg7
F113.5
sg8
F1.0
sg9
F113.5
saa(lp2152
V121901
p2153
a(dp2154
g5
F114.0
sg6
F0.5
sg7
F113.5
sg8
F1.0
sg9
F113.5
saa(lp2155
V121936
p2156
a(dp2157
g5
F114.0
sg6
F0.5
sg7
F113.5
sg8
F1.0
sg9
F113.5
saa(lp2158
V122016
p2159
a(dp2160
g5
F114.0
sg6
F0.5
sg7
F113.5
sg8
F1.0
sg9
F113.5
saa(lp2161
V122036
p2162
a(dp2163
g5
F114.0
sg6
F0.5
sg7
F113.5
sg8
F1.0
sg9
F113.5
saa(lp2164
V122107
p2165
a(dp2166
g5
F114.0
sg6
F0.5
sg7
F113.5
sg8
F2.0
sg9
F113.5
saa(lp2167
V122247
p2168
a(dp2169
g5
F114.0
sg6
F0.5
sg7
F113.5
sg8
F1.0
sg9
F113.5
saa(lp2170
V122302
p2171
a(dp2172
g5
F114.0
sg6
F0.5
sg7
F113.5
sg8
F1.0
sg9
F113.5
saa(lp2173
V122307
p2174
a(dp2175
g5
F114.0
sg6
F0.5
sg7
F113.5
sg8
F1.0
sg9
F113.5
saa(lp2176
V122427
p2177
a(dp2178
g5
F114.0
sg6
F0.5
sg7
F113.5
sg8
F1.0
sg9
F113.5
saa(lp2179
V122623
p2180
a(dp2181
g5
F114.0
sg6
F1.0
sg7
F113.5
sg8
F2.0
sg9
F114.0
saa(lp2182
V122628
p2183
a(dp2184
g5
F114.0
sg6
F0.5
sg7
F113.5
sg8
F1.0
sg9
F113.5
saa(lp2185
V122633
p2186
a(dp2187
g5
F114.0
sg6
F0.5
sg7
F113.5
sg8
F1.0
sg9
F113.5
saa(lp2188
V122703
p2189
a(dp2190
g5
F114.0
sg6
F0.5
sg7
F113.5
sg8
F1.0
sg9
F113.5
saa(lp2191
V122708
p2192
a(dp2193
g5
F114.0
sg6
F0.5
sg7
F113.5
sg8
F4.0
sg9
F113.5
saa(lp2194
V122748
p2195
a(dp2196
g5
F114.0
sg6
F1.0
sg7
F113.5
sg8
F1.0
sg9
F114.0
saa(lp2197
V122848
p2198
a(dp2199
g5
F114.0
sg6
F0.5
sg7
F113.5
sg8
F1.0
sg9
F113.5
saa(lp2200
V122903
p2201
a(dp2202
g5
F114.0
sg6
F0.5
sg7
F113.5
sg8
F1.0
sg9
F113.5
saa(lp2203
V123054
p2204
a(dp2205
g5
F114.0
sg6
F1.0
sg7
F113.5
sg8
F1.0
sg9
F114.0
saa(lp2206
V123220
p2207
a(dp2208
g5
F114.0
sg6
F0.5
sg7
F113.5
sg8
F1.0
sg9
F113.5
saa(lp2209
V123330
p2210
a(dp2211
g5
F114.0
sg6
F0.5
sg7
F113.5
sg8
F1.0
sg9
F113.5
saa(lp2212
V123405
p2213
a(dp2214
g5
F114.0
sg6
F0.5
sg7
F113.5
sg8
F1.0
sg9
F113.5
saa(lp2215
V123410
p2216
a(dp2217
g5
F114.0
sg6
F0.5
sg7
F113.5
sg8
F1.0
sg9
F113.5
saa(lp2218
V123415
p2219
a(dp2220
g5
F114.0
sg6
F0.5
sg7
F113.5
sg8
F3.0
sg9
F113.5
saa(lp2221
V123455
p2222
a(dp2223
g5
F114.0
sg6
F0.5
sg7
F113.5
sg8
F1.0
sg9
F113.5
saa(lp2224
V123510
p2225
a(dp2226
g5
F114.0
sg6
F0.5
sg7
F113.5
sg8
F1.0
sg9
F113.5
saa(lp2227
V123515
p2228
a(dp2229
g5
F114.0
sg6
F0.5
sg7
F113.5
sg8
F1.0
sg9
F113.5
saa(lp2230
V123520
p2231
a(dp2232
g5
F114.0
sg6
F0.5
sg7
F113.5
sg8
F1.0
sg9
F113.5
saa(lp2233
V123525
p2234
a(dp2235
g5
F114.0
sg6
F0.5
sg7
F113.5
sg8
F1.0
sg9
F113.5
saa(lp2236
V123606
p2237
a(dp2238
g5
F114.0
sg6
F0.5
sg7
F113.5
sg8
F18.0
sg9
F113.5
saa(lp2239
V123616
p2240
a(dp2241
g5
F114.0
sg6
F0.5
sg7
F113.5
sg8
F1.0
sg9
F113.5
saa(lp2242
V123626
p2243
a(dp2244
g5
F114.0
sg6
F0.5
sg7
F113.5
sg8
F3.0
sg9
F113.5
saa(lp2245
V123636
p2246
a(dp2247
g5
F114.0
sg6
F0.5
sg7
F113.5
sg8
F2.0
sg9
F113.5
saa(lp2248
V123726
p2249
a(dp2250
g5
F113.5
sg6
F0.5
sg7
F113.0
sg8
F1.0
sg9
F113.5
saa(lp2251
V123736
p2252
a(dp2253
g5
F114.0
sg6
F0.5
sg7
F113.5
sg8
F1.0
sg9
F113.5
saa(lp2254
V123801
p2255
a(dp2256
g5
F114.0
sg6
F0.5
sg7
F113.5
sg8
F6.0
sg9
F113.5
saa(lp2257
V124022
p2258
a(dp2259
g5
F113.5
sg6
F0.0
sg7
F113.0
sg8
F1.0
sg9
F113.0
saa(lp2260
V124037
p2261
a(dp2262
g5
F113.5
sg6
F0.0
sg7
F113.0
sg8
F10.0
sg9
F113.0
saa(lp2263
V124047
p2264
a(dp2265
g5
F113.5
sg6
F0.5
sg7
F113.0
sg8
F1.0
sg9
F113.5
saa(lp2266
V124122
p2267
a(dp2268
g5
F113.5
sg6
F0.0
sg7
F113.0
sg8
F7.0
sg9
F113.0
saa(lp2269
V124137
p2270
a(dp2271
g5
F113.5
sg6
F0.5
sg7
F113.0
sg8
F1.0
sg9
F113.5
saa(lp2272
V124147
p2273
a(dp2274
g5
F113.5
sg6
F0.5
sg7
F113.0
sg8
F1.0
sg9
F113.5
saa(lp2275
V124318
p2276
a(dp2277
g5
F113.5
sg6
F0.0
sg7
F113.0
sg8
F1.0
sg9
F113.0
saa(lp2278
V124333
p2279
a(dp2280
g5
F113.5
sg6
F0.5
sg7
F113.0
sg8
F1.0
sg9
F113.5
saa(lp2281
V124338
p2282
a(dp2283
g5
F113.5
sg6
F0.0
sg7
F113.0
sg8
F2.0
sg9
F113.0
saa(lp2284
V124353
p2285
a(dp2286
g5
F113.5
sg6
F0.0
sg7
F113.0
sg8
F1.0
sg9
F113.0
saa(lp2287
V124523
p2288
a(dp2289
g5
F113.5
sg6
F0.0
sg7
F113.0
sg8
F1.0
sg9
F113.0
saa(lp2290
V124548
p2291
a(dp2292
g5
F113.5
sg6
F0.0
sg7
F113.0
sg8
F1.0
sg9
F113.0
saa(lp2293
V124709
p2294
a(dp2295
g5
F113.5
sg6
F0.0
sg7
F113.0
sg8
F1.0
sg9
F113.0
saa(lp2296
V124719
p2297
a(dp2298
g5
F113.5
sg6
F0.0
sg7
F113.0
sg8
F1.0
sg9
F113.0
saa(lp2299
V124729
p2300
a(dp2301
g5
F113.5
sg6
F0.0
sg7
F113.0
sg8
F1.0
sg9
F113.0
saa(lp2302
V124955
p2303
a(dp2304
g5
F113.5
sg6
F0.0
sg7
F113.0
sg8
F1.0
sg9
F113.0
saa(lp2305
V125020
p2306
a(dp2307
g5
F113.5
sg6
F0.0
sg7
F113.0
sg8
F10.0
sg9
F113.0
saa(lp2308
V125030
p2309
a(dp2310
g5
F113.5
sg6
F0.5
sg7
F113.0
sg8
F48.0
sg9
F113.5
saa(lp2311
V125035
p2312
a(dp2313
g5
F114.0
sg6
F0.0
sg7
F113.0
sg8
F18.0
sg9
F113.0
saa(lp2314
V125105
p2315
a(dp2316
g5
F114.0
sg6
F0.5
sg7
F113.0
sg8
F1.0
sg9
F113.5
saa(lp2317
V125125
p2318
a(dp2319
g5
F113.5
sg6
F0.0
sg7
F113.0
sg8
F1.0
sg9
F113.0
saa(lp2320
V125200
p2321
a(dp2322
g5
F113.5
sg6
F0.5
sg7
F113.0
sg8
F1.0
sg9
F113.5
saa(lp2323
V125240
p2324
a(dp2325
g5
F113.5
sg6
F0.5
sg7
F113.0
sg8
F2.0
sg9
F113.5
saa(lp2326
V125300
p2327
a(dp2328
g5
F113.5
sg6
F0.5
sg7
F113.0
sg8
F8.0
sg9
F113.5
saa(lp2329
V125310
p2330
a(dp2331
g5
F113.5
sg6
F0.5
sg7
F113.0
sg8
F5.0
sg9
F113.5
saa(lp2332
V125315
p2333
a(dp2334
g5
F113.5
sg6
F0.5
sg7
F113.0
sg8
F3.0
sg9
F113.5
saa(lp2335
V125451
p2336
a(dp2337
g5
F114.0
sg6
F1.0
sg7
F113.5
sg8
F1.0
sg9
F114.0
saa(lp2338
V125456
p2339
a(dp2340
g5
F114.0
sg6
F0.5
sg7
F113.5
sg8
F10.0
sg9
F113.5
saa(lp2341
V125526
p2342
a(dp2343
g5
F114.0
sg6
F0.5
sg7
F113.5
sg8
F1.0
sg9
F113.5
saa(lp2344
V125536
p2345
a(dp2346
g5
F114.0
sg6
F0.5
sg7
F113.5
sg8
F1.0
sg9
F113.5
saa(lp2347
V125556
p2348
a(dp2349
g5
F114.0
sg6
F0.5
sg7
F113.5
sg8
F1.0
sg9
F113.5
saa(lp2350
V125616
p2351
a(dp2352
g5
F114.0
sg6
F0.5
sg7
F113.5
sg8
F1.0
sg9
F113.5
saa(lp2353
V125641
p2354
a(dp2355
g5
F114.0
sg6
F0.5
sg7
F113.5
sg8
F2.0
sg9
F113.5
saa(lp2356
V125656
p2357
a(dp2358
g5
F114.0
sg6
F0.5
sg7
F113.5
sg8
F1.0
sg9
F113.5
saa(lp2359
V125706
p2360
a(dp2361
g5
F114.0
sg6
F0.5
sg7
F113.5
sg8
F2.0
sg9
F113.5
saa(lp2362
V125732
p2363
a(dp2364
g5
F114.0
sg6
F0.5
sg7
F113.5
sg8
F1.0
sg9
F113.5
saa(lp2365
V125742
p2366
a(dp2367
g5
F114.0
sg6
F0.5
sg7
F113.5
sg8
F19.0
sg9
F113.5
saa(lp2368
V125757
p2369
a(dp2370
g5
F114.0
sg6
F0.5
sg7
F113.5
sg8
F1.0
sg9
F113.5
saa(lp2371
V125802
p2372
a(dp2373
g5
F114.0
sg6
F0.5
sg7
F113.5
sg8
F1.0
sg9
F113.5
saa(lp2374
V125817
p2375
a(dp2376
g5
F114.0
sg6
F0.5
sg7
F113.5
sg8
F20.0
sg9
F113.5
saa(lp2377
V125822
p2378
a(dp2379
g5
F114.0
sg6
F0.5
sg7
F113.5
sg8
F2.0
sg9
F113.5
saa(lp2380
V125827
p2381
a(dp2382
g5
F114.0
sg6
F0.5
sg7
F113.5
sg8
F2.0
sg9
F113.5
saa(lp2383
V125842
p2384
a(dp2385
g5
F114.0
sg6
F0.5
sg7
F113.5
sg8
F2.0
sg9
F113.5
saa(lp2386
V125847
p2387
a(dp2388
g5
F114.0
sg6
F0.5
sg7
F113.5
sg8
F5.0
sg9
F113.5
saa(lp2389
V125857
p2390
a(dp2391
g5
F113.5
sg6
F0.5
sg7
F113.0
sg8
F2.0
sg9
F113.5
saa(lp2392
V125907
p2393
a(dp2394
g5
F113.5
sg6
F0.5
sg7
F113.0
sg8
F2.0
sg9
F113.5
saa(lp2395
V125917
p2396
a(dp2397
g5
F113.5
sg6
F0.5
sg7
F113.0
sg8
F1.0
sg9
F113.5
saa(lp2398
V125922
p2399
a(dp2400
g5
F113.5
sg6
F0.5
sg7
F113.0
sg8
F2.0
sg9
F113.5
saa(lp2401
V125932
p2402
a(dp2403
g5
F113.5
sg6
F0.5
sg7
F113.0
sg8
F10.0
sg9
F113.5
saa(lp2404
V125958
p2405
a(dp2406
g5
F114.0
sg6
F0.5
sg7
F113.5
sg8
F2.0
sg9
F113.5
saa(lp2407
V130038
p2408
a(dp2409
g5
F114.0
sg6
F0.5
sg7
F113.5
sg8
F10.0
sg9
F113.5
saa(lp2410
V130053
p2411
a(dp2412
g5
F114.0
sg6
F0.5
sg7
F113.5
sg8
F2.0
sg9
F113.5
saa(lp2413
V130058
p2414
a(dp2415
g5
F114.0
sg6
F0.5
sg7
F113.5
sg8
F1.0
sg9
F113.5
saa(lp2416
V130103
p2417
a(dp2418
g5
F114.0
sg6
F0.5
sg7
F113.5
sg8
F10.0
sg9
F113.5
saa(lp2419
V130108
p2420
a(dp2421
g5
F114.0
sg6
F0.5
sg7
F113.5
sg8
F1.0
sg9
F113.5
saa(lp2422
V130118
p2423
a(dp2424
g5
F114.0
sg6
F0.5
sg7
F113.5
sg8
F5.0
sg9
F113.5
saa(lp2425
V130208
p2426
a(dp2427
g5
F114.0
sg6
F0.5
sg7
F113.5
sg8
F5.0
sg9
F113.5
saa(lp2428
V130223
p2429
a(dp2430
g5
F114.0
sg6
F0.5
sg7
F113.5
sg8
F1.0
sg9
F113.5
saa(lp2431
V130243
p2432
a(dp2433
g5
F114.0
sg6
F0.5
sg7
F113.5
sg8
F1.0
sg9
F113.5
saa(lp2434
V130248
p2435
a(dp2436
g5
F114.0
sg6
F0.5
sg7
F113.5
sg8
F1.0
sg9
F113.5
saa(lp2437
V130303
p2438
a(dp2439
g5
F114.0
sg6
F0.5
sg7
F113.5
sg8
F6.0
sg9
F113.5
saa(lp2440
V130323
p2441
a(dp2442
g5
F113.5
sg6
F0.5
sg7
F113.0
sg8
F1.0
sg9
F113.5
saa(lp2443
V130338
p2444
a(dp2445
g5
F114.0
sg6
F0.5
sg7
F113.5
sg8
F1.0
sg9
F113.5
saa(lp2446
V130343
p2447
a(dp2448
g5
F114.0
sg6
F0.5
sg7
F113.5
sg8
F2.0
sg9
F113.5
saa(lp2449
V130413
p2450
a(dp2451
g5
F113.5
sg6
F0.5
sg7
F113.0
sg8
F1.0
sg9
F113.5
saa(lp2452
V130439
p2453
a(dp2454
g5
F113.5
sg6
F0.5
sg7
F113.0
sg8
F2.0
sg9
F113.5
saa(lp2455
V130539
p2456
a(dp2457
g5
F113.5
sg6
F0.5
sg7
F113.0
sg8
F2.0
sg9
F113.5
saa(lp2458
V130549
p2459
a(dp2460
g5
F113.5
sg6
F0.5
sg7
F113.0
sg8
F2.0
sg9
F113.5
saa(lp2461
V130554
p2462
a(dp2463
g5
F113.5
sg6
F0.5
sg7
F113.0
sg8
F8.0
sg9
F113.5
saa(lp2464
V130614
p2465
a(dp2466
g5
F114.0
sg6
F0.5
sg7
F113.5
sg8
F2.0
sg9
F113.5
saa(lp2467
V130619
p2468
a(dp2469
g5
F114.0
sg6
F0.5
sg7
F113.5
sg8
F1.0
sg9
F113.5
saa(lp2470
V130629
p2471
a(dp2472
g5
F114.0
sg6
F0.5
sg7
F113.5
sg8
F15.0
sg9
F113.5
saa(lp2473
V130634
p2474
a(dp2475
g5
F114.0
sg6
F0.0
sg7
F113.0
sg8
F3.0
sg9
F113.0
saa(lp2476
V130714
p2477
a(dp2478
g5
F113.5
sg6
F0.0
sg7
F113.0
sg8
F1.0
sg9
F113.0
saa(lp2479
V130744
p2480
a(dp2481
g5
F113.5
sg6
F0.5
sg7
F113.0
sg8
F1.0
sg9
F113.5
saa(lp2482
V130935
p2483
a(dp2484
g5
F113.5
sg6
F0.5
sg7
F113.0
sg8
F1.0
sg9
F113.5
saa(lp2485
V131015
p2486
a(dp2487
g5
F113.5
sg6
F0.0
sg7
F113.0
sg8
F1.0
sg9
F113.0
saa(lp2488
V131030
p2489
a(dp2490
g5
F113.5
sg6
F0.0
sg7
F113.0
sg8
F3.0
sg9
F113.0
saa(lp2491
V131035
p2492
a(dp2493
g5
F113.5
sg6
F0.0
sg7
F113.0
sg8
F1.0
sg9
F113.0
saa(lp2494
V131045
p2495
a(dp2496
g5
F113.5
sg6
F0.0
sg7
F113.0
sg8
F60.0
sg9
F113.0
saa(lp2497
V131050
p2498
a(dp2499
g5
F113.5
sg6
F0.0
sg7
F113.0
sg8
F6.0
sg9
F113.0
saa(lp2500
V131055
p2501
a(dp2502
g5
F113.5
sg6
F0.0
sg7
F113.0
sg8
F2.0
sg9
F113.0
saa(lp2503
V131100
p2504
a(dp2505
g5
F113.5
sg6
F0.0
sg7
F113.0
sg8
F8.0
sg9
F113.0
saa(lp2506
V131105
p2507
a(dp2508
g5
F113.5
sg6
F0.0
sg7
F113.0
sg8
F11.0
sg9
F113.0
saa(lp2509
V131110
p2510
a(dp2511
g5
F113.5
sg6
F0.0
sg7
F113.0
sg8
F5.0
sg9
F113.0
saa(lp2512
V131116
p2513
a(dp2514
g5
F113.5
sg6
F0.0
sg7
F113.0
sg8
F4.0
sg9
F113.0
saa(lp2515
V131126
p2516
a(dp2517
g5
F113.5
sg6
F0.0
sg7
F113.0
sg8
F5.0
sg9
F113.0
saa(lp2518
V131131
p2519
a(dp2520
g5
F113.5
sg6
F0.0
sg7
F113.0
sg8
F12.0
sg9
F113.0
saa(lp2521
V131136
p2522
a(dp2523
g5
F113.5
sg6
F0.0
sg7
F112.5
sg8
F1.0
sg9
F113.0
saa(lp2524
V131141
p2525
a(dp2526
g5
F113.5
sg6
F0.0
sg7
F113.0
sg8
F1.0
sg9
F113.0
saa(lp2527
V131211
p2528
a(dp2529
g5
F113.5
sg6
F0.0
sg7
F113.0
sg8
F2.0
sg9
F113.0
saa(lp2530
V131221
p2531
a(dp2532
g5
F113.5
sg6
F0.0
sg7
F113.0
sg8
F1.0
sg9
F113.0
saa(lp2533
V131226
p2534
a(dp2535
g5
F113.5
sg6
F0.0
sg7
F113.0
sg8
F1.0
sg9
F113.0
saa(lp2536
V131246
p2537
a(dp2538
g5
F113.5
sg6
F0.5
sg7
F112.5
sg8
F1.0
sg9
F113.5
saa(lp2539
V131306
p2540
a(dp2541
g5
F113.0
sg6
F-0.5
sg7
F112.5
sg8
F4.0
sg9
F112.5
saa(lp2542
V131431
p2543
a(dp2544
g5
F113.0
sg6
F-0.5
sg7
F112.5
sg8
F1.0
sg9
F112.5
saa(lp2545
V131441
p2546
a(dp2547
g5
F113.0
sg6
F-0.5
sg7
F112.5
sg8
F1.0
sg9
F112.5
saa(lp2548
V131506
p2549
a(dp2550
g5
F113.0
sg6
F-0.5
sg7
F112.5
sg8
F1.0
sg9
F112.5
saa(lp2551
V131511
p2552
a(dp2553
g5
F113.0
sg6
F-0.5
sg7
F112.5
sg8
F1.0
sg9
F112.5
saa(lp2554
V131516
p2555
a(dp2556
g5
F113.0
sg6
F-0.5
sg7
F112.5
sg8
F1.0
sg9
F112.5
saa(lp2557
V131521
p2558
a(dp2559
g5
F113.0
sg6
F0.0
sg7
F112.5
sg8
F1.0
sg9
F113.0
saa(lp2560
V131531
p2561
a(dp2562
g5
F113.0
sg6
F0.0
sg7
F112.5
sg8
F1.0
sg9
F113.0
saa(lp2563
V131541
p2564
a(dp2565
g5
F113.0
sg6
F0.0
sg7
F112.5
sg8
F5.0
sg9
F113.0
saa(lp2566
V131552
p2567
a(dp2568
g5
F113.0
sg6
F0.0
sg7
F112.5
sg8
F1.0
sg9
F113.0
saa(lp2569
V131557
p2570
a(dp2571
g5
F113.0
sg6
F0.0
sg7
F112.5
sg8
F1.0
sg9
F113.0
saa(lp2572
V131602
p2573
a(dp2574
g5
F113.0
sg6
F0.0
sg7
F112.5
sg8
F2.0
sg9
F113.0
saa(lp2575
V131612
p2576
a(dp2577
g5
F113.0
sg6
F0.0
sg7
F112.5
sg8
F2.0
sg9
F113.0
saa(lp2578
V131617
p2579
a(dp2580
g5
F113.0
sg6
F0.0
sg7
F112.5
sg8
F3.0
sg9
F113.0
saa(lp2581
V131622
p2582
a(dp2583
g5
F113.0
sg6
F0.0
sg7
F112.5
sg8
F5.0
sg9
F113.0
saa(lp2584
V131627
p2585
a(dp2586
g5
F113.0
sg6
F0.0
sg7
F112.5
sg8
F1.0
sg9
F113.0
saa(lp2587
V131632
p2588
a(dp2589
g5
F113.0
sg6
F0.0
sg7
F112.5
sg8
F1.0
sg9
F113.0
saa(lp2590
V131637
p2591
a(dp2592
g5
F113.0
sg6
F0.0
sg7
F112.5
sg8
F5.0
sg9
F113.0
saa(lp2593
V131642
p2594
a(dp2595
g5
F113.5
sg6
F0.0
sg7
F113.0
sg8
F2.0
sg9
F113.0
saa(lp2596
V131652
p2597
a(dp2598
g5
F113.5
sg6
F0.0
sg7
F113.0
sg8
F1.0
sg9
F113.0
saa(lp2599
V131707
p2600
a(dp2601
g5
F113.0
sg6
F0.0
sg7
F112.5
sg8
F1.0
sg9
F113.0
saa(lp2602
V131722
p2603
a(dp2604
g5
F113.0
sg6
F0.0
sg7
F112.5
sg8
F1.0
sg9
F113.0
saa(lp2605
V131732
p2606
a(dp2607
g5
F113.0
sg6
F0.0
sg7
F112.5
sg8
F1.0
sg9
F113.0
saa(lp2608
V131742
p2609
a(dp2610
g5
F113.0
sg6
F0.0
sg7
F112.5
sg8
F1.0
sg9
F113.0
saa(lp2611
V131807
p2612
a(dp2613
g5
F113.0
sg6
F0.0
sg7
F112.5
sg8
F2.0
sg9
F113.0
saa(lp2614
V131812
p2615
a(dp2616
g5
F113.0
sg6
F0.0
sg7
F112.5
sg8
F4.0
sg9
F113.0
saa(lp2617
V131817
p2618
a(dp2619
g5
F113.0
sg6
F0.0
sg7
F112.5
sg8
F2.0
sg9
F113.0
saa(lp2620
V131822
p2621
a(dp2622
g5
F113.5
sg6
F-0.5
sg7
F113.0
sg8
F3.0
sg9
F112.5
saa(lp2623
V131923
p2624
a(dp2625
g5
F113.0
sg6
F0.0
sg7
F112.5
sg8
F1.0
sg9
F113.0
saa(lp2626
V131953
p2627
a(dp2628
g5
F113.0
sg6
F0.0
sg7
F112.5
sg8
F1.0
sg9
F113.0
saa(lp2629
V131958
p2630
a(dp2631
g5
F113.0
sg6
F0.0
sg7
F112.5
sg8
F1.0
sg9
F113.0
saa(lp2632
V132003
p2633
a(dp2634
g5
F113.0
sg6
F0.0
sg7
F112.5
sg8
F8.0
sg9
F113.0
saa(lp2635
V132008
p2636
a(dp2637
g5
F113.0
sg6
F0.0
sg7
F112.5
sg8
F3.0
sg9
F113.0
saa(lp2638
V132018
p2639
a(dp2640
g5
F113.5
sg6
F0.0
sg7
F113.0
sg8
F1.0
sg9
F113.0
saa(lp2641
V132028
p2642
a(dp2643
g5
F113.5
sg6
F0.0
sg7
F113.0
sg8
F8.0
sg9
F113.0
saa(lp2644
V132033
p2645
a(dp2646
g5
F113.5
sg6
F0.0
sg7
F113.0
sg8
F1.0
sg9
F113.0
saa(lp2647
V132038
p2648
a(dp2649
g5
F113.0
sg6
F0.0
sg7
F112.5
sg8
F1.0
sg9
F113.0
saa(lp2650
V132048
p2651
a(dp2652
g5
F113.0
sg6
F-0.5
sg7
F112.5
sg8
F1.0
sg9
F112.5
saa(lp2653
V132053
p2654
a(dp2655
g5
F113.0
sg6
F-0.5
sg7
F112.5
sg8
F1.0
sg9
F112.5
saa(lp2656
V132118
p2657
a(dp2658
g5
F113.0
sg6
F0.0
sg7
F112.5
sg8
F1.0
sg9
F113.0
saa(lp2659
V132128
p2660
a(dp2661
g5
F113.0
sg6
F0.0
sg7
F112.5
sg8
F1.0
sg9
F113.0
saa(lp2662
V132133
p2663
a(dp2664
g5
F113.0
sg6
F-0.5
sg7
F112.5
sg8
F2.0
sg9
F112.5
saa(lp2665
V132138
p2666
a(dp2667
g5
F113.0
sg6
F-0.5
sg7
F112.5
sg8
F1.0
sg9
F112.5
saa(lp2668
V132153
p2669
a(dp2670
g5
F113.0
sg6
F-0.5
sg7
F112.5
sg8
F1.0
sg9
F112.5
saa(lp2671
V132213
p2672
a(dp2673
g5
F113.0
sg6
F-0.5
sg7
F112.5
sg8
F1.0
sg9
F112.5
saa(lp2674
V132223
p2675
a(dp2676
g5
F113.0
sg6
F-0.5
sg7
F112.5
sg8
F9.0
sg9
F112.5
saa(lp2677
V132229
p2678
a(dp2679
g5
F113.0
sg6
F-0.5
sg7
F112.5
sg8
F3.0
sg9
F112.5
saa(lp2680
V132239
p2681
a(dp2682
g5
F113.0
sg6
F0.0
sg7
F112.5
sg8
F5.0
sg9
F113.0
saa(lp2683
V132324
p2684
a(dp2685
g5
F113.0
sg6
F0.0
sg7
F112.5
sg8
F2.0
sg9
F113.0
saa(lp2686
V132329
p2687
a(dp2688
g5
F113.0
sg6
F0.0
sg7
F112.5
sg8
F1.0
sg9
F113.0
saa(lp2689
V132344
p2690
a(dp2691
g5
F113.0
sg6
F0.0
sg7
F112.5
sg8
F2.0
sg9
F113.0
saa(lp2692
V132409
p2693
a(dp2694
g5
F113.0
sg6
F0.0
sg7
F112.5
sg8
F2.0
sg9
F113.0
saa(lp2695
V132414
p2696
a(dp2697
g5
F113.0
sg6
F-0.5
sg7
F112.5
sg8
F1.0
sg9
F112.5
saa(lp2698
V132419
p2699
a(dp2700
g5
F113.0
sg6
F0.0
sg7
F112.5
sg8
F1.0
sg9
F113.0
saa(lp2701
V132424
p2702
a(dp2703
g5
F113.0
sg6
F0.0
sg7
F112.5
sg8
F1.0
sg9
F113.0
saa(lp2704
V132429
p2705
a(dp2706
g5
F113.0
sg6
F0.0
sg7
F112.5
sg8
F1.0
sg9
F113.0
saa(lp2707
V132434
p2708
a(dp2709
g5
F113.0
sg6
F0.0
sg7
F112.5
sg8
F1.0
sg9
F113.0
saa(lp2710
V132439
p2711
a(dp2712
g5
F113.0
sg6
F0.0
sg7
F112.5
sg8
F3.0
sg9
F113.0
saa(lp2713
V132444
p2714
a(dp2715
g5
F113.0
sg6
F-0.5
sg7
F112.5
sg8
F1.0
sg9
F112.5
saa(lp2716
V132449
p2717
a(dp2718
g5
F113.0
sg6
F-0.5
sg7
F112.5
sg8
F3.0
sg9
F112.5
saa(lp2719
V133000
p2720
a(dp2721
g5
F113.0
sg6
F-0.5
sg7
F112.5
sg8
F265.0
sg9
F112.5
saa(lp2722
V143000
p2723
a(dp2724
g5
F113.0
sg6
F-0.5
sg7
F112.5
sg8
F7.0
sg9
F112.5
saatp2725
Rp2726
.