ccollections
OrderedDict
p0
((lp1
(lp2
V090239
p3
a(dp4
S'sell'
p5
F460.0
sS'diff'
p6
F0.5
sS'buy'
p7
F453.5
sS'count'
p8
F1.0
sS'deal'
p9
F460.0
saa(lp10
V090254
p11
a(dp12
g5
F460.0
sg6
F1.5
sg7
F455.0
sg8
F1.0
sg9
F461.0
saa(lp13
V090259
p14
a(dp15
g5
F461.5
sg6
F2.0
sg7
F455.0
sg8
F1.0
sg9
F461.5
saa(lp16
V090334
p17
a(dp18
g5
F461.0
sg6
F1.5
sg7
F455.0
sg8
F1.0
sg9
F461.0
saa(lp19
V090354
p20
a(dp21
g5
F461.0
sg6
F1.5
sg7
F456.5
sg8
F1.0
sg9
F461.0
saa(lp22
V090359
p23
a(dp24
g5
F461.0
sg6
F-3.0
sg7
F456.5
sg8
F1.0
sg9
F456.5
saa(lp25
V090404
p26
a(dp27
g5
F461.0
sg6
F1.5
sg7
F455.0
sg8
F1.0
sg9
F461.0
saa(lp28
V090725
p29
a(dp30
g5
F460.5
sg6
F-2.5
sg7
F457.0
sg8
F1.0
sg9
F457.0
saa(lp31
V090745
p32
a(dp33
g5
F460.5
sg6
F-4.0
sg7
F455.5
sg8
F1.0
sg9
F455.5
saa(lp34
V090845
p35
a(dp36
g5
F460.0
sg6
F-4.5
sg7
F455.0
sg8
F1.0
sg9
F455.0
saa(lp37
V090916
p38
a(dp39
g5
F459.0
sg6
F-4.0
sg7
F455.5
sg8
F1.0
sg9
F455.5
saa(lp40
V090926
p41
a(dp42
g5
F455.5
sg6
F-4.5
sg7
F455.0
sg8
F1.0
sg9
F455.0
saa(lp43
V090931
p44
a(dp45
g5
F455.5
sg6
F-4.5
sg7
F455.0
sg8
F1.0
sg9
F455.0
saa(lp46
V090941
p47
a(dp48
g5
F455.5
sg6
F-6.0
sg7
F453.5
sg8
F1.0
sg9
F453.5
saa(lp49
V091011
p50
a(dp51
g5
F455.5
sg6
F-6.5
sg7
F453.0
sg8
F1.0
sg9
F453.0
saa(lp52
V091021
p53
a(dp54
g5
F455.5
sg6
F-6.5
sg7
F453.0
sg8
F1.0
sg9
F453.0
saa(lp55
V091231
p56
a(dp57
g5
F455.5
sg6
F-4.0
sg7
F455.0
sg8
F2.0
sg9
F455.5
saa(lp58
V091247
p59
a(dp60
g5
F458.0
sg6
F-1.5
sg7
F456.0
sg8
F1.0
sg9
F458.0
saa(lp61
V091347
p62
a(dp63
g5
F459.5
sg6
F-1.5
sg7
F458.0
sg8
F1.0
sg9
F458.0
saa(lp64
V091407
p65
a(dp66
g5
F459.5
sg6
F-1.5
sg7
F458.0
sg8
F2.0
sg9
F458.0
saa(lp67
V091412
p68
a(dp69
g5
F458.0
sg6
F-3.5
sg7
F456.0
sg8
F1.0
sg9
F456.0
saa(lp70
V091508
p71
a(dp72
g5
F457.0
sg6
F-3.5
sg7
F456.0
sg8
F1.0
sg9
F456.0
saa(lp73
V091528
p74
a(dp75
g5
F457.0
sg6
F-2.5
sg7
F455.0
sg8
F1.0
sg9
F457.0
saa(lp76
V091543
p77
a(dp78
g5
F457.0
sg6
F-2.5
sg7
F456.0
sg8
F1.0
sg9
F457.0
saa(lp79
V091638
p80
a(dp81
g5
F460.0
sg6
F0.0
sg7
F459.5
sg8
F1.0
sg9
F459.5
saa(lp82
V092104
p83
a(dp84
g5
F459.0
sg6
F-2.5
sg7
F457.0
sg8
F1.0
sg9
F457.0
saa(lp85
V092159
p86
a(dp87
g5
F458.5
sg6
F-4.5
sg7
F455.0
sg8
F4.0
sg9
F455.0
saa(lp88
V092209
p89
a(dp90
g5
F458.5
sg6
F-4.5
sg7
F455.0
sg8
F2.0
sg9
F455.0
saa(lp91
V092219
p92
a(dp93
g5
F455.0
sg6
F-6.0
sg7
F453.5
sg8
F1.0
sg9
F453.5
saa(lp94
V092309
p95
a(dp96
g5
F457.5
sg6
F-6.0
sg7
F453.5
sg8
F1.0
sg9
F453.5
saa(lp97
V092616
p98
a(dp99
g5
F455.0
sg6
F-6.0
sg7
F453.5
sg8
F1.0
sg9
F453.5
saa(lp100
V092626
p101
a(dp102
g5
F455.0
sg6
F-4.5
sg7
F453.5
sg8
F2.0
sg9
F455.0
saa(lp103
V092706
p104
a(dp105
g5
F457.5
sg6
F-4.5
sg7
F455.0
sg8
F1.0
sg9
F455.0
saa(lp106
V093127
p107
a(dp108
g5
F457.5
sg6
F-2.0
sg7
F455.0
sg8
F1.0
sg9
F457.5
saa(lp109
V093132
p110
a(dp111
g5
F457.5
sg6
F-4.5
sg7
F455.0
sg8
F1.0
sg9
F455.0
saa(lp112
V093939
p113
a(dp114
g5
F457.5
sg6
F-3.5
sg7
F456.0
sg8
F1.0
sg9
F456.0
saa(lp115
V094029
p116
a(dp117
g5
F457.5
sg6
F-2.0
sg7
F456.0
sg8
F1.0
sg9
F457.5
saa(lp118
V094651
p119
a(dp120
g5
F458.5
sg6
F-3.0
sg7
F456.5
sg8
F1.0
sg9
F456.5
saa(lp121
V095002
p122
a(dp123
g5
F456.5
sg6
F-3.5
sg7
F456.0
sg8
F1.0
sg9
F456.0
saa(lp124
V095147
p125
a(dp126
g5
F456.5
sg6
F-3.0
sg7
F455.5
sg8
F1.0
sg9
F456.5
saa(lp127
V100225
p128
a(dp129
g5
F458.0
sg6
F-4.0
sg7
F455.5
sg8
F1.0
sg9
F455.5
saa(lp130
V100717
p131
a(dp132
g5
F456.5
sg6
F-3.0
sg7
F455.0
sg8
F1.0
sg9
F456.5
saa(lp133
V102025
p134
a(dp135
g5
F456.5
sg6
F-4.0
sg7
F455.5
sg8
F1.0
sg9
F455.5
saa(lp136
V102141
p137
a(dp138
g5
F456.5
sg6
F-4.5
sg7
F455.0
sg8
F1.0
sg9
F455.0
saa(lp139
V102251
p140
a(dp141
g5
F456.5
sg6
F-3.0
sg7
F456.0
sg8
F1.0
sg9
F456.5
saa(lp142
V102442
p143
a(dp144
g5
F457.0
sg6
F-2.5
sg7
F455.0
sg8
F1.0
sg9
F457.0
saa(lp145
V104533
p146
a(dp147
g5
F458.5
sg6
F-2.5
sg7
F457.0
sg8
F1.0
sg9
F457.0
saa(lp148
V104648
p149
a(dp150
g5
F457.0
sg6
F-2.5
sg7
F455.5
sg8
F1.0
sg9
F457.0
saa(lp151
V110849
p152
a(dp153
g5
F456.0
sg6
F-4.0
sg7
F455.5
sg8
F2.0
sg9
F455.5
saa(lp154
V110854
p155
a(dp156
g5
F456.0
sg6
F-3.5
sg7
F455.0
sg8
F1.0
sg9
F456.0
saa(lp157
V111255
p158
a(dp159
g5
F455.5
sg6
F-4.5
sg7
F455.0
sg8
F2.0
sg9
F455.0
saa(lp160
V111300
p161
a(dp162
g5
F455.5
sg6
F-4.0
sg7
F455.0
sg8
F1.0
sg9
F455.5
saa(lp163
V111350
p164
a(dp165
g5
F455.5
sg6
F-4.5
sg7
F455.0
sg8
F1.0
sg9
F455.0
saa(lp166
V111355
p167
a(dp168
g5
F455.5
sg6
F-4.5
sg7
F455.0
sg8
F1.0
sg9
F455.0
saa(lp169
V111400
p170
a(dp171
g5
F455.5
sg6
F-4.5
sg7
F455.0
sg8
F1.0
sg9
F455.0
saa(lp172
V111405
p173
a(dp174
g5
F455.5
sg6
F-5.0
sg7
F454.5
sg8
F4.0
sg9
F454.5
saa(lp175
V111410
p176
a(dp177
g5
F455.0
sg6
F-5.0
sg7
F454.5
sg8
F1.0
sg9
F454.5
saa(lp178
V111415
p179
a(dp180
g5
F455.0
sg6
F-5.0
sg7
F454.5
sg8
F1.0
sg9
F454.5
saa(lp181
V111425
p182
a(dp183
g5
F455.0
sg6
F-6.0
sg7
F453.5
sg8
F1.0
sg9
F453.5
saa(lp184
V111446
p185
a(dp186
g5
F454.5
sg6
F-6.0
sg7
F453.5
sg8
F2.0
sg9
F453.5
saa(lp187
V111501
p188
a(dp189
g5
F454.5
sg6
F-6.5
sg7
F453.0
sg8
F3.0
sg9
F453.0
saa(lp190
V111902
p191
a(dp192
g5
F454.0
sg6
F-5.5
sg7
F453.0
sg8
F3.0
sg9
F454.0
saa(lp193
V111917
p194
a(dp195
g5
F454.5
sg6
F-5.0
sg7
F453.5
sg8
F1.0
sg9
F454.5
saa(lp196
V112454
p197
a(dp198
g5
F455.0
sg6
F-4.5
sg7
F453.5
sg8
F1.0
sg9
F455.0
saa(lp199
V112900
p200
a(dp201
g5
F455.0
sg6
F-6.0
sg7
F453.5
sg8
F1.0
sg9
F453.5
saa(lp202
V113000
p203
a(dp204
g5
F455.0
sg6
F-6.5
sg7
F453.0
sg8
F5.0
sg9
F453.0
saa(lp205
V113010
p206
a(dp207
g5
F455.0
sg6
F-6.5
sg7
F453.0
sg8
F1.0
sg9
F453.0
saa(lp208
V113020
p209
a(dp210
g5
F455.0
sg6
F-7.0
sg7
F452.5
sg8
F3.0
sg9
F452.5
saa(lp211
V113100
p212
a(dp213
g5
F455.0
sg6
F-7.0
sg7
F452.5
sg8
F2.0
sg9
F452.5
saa(lp214
V113115
p215
a(dp216
g5
F455.0
sg6
F-7.0
sg7
F452.5
sg8
F1.0
sg9
F452.5
saa(lp217
V113155
p218
a(dp219
g5
F455.0
sg6
F-7.0
sg7
F452.5
sg8
F1.0
sg9
F452.5
saa(lp220
V113351
p221
a(dp222
g5
F452.5
sg6
F-7.5
sg7
F452.0
sg8
F1.0
sg9
F452.0
saa(lp223
V113406
p224
a(dp225
g5
F452.5
sg6
F-7.5
sg7
F452.0
sg8
F1.0
sg9
F452.0
saa(lp226
V113652
p227
a(dp228
g5
F452.5
sg6
F-7.5
sg7
F452.0
sg8
F1.0
sg9
F452.0
saa(lp229
V113737
p230
a(dp231
g5
F452.5
sg6
F-7.0
sg7
F452.0
sg8
F1.0
sg9
F452.5
saa(lp232
V113742
p233
a(dp234
g5
F452.5
sg6
F-7.5
sg7
F452.0
sg8
F1.0
sg9
F452.0
saa(lp235
V113802
p236
a(dp237
g5
F452.0
sg6
F-8.0
sg7
F451.5
sg8
F1.0
sg9
F451.5
saa(lp238
V113807
p239
a(dp240
g5
F452.0
sg6
F-8.0
sg7
F451.5
sg8
F2.0
sg9
F451.5
saa(lp241
V113827
p242
a(dp243
g5
F451.5
sg6
F-9.5
sg7
F451.0
sg8
F3.0
sg9
F450.0
saa(lp244
V113832
p245
a(dp246
g5
F451.5
sg6
F-9.5
sg7
F450.0
sg8
F2.0
sg9
F450.0
saa(lp247
V113933
p248
a(dp249
g5
F451.0
sg6
F-11.5
sg7
F448.5
sg8
F2.0
sg9
F448.0
saa(lp250
V114008
p251
a(dp252
g5
F451.0
sg6
F-11.5
sg7
F448.0
sg8
F1.0
sg9
F448.0
saa(lp253
V114018
p254
a(dp255
g5
F450.0
sg6
F-12.0
sg7
F447.5
sg8
F1.0
sg9
F447.5
saa(lp256
V114133
p257
a(dp258
g5
F450.0
sg6
F-11.5
sg7
F448.0
sg8
F1.0
sg9
F448.0
saa(lp259
V114339
p260
a(dp261
g5
F450.0
sg6
F-9.5
sg7
F448.0
sg8
F4.0
sg9
F450.0
saa(lp262
V114354
p263
a(dp264
g5
F451.0
sg6
F-8.5
sg7
F450.5
sg8
F1.0
sg9
F451.0
saa(lp265
V114359
p266
a(dp267
g5
F451.0
sg6
F-8.5
sg7
F450.5
sg8
F1.0
sg9
F451.0
saa(lp268
V114414
p269
a(dp270
g5
F454.5
sg6
F-5.0
sg7
F451.0
sg8
F2.0
sg9
F454.5
saa(lp271
V114434
p272
a(dp273
g5
F455.0
sg6
F-4.5
sg7
F451.0
sg8
F1.0
sg9
F455.0
saa(lp274
V114504
p275
a(dp276
g5
F454.0
sg6
F-5.5
sg7
F451.0
sg8
F1.0
sg9
F454.0
saa(lp277
V115643
p278
a(dp279
g5
F453.5
sg6
F-8.5
sg7
F451.0
sg8
F1.0
sg9
F451.0
saa(lp280
V120124
p281
a(dp282
g5
F451.0
sg6
F-8.5
sg7
F450.5
sg8
F1.0
sg9
F451.0
saa(lp283
V120134
p284
a(dp285
g5
F451.0
sg6
F-8.5
sg7
F450.5
sg8
F1.0
sg9
F451.0
saa(lp286
V120455
p287
a(dp288
g5
F451.5
sg6
F-8.5
sg7
F451.0
sg8
F1.0
sg9
F451.0
saa(lp289
V120625
p290
a(dp291
g5
F451.5
sg6
F-8.0
sg7
F450.0
sg8
F1.0
sg9
F451.5
saa(lp292
V121041
p293
a(dp294
g5
F451.5
sg6
F-9.0
sg7
F450.5
sg8
F1.0
sg9
F450.5
saa(lp295
V121141
p296
a(dp297
g5
F451.5
sg6
F-9.0
sg7
F450.5
sg8
F1.0
sg9
F450.5
saa(lp298
V122656
p299
a(dp300
g5
F450.5
sg6
F-9.5
sg7
F450.0
sg8
F1.0
sg9
F450.0
saa(lp301
V122706
p302
a(dp303
g5
F450.5
sg6
F-9.5
sg7
F450.0
sg8
F1.0
sg9
F450.0
saa(lp304
V122711
p305
a(dp306
g5
F450.5
sg6
F-9.5
sg7
F450.0
sg8
F1.0
sg9
F450.0
saa(lp307
V122716
p308
a(dp309
g5
F450.5
sg6
F-9.5
sg7
F450.0
sg8
F4.0
sg9
F450.0
saa(lp310
V122721
p311
a(dp312
g5
F450.5
sg6
F-10.5
sg7
F449.0
sg8
F1.0
sg9
F449.0
saa(lp313
V122841
p314
a(dp315
g5
F448.5
sg6
F-12.0
sg7
F447.5
sg8
F1.0
sg9
F447.5
saa(lp316
V123016
p317
a(dp318
g5
F448.0
sg6
F-11.5
sg7
F447.5
sg8
F1.0
sg9
F448.0
saa(lp319
V123021
p320
a(dp321
g5
F448.5
sg6
F-12.0
sg7
F447.5
sg8
F1.0
sg9
F447.5
saa(lp322
V123202
p323
a(dp324
g5
F448.0
sg6
F-11.5
sg7
F446.0
sg8
F2.0
sg9
F448.0
saa(lp325
V123222
p326
a(dp327
g5
F448.5
sg6
F-11.0
sg7
F448.0
sg8
F1.0
sg9
F448.5
saa(lp328
V123252
p329
a(dp330
g5
F448.5
sg6
F-11.0
sg7
F448.0
sg8
F1.0
sg9
F448.5
saa(lp331
V123257
p332
a(dp333
g5
F449.0
sg6
F-10.5
sg7
F448.0
sg8
F1.0
sg9
F449.0
saa(lp334
V123327
p335
a(dp336
g5
F451.0
sg6
F-10.5
sg7
F448.5
sg8
F1.0
sg9
F449.0
saa(lp337
V123518
p338
a(dp339
g5
F448.5
sg6
F-13.0
sg7
F446.5
sg8
F1.0
sg9
F446.5
saa(lp340
V123558
p341
a(dp342
g5
F446.5
sg6
F-13.5
sg7
F446.0
sg8
F1.0
sg9
F446.0
saa(lp343
V123613
p344
a(dp345
g5
F446.5
sg6
F-13.5
sg7
F446.0
sg8
F1.0
sg9
F446.0
saa(lp346
V123623
p347
a(dp348
g5
F446.5
sg6
F-13.5
sg7
F446.0
sg8
F2.0
sg9
F446.0
saa(lp349
V123638
p350
a(dp351
g5
F446.5
sg6
F-14.5
sg7
F445.5
sg8
F4.0
sg9
F445.0
saa(lp352
V123643
p353
a(dp354
g5
F446.0
sg6
F-14.5
sg7
F445.0
sg8
F1.0
sg9
F445.0
saa(lp355
V123704
p356
a(dp357
g5
F446.0
sg6
F-14.5
sg7
F445.0
sg8
F5.0
sg9
F445.0
saa(lp358
V123824
p359
a(dp360
g5
F445.0
sg6
F-14.5
sg7
F442.5
sg8
F1.0
sg9
F445.0
saa(lp361
V123914
p362
a(dp363
g5
F445.0
sg6
F-14.5
sg7
F442.5
sg8
F1.0
sg9
F445.0
saa(lp364
V123934
p365
a(dp366
g5
F445.0
sg6
F-14.5
sg7
F442.5
sg8
F1.0
sg9
F445.0
saa(lp367
V124024
p368
a(dp369
g5
F445.0
sg6
F-16.5
sg7
F443.0
sg8
F2.0
sg9
F443.0
saa(lp370
V124039
p371
a(dp372
g5
F443.0
sg6
F-16.5
sg7
F442.5
sg8
F1.0
sg9
F443.0
saa(lp373
V124044
p374
a(dp375
g5
F443.0
sg6
F-16.5
sg7
F442.5
sg8
F2.0
sg9
F443.0
saa(lp376
V124420
p377
a(dp378
g5
F445.5
sg6
F-14.5
sg7
F445.0
sg8
F1.0
sg9
F445.0
saa(lp379
V124611
p380
a(dp381
g5
F445.5
sg6
F-14.0
sg7
F445.0
sg8
F1.0
sg9
F445.5
saa(lp382
V124626
p383
a(dp384
g5
F445.5
sg6
F-14.0
sg7
F445.0
sg8
F2.0
sg9
F445.5
saa(lp385
V124701
p386
a(dp387
g5
F446.0
sg6
F-13.5
sg7
F445.5
sg8
F1.0
sg9
F446.0
saa(lp388
V124706
p389
a(dp390
g5
F446.0
sg6
F-13.0
sg7
F445.5
sg8
F4.0
sg9
F446.5
saa(lp391
V124726
p392
a(dp393
g5
F446.5
sg6
F-13.0
sg7
F445.5
sg8
F1.0
sg9
F446.5
saa(lp394
V124731
p395
a(dp396
g5
F446.5
sg6
F-13.0
sg7
F445.5
sg8
F1.0
sg9
F446.5
saa(lp397
V124736
p398
a(dp399
g5
F446.5
sg6
F-13.0
sg7
F445.5
sg8
F1.0
sg9
F446.5
saa(lp400
V124741
p401
a(dp402
g5
F446.5
sg6
F-13.0
sg7
F445.5
sg8
F1.0
sg9
F446.5
saa(lp403
V124857
p404
a(dp405
g5
F448.5
sg6
F-13.0
sg7
F446.5
sg8
F1.0
sg9
F446.5
saa(lp406
V125444
p407
a(dp408
g5
F448.5
sg6
F-13.0
sg7
F446.5
sg8
F2.0
sg9
F446.5
saa(lp409
V125539
p410
a(dp411
g5
F448.5
sg6
F-13.0
sg7
F446.5
sg8
F2.0
sg9
F446.5
saa(lp412
V130015
p413
a(dp414
g5
F446.5
sg6
F-13.5
sg7
F446.0
sg8
F1.0
sg9
F446.0
saa(lp415
V130225
p416
a(dp417
g5
F446.5
sg6
F-14.5
sg7
F445.0
sg8
F1.0
sg9
F445.0
saa(lp418
V130502
p419
a(dp420
g5
F446.5
sg6
F-14.5
sg7
F445.0
sg8
F1.0
sg9
F445.0
saa(lp421
V130637
p422
a(dp423
g5
F446.5
sg6
F-14.5
sg7
F445.0
sg8
F1.0
sg9
F445.0
saa(lp424
V130752
p425
a(dp426
g5
F445.5
sg6
F-14.5
sg7
F445.0
sg8
F1.0
sg9
F445.0
saa(lp427
V130812
p428
a(dp429
g5
F445.5
sg6
F-14.5
sg7
F445.0
sg8
F5.0
sg9
F445.0
saa(lp430
V130827
p431
a(dp432
g5
F445.5
sg6
F-14.5
sg7
F445.0
sg8
F2.0
sg9
F445.0
saa(lp433
V130902
p434
a(dp435
g5
F444.5
sg6
F-15.5
sg7
F444.0
sg8
F1.0
sg9
F444.0
saa(lp436
V130958
p437
a(dp438
g5
F444.5
sg6
F-15.5
sg7
F444.0
sg8
F1.0
sg9
F444.0
saa(lp439
V131003
p440
a(dp441
g5
F444.5
sg6
F-14.5
sg7
F443.5
sg8
F3.0
sg9
F445.0
saa(lp442
V131008
p443
a(dp444
g5
F445.5
sg6
F-14.5
sg7
F445.0
sg8
F1.0
sg9
F445.0
saa(lp445
V131108
p446
a(dp447
g5
F445.0
sg6
F-14.5
sg7
F443.5
sg8
F2.0
sg9
F445.0
saa(lp448
V131133
p449
a(dp450
g5
F445.5
sg6
F-14.0
sg7
F445.0
sg8
F4.0
sg9
F445.5
saa(lp451
V131223
p452
a(dp453
g5
F446.0
sg6
F-13.5
sg7
F445.5
sg8
F1.0
sg9
F446.0
saa(lp454
V131228
p455
a(dp456
g5
F446.0
sg6
F-13.5
sg7
F445.5
sg8
F1.0
sg9
F446.0
saa(lp457
V131349
p458
a(dp459
g5
F446.0
sg6
F-13.5
sg7
F445.5
sg8
F1.0
sg9
F446.0
saa(lp460
V131414
p461
a(dp462
g5
F446.0
sg6
F-13.5
sg7
F445.5
sg8
F2.0
sg9
F446.0
saa(lp463
V131439
p464
a(dp465
g5
F446.5
sg6
F-13.0
sg7
F445.5
sg8
F1.0
sg9
F446.5
saa(lp466
V131514
p467
a(dp468
g5
F447.0
sg6
F-12.5
sg7
F445.5
sg8
F2.0
sg9
F447.0
saa(lp469
V132051
p470
a(dp471
g5
F448.5
sg6
F-11.0
sg7
F447.0
sg8
F1.0
sg9
F448.5
saa(lp472
V132156
p473
a(dp474
g5
F449.5
sg6
F-11.0
sg7
F448.5
sg8
F1.0
sg9
F448.5
saa(lp475
V132311
p476
a(dp477
g5
F449.5
sg6
F-10.0
sg7
F449.0
sg8
F1.0
sg9
F449.5
saa(lp478
V132351
p479
a(dp480
g5
F450.0
sg6
F-9.5
sg7
F448.0
sg8
F1.0
sg9
F450.0
saa(lp481
V132411
p482
a(dp483
g5
F450.0
sg6
F-9.5
sg7
F448.5
sg8
F1.0
sg9
F450.0
saa(lp484
V132437
p485
a(dp486
g5
F450.5
sg6
F-9.0
sg7
F448.5
sg8
F1.0
sg9
F450.5
saa(lp487
V133000
p488
a(dp489
g5
F453.5
sg6
F-6.0
sg7
F451.0
sg8
F21.0
sg9
F453.5
saatp490
Rp491
.