ccollections
OrderedDict
p0
((lp1
(lp2
V090047
p3
a(dp4
S'sell'
p5
F362.5
sS'diff'
p6
F4.5
sS'buy'
p7
F361.0
sS'count'
p8
F3.0
sS'deal'
p9
F362.5
saa(lp10
V090102
p11
a(dp12
g5
F363.0
sg6
F3.5
sg7
F361.5
sg8
F1.0
sg9
F361.5
saa(lp13
V090157
p14
a(dp15
g5
F363.0
sg6
F1.0
sg7
F360.5
sg8
F2.0
sg9
F359.0
saa(lp16
V091125
p17
a(dp18
g5
F361.0
sg6
F3.0
sg7
F359.5
sg8
F1.0
sg9
F361.0
saa(lp19
V091145
p20
a(dp21
g5
F361.5
sg6
F3.0
sg7
F361.0
sg8
F1.0
sg9
F361.0
saa(lp22
V091852
p23
a(dp24
g5
F360.5
sg6
F2.5
sg7
F359.5
sg8
F1.0
sg9
F360.5
saa(lp25
V091857
p26
a(dp27
g5
F361.0
sg6
F1.0
sg7
F359.0
sg8
F1.0
sg9
F359.0
saa(lp28
V091902
p29
a(dp30
g5
F361.0
sg6
F1.0
sg7
F359.0
sg8
F4.0
sg9
F359.0
saa(lp31
V092028
p32
a(dp33
g5
F360.5
sg6
F1.0
sg7
F359.0
sg8
F1.0
sg9
F359.0
saa(lp34
V092033
p35
a(dp36
g5
F360.5
sg6
F2.5
sg7
F359.0
sg8
F1.0
sg9
F360.5
saa(lp37
V093100
p38
a(dp39
g5
F360.5
sg6
F1.0
sg7
F359.0
sg8
F1.0
sg9
F359.0
saa(lp40
V093958
p41
a(dp42
g5
F360.0
sg6
F2.0
sg7
F359.5
sg8
F1.0
sg9
F360.0
saa(lp43
V094018
p44
a(dp45
g5
F360.5
sg6
F2.5
sg7
F359.5
sg8
F2.0
sg9
F360.5
saa(lp46
V094033
p47
a(dp48
g5
F361.0
sg6
F3.0
sg7
F359.5
sg8
F1.0
sg9
F361.0
saa(lp49
V094429
p50
a(dp51
g5
F360.5
sg6
F2.5
sg7
F360.0
sg8
F1.0
sg9
F360.5
saa(lp52
V094920
p53
a(dp54
g5
F361.0
sg6
F2.5
sg7
F360.5
sg8
F1.0
sg9
F360.5
saa(lp55
V094951
p56
a(dp57
g5
F361.0
sg6
F2.5
sg7
F360.5
sg8
F1.0
sg9
F360.5
saa(lp58
V094956
p59
a(dp60
g5
F361.0
sg6
F2.5
sg7
F360.5
sg8
F1.0
sg9
F360.5
saa(lp61
V095056
p62
a(dp63
g5
F361.0
sg6
F3.0
sg7
F360.0
sg8
F1.0
sg9
F361.0
saa(lp64
V095241
p65
a(dp66
g5
F360.5
sg6
F2.5
sg7
F360.0
sg8
F1.0
sg9
F360.5
saa(lp67
V100059
p68
a(dp69
g5
F361.0
sg6
F2.5
sg7
F360.5
sg8
F1.0
sg9
F360.5
saa(lp70
V100450
p71
a(dp72
g5
F361.0
sg6
F2.5
sg7
F360.5
sg8
F1.0
sg9
F360.5
saa(lp73
V100615
p74
a(dp75
g5
F361.0
sg6
F3.0
sg7
F360.5
sg8
F1.0
sg9
F361.0
saa(lp76
V100751
p77
a(dp78
g5
F361.0
sg6
F2.0
sg7
F360.0
sg8
F1.0
sg9
F360.0
saa(lp79
V101056
p80
a(dp81
g5
F360.5
sg6
F2.5
sg7
F360.0
sg8
F1.0
sg9
F360.5
saa(lp82
V101418
p83
a(dp84
g5
F361.0
sg6
F2.0
sg7
F360.0
sg8
F1.0
sg9
F360.0
saa(lp85
V102109
p86
a(dp87
g5
F361.0
sg6
F2.5
sg7
F360.5
sg8
F1.0
sg9
F360.5
saa(lp88
V102906
p89
a(dp90
g5
F360.5
sg6
F2.0
sg7
F360.0
sg8
F1.0
sg9
F360.0
saa(lp91
V103017
p92
a(dp93
g5
F360.5
sg6
F2.0
sg7
F360.0
sg8
F3.0
sg9
F360.0
saa(lp94
V103112
p95
a(dp96
g5
F360.5
sg6
F1.5
sg7
F359.5
sg8
F1.0
sg9
F359.5
saa(lp97
V103302
p98
a(dp99
g5
F360.0
sg6
F2.0
sg7
F359.5
sg8
F1.0
sg9
F360.0
saa(lp100
V104140
p101
a(dp102
g5
F360.5
sg6
F1.5
sg7
F359.5
sg8
F1.0
sg9
F359.5
saa(lp103
V104310
p104
a(dp105
g5
F360.5
sg6
F2.5
sg7
F360.0
sg8
F1.0
sg9
F360.5
saa(lp106
V104335
p107
a(dp108
g5
F360.5
sg6
F2.5
sg7
F360.0
sg8
F1.0
sg9
F360.5
saa(lp109
V104801
p110
a(dp111
g5
F361.0
sg6
F3.0
sg7
F360.5
sg8
F1.0
sg9
F361.0
saa(lp112
V104822
p113
a(dp114
g5
F361.0
sg6
F3.0
sg7
F360.5
sg8
F2.0
sg9
F361.0
saa(lp115
V104847
p116
a(dp117
g5
F361.0
sg6
F3.0
sg7
F360.5
sg8
F2.0
sg9
F361.0
saa(lp118
V104852
p119
a(dp120
g5
F361.0
sg6
F3.0
sg7
F360.5
sg8
F3.0
sg9
F361.0
saa(lp121
V104857
p122
a(dp123
g5
F361.0
sg6
F3.0
sg7
F360.5
sg8
F2.0
sg9
F361.0
saa(lp124
V104902
p125
a(dp126
g5
F361.5
sg6
F3.5
sg7
F360.5
sg8
F1.0
sg9
F361.5
saa(lp127
V104907
p128
a(dp129
g5
F361.5
sg6
F3.5
sg7
F360.5
sg8
F3.0
sg9
F361.5
saa(lp130
V104942
p131
a(dp132
g5
F362.0
sg6
F4.0
sg7
F361.0
sg8
F2.0
sg9
F362.0
saa(lp133
V104947
p134
a(dp135
g5
F362.0
sg6
F4.0
sg7
F361.0
sg8
F5.0
sg9
F362.0
saa(lp136
V104957
p137
a(dp138
g5
F362.5
sg6
F4.5
sg7
F362.0
sg8
F7.0
sg9
F362.5
saa(lp139
V105012
p140
a(dp141
g5
F363.0
sg6
F5.0
sg7
F362.5
sg8
F3.0
sg9
F363.0
saa(lp142
V105017
p143
a(dp144
g5
F363.0
sg6
F5.0
sg7
F362.5
sg8
F5.0
sg9
F363.0
saa(lp145
V105022
p146
a(dp147
g5
F363.5
sg6
F5.5
sg7
F363.0
sg8
F1.0
sg9
F363.5
saa(lp148
V105027
p149
a(dp150
g5
F363.5
sg6
F5.5
sg7
F363.0
sg8
F1.0
sg9
F363.5
saa(lp151
V105037
p152
a(dp153
g5
F364.0
sg6
F6.5
sg7
F363.5
sg8
F2.0
sg9
F364.5
saa(lp154
V105042
p155
a(dp156
g5
F365.0
sg6
F7.0
sg7
F364.0
sg8
F9.0
sg9
F365.0
saa(lp157
V105047
p158
a(dp159
g5
F366.0
sg6
F8.0
sg7
F365.0
sg8
F2.0
sg9
F366.0
saa(lp160
V105052
p161
a(dp162
g5
F366.0
sg6
F8.0
sg7
F365.0
sg8
F1.0
sg9
F366.0
saa(lp163
V105057
p164
a(dp165
g5
F367.0
sg6
F8.0
sg7
F366.0
sg8
F1.0
sg9
F366.0
saa(lp166
V105102
p167
a(dp168
g5
F367.0
sg6
F9.0
sg7
F366.0
sg8
F2.0
sg9
F367.0
saa(lp169
V105107
p170
a(dp171
g5
F367.0
sg6
F9.0
sg7
F366.0
sg8
F2.0
sg9
F367.0
saa(lp172
V105112
p173
a(dp174
g5
F368.0
sg6
F10.0
sg7
F367.0
sg8
F1.0
sg9
F368.0
saa(lp175
V105117
p176
a(dp177
g5
F368.0
sg6
F10.0
sg7
F367.0
sg8
F8.0
sg9
F368.0
saa(lp178
V105122
p179
a(dp180
g5
F369.0
sg6
F11.0
sg7
F367.0
sg8
F5.0
sg9
F369.0
saa(lp181
V105127
p182
a(dp183
g5
F369.0
sg6
F11.0
sg7
F367.0
sg8
F7.0
sg9
F369.0
saa(lp184
V105132
p185
a(dp186
g5
F369.0
sg6
F11.0
sg7
F367.0
sg8
F1.0
sg9
F369.0
saa(lp187
V105137
p188
a(dp189
g5
F369.0
sg6
F12.0
sg7
F367.0
sg8
F2.0
sg9
F370.0
saa(lp190
V105142
p191
a(dp192
g5
F370.0
sg6
F12.0
sg7
F369.0
sg8
F2.0
sg9
F370.0
saa(lp193
V105147
p194
a(dp195
g5
F370.0
sg6
F12.0
sg7
F369.0
sg8
F6.0
sg9
F370.0
saa(lp196
V105152
p197
a(dp198
g5
F370.0
sg6
F12.0
sg7
F369.0
sg8
F3.0
sg9
F370.0
saa(lp199
V105158
p200
a(dp201
g5
F370.0
sg6
F12.0
sg7
F369.0
sg8
F3.0
sg9
F370.0
saa(lp202
V105203
p203
a(dp204
g5
F370.0
sg6
F12.0
sg7
F369.0
sg8
F2.0
sg9
F370.0
saa(lp205
V105208
p206
a(dp207
g5
F370.5
sg6
F12.0
sg7
F370.0
sg8
F1.0
sg9
F370.0
saa(lp208
V105213
p209
a(dp210
g5
F370.5
sg6
F12.0
sg7
F370.0
sg8
F1.0
sg9
F370.0
saa(lp211
V105218
p212
a(dp213
g5
F370.5
sg6
F12.0
sg7
F370.0
sg8
F3.0
sg9
F370.0
saa(lp214
V105228
p215
a(dp216
g5
F370.0
sg6
F11.0
sg7
F369.0
sg8
F1.0
sg9
F369.0
saa(lp217
V105238
p218
a(dp219
g5
F370.0
sg6
F11.0
sg7
F369.0
sg8
F1.0
sg9
F369.0
saa(lp220
V105248
p221
a(dp222
g5
F370.0
sg6
F11.0
sg7
F369.0
sg8
F1.0
sg9
F369.0
saa(lp223
V105258
p224
a(dp225
g5
F370.0
sg6
F12.0
sg7
F368.0
sg8
F1.0
sg9
F370.0
saa(lp226
V105308
p227
a(dp228
g5
F370.0
sg6
F11.5
sg7
F369.5
sg8
F1.0
sg9
F369.5
saa(lp229
V105313
p230
a(dp231
g5
F370.0
sg6
F10.0
sg7
F368.5
sg8
F2.0
sg9
F368.0
saa(lp232
V105444
p233
a(dp234
g5
F370.0
sg6
F10.0
sg7
F368.0
sg8
F2.0
sg9
F368.0
saa(lp235
V105459
p236
a(dp237
g5
F370.0
sg6
F10.0
sg7
F368.0
sg8
F2.0
sg9
F368.0
saa(lp238
V105509
p239
a(dp240
g5
F368.0
sg6
F9.5
sg7
F367.5
sg8
F1.0
sg9
F367.5
saa(lp241
V105514
p242
a(dp243
g5
F368.0
sg6
F9.0
sg7
F367.0
sg8
F1.0
sg9
F367.0
saa(lp244
V105529
p245
a(dp246
g5
F368.0
sg6
F9.0
sg7
F367.0
sg8
F1.0
sg9
F367.0
saa(lp247
V105624
p248
a(dp249
g5
F367.0
sg6
F8.5
sg7
F366.5
sg8
F1.0
sg9
F366.5
saa(lp250
V105754
p251
a(dp252
g5
F366.5
sg6
F7.0
sg7
F365.0
sg8
F2.0
sg9
F365.0
saa(lp253
V110010
p254
a(dp255
g5
F366.0
sg6
F8.0
sg7
F365.5
sg8
F1.0
sg9
F366.0
saa(lp256
V110025
p257
a(dp258
g5
F366.5
sg6
F8.0
sg7
F365.5
sg8
F1.0
sg9
F366.0
saa(lp259
V110150
p260
a(dp261
g5
F366.5
sg6
F8.0
sg7
F366.0
sg8
F1.0
sg9
F366.0
saa(lp262
V110437
p263
a(dp264
g5
F366.0
sg6
F8.0
sg7
F365.5
sg8
F1.0
sg9
F366.0
saa(lp265
V110532
p266
a(dp267
g5
F366.0
sg6
F7.5
sg7
F365.5
sg8
F1.0
sg9
F365.5
saa(lp268
V110607
p269
a(dp270
g5
F366.0
sg6
F7.0
sg7
F365.0
sg8
F1.0
sg9
F365.0
saa(lp271
V110722
p272
a(dp273
g5
F365.5
sg6
F7.5
sg7
F365.0
sg8
F2.0
sg9
F365.5
saa(lp274
V110732
p275
a(dp276
g5
F366.0
sg6
F8.0
sg7
F365.0
sg8
F2.0
sg9
F366.0
saa(lp277
V110737
p278
a(dp279
g5
F366.0
sg6
F8.0
sg7
F365.0
sg8
F2.0
sg9
F366.0
saa(lp280
V110742
p281
a(dp282
g5
F366.0
sg6
F8.0
sg7
F365.0
sg8
F3.0
sg9
F366.0
saa(lp283
V110817
p284
a(dp285
g5
F367.0
sg6
F8.0
sg7
F366.0
sg8
F1.0
sg9
F366.0
saa(lp286
V110827
p287
a(dp288
g5
F367.0
sg6
F9.0
sg7
F366.0
sg8
F1.0
sg9
F367.0
saa(lp289
V110832
p290
a(dp291
g5
F367.0
sg6
F9.0
sg7
F366.0
sg8
F1.0
sg9
F367.0
saa(lp292
V110917
p293
a(dp294
g5
F367.0
sg6
F9.0
sg7
F366.0
sg8
F2.0
sg9
F367.0
saa(lp295
V110938
p296
a(dp297
g5
F368.0
sg6
F10.0
sg7
F366.0
sg8
F1.0
sg9
F368.0
saa(lp298
V111033
p299
a(dp300
g5
F368.0
sg6
F10.0
sg7
F367.0
sg8
F4.0
sg9
F368.0
saa(lp301
V111038
p302
a(dp303
g5
F368.5
sg6
F9.0
sg7
F368.0
sg8
F2.0
sg9
F367.0
saa(lp304
V111323
p305
a(dp306
g5
F369.0
sg6
F9.0
sg7
F367.0
sg8
F1.0
sg9
F367.0
saa(lp307
V111514
p308
a(dp309
g5
F368.5
sg6
F9.5
sg7
F367.5
sg8
F1.0
sg9
F367.5
saa(lp310
V111825
p311
a(dp312
g5
F368.0
sg6
F9.5
sg7
F367.5
sg8
F1.0
sg9
F367.5
saa(lp313
V111830
p314
a(dp315
g5
F368.0
sg6
F9.5
sg7
F367.5
sg8
F2.0
sg9
F367.5
saa(lp316
V111840
p317
a(dp318
g5
F368.0
sg6
F9.0
sg7
F367.0
sg8
F1.0
sg9
F367.0
saa(lp319
V112251
p320
a(dp321
g5
F367.0
sg6
F9.0
sg7
F366.5
sg8
F1.0
sg9
F367.0
saa(lp322
V112311
p323
a(dp324
g5
F367.5
sg6
F9.0
sg7
F367.0
sg8
F1.0
sg9
F367.0
saa(lp325
V112637
p326
a(dp327
g5
F367.5
sg6
F9.0
sg7
F367.0
sg8
F1.0
sg9
F367.0
saa(lp328
V112657
p329
a(dp330
g5
F367.5
sg6
F9.0
sg7
F367.0
sg8
F1.0
sg9
F367.0
saa(lp331
V113128
p332
a(dp333
g5
F367.5
sg6
F9.0
sg7
F367.0
sg8
F1.0
sg9
F367.0
saa(lp334
V113244
p335
a(dp336
g5
F367.0
sg6
F9.0
sg7
F366.5
sg8
F1.0
sg9
F367.0
saa(lp337
V113400
p338
a(dp339
g5
F367.0
sg6
F9.0
sg7
F366.5
sg8
F2.0
sg9
F367.0
saa(lp340
V113555
p341
a(dp342
g5
F367.0
sg6
F8.5
sg7
F366.5
sg8
F1.0
sg9
F366.5
saa(lp343
V113745
p344
a(dp345
g5
F367.0
sg6
F8.5
sg7
F366.5
sg8
F1.0
sg9
F366.5
saa(lp346
V114538
p347
a(dp348
g5
F367.0
sg6
F7.5
sg7
F366.0
sg8
F5.0
sg9
F365.5
saa(lp349
V114553
p350
a(dp351
g5
F367.0
sg6
F9.0
sg7
F365.0
sg8
F1.0
sg9
F367.0
saa(lp352
V114743
p353
a(dp354
g5
F366.5
sg6
F9.0
sg7
F365.0
sg8
F1.0
sg9
F367.0
saa(lp355
V115736
p356
a(dp357
g5
F366.5
sg6
F7.0
sg7
F365.0
sg8
F1.0
sg9
F365.0
saa(lp358
V115947
p359
a(dp360
g5
F366.5
sg6
F7.5
sg7
F365.5
sg8
F3.0
sg9
F365.5
saa(lp361
V120137
p362
a(dp363
g5
F366.5
sg6
F7.5
sg7
F365.5
sg8
F1.0
sg9
F365.5
saa(lp364
V120322
p365
a(dp366
g5
F366.5
sg6
F7.0
sg7
F365.0
sg8
F2.0
sg9
F365.0
saa(lp367
V120353
p368
a(dp369
g5
F366.5
sg6
F7.0
sg7
F365.0
sg8
F1.0
sg9
F365.0
saa(lp370
V120729
p371
a(dp372
g5
F366.5
sg6
F7.0
sg7
F365.0
sg8
F1.0
sg9
F365.0
saa(lp373
V121416
p374
a(dp375
g5
F366.0
sg6
F8.0
sg7
F365.0
sg8
F1.0
sg9
F366.0
saa(lp376
V121912
p377
a(dp378
g5
F366.5
sg6
F8.5
sg7
F365.0
sg8
F1.0
sg9
F366.5
saa(lp379
V122604
p380
a(dp381
g5
F366.0
sg6
F7.0
sg7
F365.0
sg8
F1.0
sg9
F365.0
saa(lp382
V122749
p383
a(dp384
g5
F366.0
sg6
F7.0
sg7
F365.0
sg8
F1.0
sg9
F365.0
saa(lp385
V122945
p386
a(dp387
g5
F366.0
sg6
F7.0
sg7
F365.0
sg8
F1.0
sg9
F365.0
saa(lp388
V123135
p389
a(dp390
g5
F366.0
sg6
F7.0
sg7
F365.0
sg8
F1.0
sg9
F365.0
saa(lp391
V123406
p392
a(dp393
g5
F366.0
sg6
F7.0
sg7
F365.0
sg8
F1.0
sg9
F365.0
saa(lp394
V123441
p395
a(dp396
g5
F366.0
sg6
F7.0
sg7
F365.0
sg8
F1.0
sg9
F365.0
saa(lp397
V123507
p398
a(dp399
g5
F366.0
sg6
F7.0
sg7
F365.0
sg8
F1.0
sg9
F365.0
saa(lp400
V123512
p401
a(dp402
g5
F366.0
sg6
F8.0
sg7
F364.0
sg8
F1.0
sg9
F366.0
saa(lp403
V123737
p404
a(dp405
g5
F365.5
sg6
F6.0
sg7
F364.0
sg8
F2.0
sg9
F364.0
saa(lp406
V124243
p407
a(dp408
g5
F365.0
sg6
F6.0
sg7
F364.0
sg8
F1.0
sg9
F364.0
saa(lp409
V124910
p410
a(dp411
g5
F365.0
sg6
F6.0
sg7
F364.0
sg8
F1.0
sg9
F364.0
saa(lp412
V125106
p413
a(dp414
g5
F365.0
sg6
F6.0
sg7
F364.0
sg8
F1.0
sg9
F364.0
saa(lp415
V125121
p416
a(dp417
g5
F365.0
sg6
F6.0
sg7
F364.0
sg8
F1.0
sg9
F364.0
saa(lp418
V130154
p419
a(dp420
g5
F363.5
sg6
F5.0
sg7
F363.0
sg8
F1.0
sg9
F363.0
saa(lp421
V130249
p422
a(dp423
g5
F363.5
sg6
F5.5
sg7
F363.0
sg8
F1.0
sg9
F363.5
saa(lp424
V130445
p425
a(dp426
g5
F363.5
sg6
F5.0
sg7
F363.0
sg8
F2.0
sg9
F363.0
saa(lp427
V130555
p428
a(dp429
g5
F363.0
sg6
F5.0
sg7
F362.5
sg8
F1.0
sg9
F363.0
saa(lp430
V130810
p431
a(dp432
g5
F363.0
sg6
F5.0
sg7
F362.5
sg8
F1.0
sg9
F363.0
saa(lp433
V131116
p434
a(dp435
g5
F363.5
sg6
F5.5
sg7
F362.5
sg8
F1.0
sg9
F363.5
saa(lp436
V131146
p437
a(dp438
g5
F364.0
sg6
F6.0
sg7
F362.5
sg8
F1.0
sg9
F364.0
saa(lp439
V131206
p440
a(dp441
g5
F365.0
sg6
F7.0
sg7
F362.5
sg8
F1.0
sg9
F365.0
saa(lp442
V131231
p443
a(dp444
g5
F365.5
sg6
F8.0
sg7
F362.5
sg8
F4.0
sg9
F366.0
saa(lp445
V131347
p446
a(dp447
g5
F366.0
sg6
F8.0
sg7
F363.0
sg8
F1.0
sg9
F366.0
saa(lp448
V131407
p449
a(dp450
g5
F366.5
sg6
F8.0
sg7
F366.0
sg8
F1.0
sg9
F366.0
saa(lp451
V132004
p452
a(dp453
g5
F365.0
sg6
F8.0
sg7
F363.5
sg8
F1.0
sg9
F366.0
saa(lp454
V132054
p455
a(dp456
g5
F366.0
sg6
F5.5
sg7
F363.5
sg8
F1.0
sg9
F363.5
saa(lp457
V132224
p458
a(dp459
g5
F366.0
sg6
F8.0
sg7
F364.0
sg8
F1.0
sg9
F366.0
saa(lp460
V132304
p461
a(dp462
g5
F366.0
sg6
F8.0
sg7
F364.0
sg8
F1.0
sg9
F366.0
saa(lp463
V132350
p464
a(dp465
g5
F366.5
sg6
F8.5
sg7
F366.0
sg8
F2.0
sg9
F366.5
saa(lp466
V132415
p467
a(dp468
g5
F366.5
sg6
F8.0
sg7
F366.0
sg8
F1.0
sg9
F366.0
saa(lp469
V132425
p470
a(dp471
g5
F366.5
sg6
F8.5
sg7
F366.0
sg8
F1.0
sg9
F366.5
saa(lp472
V133000
p473
a(dp474
g5
F365.0
sg6
F6.0
sg7
F364.0
sg8
F9.0
sg9
F364.0
saa(lp475
V143000
p476
a(dp477
g5
F365.0
sg6
F6.0
sg7
F364.0
sg8
F1.0
sg9
F364.0
saatp478
Rp479
.