ccollections
OrderedDict
p0
((lp1
(lp2
V090138
p3
a(dp4
S'sell'
p5
F372.5
sS'diff'
p6
F3.0
sS'buy'
p7
F371.0
sS'count'
p8
F1.0
sS'deal'
p9
F372.5
saa(lp10
V090158
p11
a(dp12
g5
F372.5
sg6
F3.0
sg7
F371.0
sg8
F1.0
sg9
F372.5
saa(lp13
V090313
p14
a(dp15
g5
F373.0
sg6
F3.5
sg7
F372.0
sg8
F2.0
sg9
F373.0
saa(lp16
V090318
p17
a(dp18
g5
F374.0
sg6
F4.5
sg7
F373.0
sg8
F1.0
sg9
F374.0
saa(lp19
V090323
p20
a(dp21
g5
F374.0
sg6
F4.5
sg7
F373.0
sg8
F2.0
sg9
F374.0
saa(lp22
V090328
p23
a(dp24
g5
F374.5
sg6
F5.0
sg7
F374.0
sg8
F1.0
sg9
F374.5
saa(lp25
V090333
p26
a(dp27
g5
F374.5
sg6
F5.0
sg7
F374.0
sg8
F2.0
sg9
F374.5
saa(lp28
V090403
p29
a(dp30
g5
F375.0
sg6
F5.0
sg7
F374.5
sg8
F1.0
sg9
F374.5
saa(lp31
V090413
p32
a(dp33
g5
F375.0
sg6
F5.0
sg7
F374.5
sg8
F1.0
sg9
F374.5
saa(lp34
V090418
p35
a(dp36
g5
F375.0
sg6
F5.5
sg7
F374.5
sg8
F10.0
sg9
F375.0
saa(lp37
V090424
p38
a(dp39
g5
F375.0
sg6
F5.5
sg7
F374.5
sg8
F4.0
sg9
F375.0
saa(lp40
V090429
p41
a(dp42
g5
F375.0
sg6
F5.5
sg7
F374.5
sg8
F1.0
sg9
F375.0
saa(lp43
V090434
p44
a(dp45
g5
F375.0
sg6
F5.5
sg7
F374.5
sg8
F1.0
sg9
F375.0
saa(lp46
V090439
p47
a(dp48
g5
F375.0
sg6
F5.5
sg7
F374.5
sg8
F6.0
sg9
F375.0
saa(lp49
V090444
p50
a(dp51
g5
F375.0
sg6
F5.5
sg7
F374.5
sg8
F2.0
sg9
F375.0
saa(lp52
V090449
p53
a(dp54
g5
F375.5
sg6
F6.0
sg7
F375.0
sg8
F2.0
sg9
F375.5
saa(lp55
V090454
p56
a(dp57
g5
F376.0
sg6
F5.5
sg7
F375.0
sg8
F1.0
sg9
F375.0
saa(lp58
V090459
p59
a(dp60
g5
F376.0
sg6
F6.5
sg7
F375.0
sg8
F1.0
sg9
F376.0
saa(lp61
V090514
p62
a(dp63
g5
F376.0
sg6
F6.5
sg7
F375.0
sg8
F2.0
sg9
F376.0
saa(lp64
V090519
p65
a(dp66
g5
F376.0
sg6
F6.5
sg7
F375.0
sg8
F1.0
sg9
F376.0
saa(lp67
V090549
p68
a(dp69
g5
F376.5
sg6
F7.0
sg7
F376.0
sg8
F2.0
sg9
F376.5
saa(lp70
V090559
p71
a(dp72
g5
F377.0
sg6
F7.0
sg7
F376.5
sg8
F1.0
sg9
F376.5
saa(lp73
V090604
p74
a(dp75
g5
F377.0
sg6
F7.5
sg7
F376.5
sg8
F1.0
sg9
F377.0
saa(lp76
V090644
p77
a(dp78
g5
F377.5
sg6
F8.0
sg7
F377.0
sg8
F1.0
sg9
F377.5
saa(lp79
V090649
p80
a(dp81
g5
F377.5
sg6
F7.5
sg7
F377.0
sg8
F1.0
sg9
F377.0
saa(lp82
V090654
p83
a(dp84
g5
F377.5
sg6
F8.0
sg7
F377.0
sg8
F1.0
sg9
F377.5
saa(lp85
V090659
p86
a(dp87
g5
F378.0
sg6
F8.5
sg7
F377.5
sg8
F1.0
sg9
F378.0
saa(lp88
V090709
p89
a(dp90
g5
F378.0
sg6
F8.5
sg7
F377.5
sg8
F1.0
sg9
F378.0
saa(lp91
V090719
p92
a(dp93
g5
F378.0
sg6
F8.5
sg7
F377.5
sg8
F7.0
sg9
F378.0
saa(lp94
V090729
p95
a(dp96
g5
F378.0
sg6
F8.5
sg7
F377.5
sg8
F2.0
sg9
F378.0
saa(lp97
V090734
p98
a(dp99
g5
F378.0
sg6
F8.5
sg7
F377.5
sg8
F2.0
sg9
F378.0
saa(lp100
V090739
p101
a(dp102
g5
F378.0
sg6
F8.5
sg7
F377.5
sg8
F2.0
sg9
F378.0
saa(lp103
V090900
p104
a(dp105
g5
F378.0
sg6
F8.5
sg7
F377.5
sg8
F1.0
sg9
F378.0
saa(lp106
V090910
p107
a(dp108
g5
F378.5
sg6
F8.0
sg7
F377.5
sg8
F1.0
sg9
F377.5
saa(lp109
V090915
p110
a(dp111
g5
F378.5
sg6
F8.0
sg7
F377.5
sg8
F1.0
sg9
F377.5
saa(lp112
V090920
p113
a(dp114
g5
F378.5
sg6
F8.0
sg7
F377.5
sg8
F5.0
sg9
F377.5
saa(lp115
V090925
p116
a(dp117
g5
F377.5
sg6
F7.5
sg7
F377.0
sg8
F1.0
sg9
F377.0
saa(lp118
V091025
p119
a(dp120
g5
F376.5
sg6
F6.0
sg7
F375.5
sg8
F1.0
sg9
F375.5
saa(lp121
V091040
p122
a(dp123
g5
F376.0
sg6
F6.0
sg7
F375.5
sg8
F1.0
sg9
F375.5
saa(lp124
V091045
p125
a(dp126
g5
F376.0
sg6
F6.0
sg7
F375.5
sg8
F2.0
sg9
F375.5
saa(lp127
V091055
p128
a(dp129
g5
F375.5
sg6
F5.5
sg7
F375.0
sg8
F1.0
sg9
F375.0
saa(lp130
V091206
p131
a(dp132
g5
F375.0
sg6
F4.5
sg7
F374.0
sg8
F1.0
sg9
F374.0
saa(lp133
V091231
p134
a(dp135
g5
F375.0
sg6
F4.5
sg7
F374.0
sg8
F3.0
sg9
F374.0
saa(lp136
V091236
p137
a(dp138
g5
F375.0
sg6
F4.5
sg7
F374.0
sg8
F1.0
sg9
F374.0
saa(lp139
V091241
p140
a(dp141
g5
F375.0
sg6
F4.5
sg7
F374.0
sg8
F1.0
sg9
F374.0
saa(lp142
V091251
p143
a(dp144
g5
F375.0
sg6
F4.5
sg7
F374.0
sg8
F1.0
sg9
F374.0
saa(lp145
V091441
p146
a(dp147
g5
F373.5
sg6
F4.0
sg7
F373.0
sg8
F2.0
sg9
F373.5
saa(lp148
V091556
p149
a(dp150
g5
F374.0
sg6
F5.5
sg7
F373.5
sg8
F5.0
sg9
F375.0
saa(lp151
V091612
p152
a(dp153
g5
F375.0
sg6
F5.5
sg7
F374.0
sg8
F1.0
sg9
F375.0
saa(lp154
V091627
p155
a(dp156
g5
F376.5
sg6
F5.5
sg7
F375.0
sg8
F2.0
sg9
F375.0
saa(lp157
V091702
p158
a(dp159
g5
F374.0
sg6
F4.5
sg7
F373.0
sg8
F1.0
sg9
F374.0
saa(lp160
V091752
p161
a(dp162
g5
F374.5
sg6
F4.5
sg7
F374.0
sg8
F1.0
sg9
F374.0
saa(lp163
V091918
p164
a(dp165
g5
F374.0
sg6
F3.5
sg7
F373.0
sg8
F1.0
sg9
F373.0
saa(lp166
V092113
p167
a(dp168
g5
F373.0
sg6
F3.5
sg7
F372.0
sg8
F1.0
sg9
F373.0
saa(lp169
V092559
p170
a(dp171
g5
F374.5
sg6
F3.5
sg7
F373.0
sg8
F10.0
sg9
F373.0
saa(lp172
V092604
p173
a(dp174
g5
F374.5
sg6
F2.5
sg7
F373.0
sg8
F2.0
sg9
F372.0
saa(lp175
V092926
p176
a(dp177
g5
F373.0
sg6
F2.5
sg7
F372.5
sg8
F2.0
sg9
F372.0
saa(lp178
V093046
p179
a(dp180
g5
F373.0
sg6
F3.0
sg7
F372.5
sg8
F1.0
sg9
F372.5
saa(lp181
V093051
p182
a(dp183
g5
F373.0
sg6
F3.0
sg7
F372.5
sg8
F1.0
sg9
F372.5
saa(lp184
V093146
p185
a(dp186
g5
F373.0
sg6
F3.5
sg7
F372.0
sg8
F1.0
sg9
F373.0
saa(lp187
V093622
p188
a(dp189
g5
F373.5
sg6
F3.5
sg7
F373.0
sg8
F1.0
sg9
F373.0
saa(lp190
V094049
p191
a(dp192
g5
F373.5
sg6
F4.0
sg7
F373.0
sg8
F2.0
sg9
F373.5
saa(lp193
V094054
p194
a(dp195
g5
F374.0
sg6
F3.5
sg7
F373.0
sg8
F1.0
sg9
F373.0
saa(lp196
V094740
p197
a(dp198
g5
F374.0
sg6
F4.0
sg7
F373.5
sg8
F2.0
sg9
F373.5
saa(lp199
V094750
p200
a(dp201
g5
F374.0
sg6
F4.0
sg7
F373.5
sg8
F2.0
sg9
F373.5
saa(lp202
V095026
p203
a(dp204
g5
F374.0
sg6
F4.5
sg7
F373.5
sg8
F6.0
sg9
F374.0
saa(lp205
V095031
p206
a(dp207
g5
F374.5
sg6
F5.0
sg7
F373.5
sg8
F1.0
sg9
F374.5
saa(lp208
V095036
p209
a(dp210
g5
F374.5
sg6
F4.5
sg7
F374.0
sg8
F1.0
sg9
F374.0
saa(lp211
V095247
p212
a(dp213
g5
F374.5
sg6
F4.5
sg7
F374.0
sg8
F1.0
sg9
F374.0
saa(lp214
V095252
p215
a(dp216
g5
F374.5
sg6
F4.5
sg7
F374.0
sg8
F1.0
sg9
F374.0
saa(lp217
V095944
p218
a(dp219
g5
F374.0
sg6
F4.0
sg7
F373.5
sg8
F1.0
sg9
F373.5
saa(lp220
V095949
p221
a(dp222
g5
F374.0
sg6
F4.0
sg7
F373.5
sg8
F1.0
sg9
F373.5
saa(lp223
V095954
p224
a(dp225
g5
F374.0
sg6
F4.0
sg7
F373.5
sg8
F2.0
sg9
F373.5
saa(lp226
V095959
p227
a(dp228
g5
F374.0
sg6
F4.0
sg7
F373.5
sg8
F1.0
sg9
F373.5
saa(lp229
V100104
p230
a(dp231
g5
F374.0
sg6
F4.0
sg7
F373.5
sg8
F1.0
sg9
F373.5
saa(lp232
V100124
p233
a(dp234
g5
F374.0
sg6
F4.0
sg7
F373.5
sg8
F1.0
sg9
F373.5
saa(lp235
V100129
p236
a(dp237
g5
F374.0
sg6
F4.0
sg7
F373.5
sg8
F1.0
sg9
F373.5
saa(lp238
V100134
p239
a(dp240
g5
F374.0
sg6
F4.0
sg7
F373.5
sg8
F1.0
sg9
F373.5
saa(lp241
V100721
p242
a(dp243
g5
F374.0
sg6
F4.0
sg7
F373.5
sg8
F1.0
sg9
F373.5
saa(lp244
V100856
p245
a(dp246
g5
F374.0
sg6
F4.0
sg7
F373.5
sg8
F3.0
sg9
F373.5
saa(lp247
V100902
p248
a(dp249
g5
F374.0
sg6
F3.5
sg7
F373.0
sg8
F1.0
sg9
F373.0
saa(lp250
V100907
p251
a(dp252
g5
F374.0
sg6
F3.5
sg7
F373.0
sg8
F1.0
sg9
F373.0
saa(lp253
V101538
p254
a(dp255
g5
F374.0
sg6
F4.5
sg7
F373.5
sg8
F2.0
sg9
F374.0
saa(lp256
V101543
p257
a(dp258
g5
F374.0
sg6
F4.0
sg7
F373.5
sg8
F1.0
sg9
F373.5
saa(lp259
V101548
p260
a(dp261
g5
F374.0
sg6
F4.5
sg7
F373.5
sg8
F1.0
sg9
F374.0
saa(lp262
V102130
p263
a(dp264
g5
F374.0
sg6
F4.0
sg7
F373.5
sg8
F1.0
sg9
F373.5
saa(lp265
V102205
p266
a(dp267
g5
F374.0
sg6
F4.0
sg7
F373.5
sg8
F2.0
sg9
F373.5
saa(lp268
V102210
p269
a(dp270
g5
F374.0
sg6
F4.0
sg7
F373.5
sg8
F1.0
sg9
F373.5
saa(lp271
V102837
p272
a(dp273
g5
F374.0
sg6
F4.0
sg7
F373.5
sg8
F1.0
sg9
F373.5
saa(lp274
V103439
p275
a(dp276
g5
F374.0
sg6
F4.5
sg7
F373.5
sg8
F1.0
sg9
F374.0
saa(lp277
V103444
p278
a(dp279
g5
F374.0
sg6
F4.5
sg7
F373.5
sg8
F1.0
sg9
F374.0
saa(lp280
V103819
p281
a(dp282
g5
F374.0
sg6
F4.5
sg7
F373.5
sg8
F1.0
sg9
F374.0
saa(lp283
V104020
p284
a(dp285
g5
F374.0
sg6
F4.5
sg7
F373.5
sg8
F1.0
sg9
F374.0
saa(lp286
V104025
p287
a(dp288
g5
F374.0
sg6
F4.5
sg7
F373.5
sg8
F1.0
sg9
F374.0
saa(lp289
V104035
p290
a(dp291
g5
F374.0
sg6
F4.5
sg7
F373.5
sg8
F1.0
sg9
F374.0
saa(lp292
V104040
p293
a(dp294
g5
F374.5
sg6
F4.5
sg7
F374.0
sg8
F1.0
sg9
F374.0
saa(lp295
V104446
p296
a(dp297
g5
F374.0
sg6
F4.5
sg7
F373.5
sg8
F1.0
sg9
F374.0
saa(lp298
V104557
p299
a(dp300
g5
F374.0
sg6
F4.5
sg7
F373.5
sg8
F1.0
sg9
F374.0
saa(lp301
V105204
p302
a(dp303
g5
F374.0
sg6
F4.5
sg7
F373.5
sg8
F1.0
sg9
F374.0
saa(lp304
V105354
p305
a(dp306
g5
F374.0
sg6
F4.5
sg7
F373.5
sg8
F1.0
sg9
F374.0
saa(lp307
V105610
p308
a(dp309
g5
F374.0
sg6
F4.5
sg7
F373.5
sg8
F1.0
sg9
F374.0
saa(lp310
V110346
p311
a(dp312
g5
F374.0
sg6
F4.0
sg7
F373.5
sg8
F15.0
sg9
F373.5
saa(lp313
V110351
p314
a(dp315
g5
F374.0
sg6
F3.0
sg7
F373.5
sg8
F6.0
sg9
F372.5
saa(lp316
V110357
p317
a(dp318
g5
F374.0
sg6
F2.5
sg7
F372.5
sg8
F5.0
sg9
F372.0
saa(lp319
V110402
p320
a(dp321
g5
F374.0
sg6
F2.5
sg7
F372.0
sg8
F1.0
sg9
F372.0
saa(lp322
V110853
p323
a(dp324
g5
F374.0
sg6
F4.0
sg7
F373.5
sg8
F1.0
sg9
F373.5
saa(lp325
V110914
p326
a(dp327
g5
F374.0
sg6
F4.0
sg7
F373.5
sg8
F1.0
sg9
F373.5
saa(lp328
V110924
p329
a(dp330
g5
F374.0
sg6
F4.0
sg7
F373.5
sg8
F3.0
sg9
F373.5
saa(lp331
V112738
p332
a(dp333
g5
F374.0
sg6
F4.0
sg7
F373.5
sg8
F1.0
sg9
F373.5
saa(lp334
V112939
p335
a(dp336
g5
F374.0
sg6
F4.0
sg7
F373.5
sg8
F2.0
sg9
F373.5
saa(lp337
V113806
p338
a(dp339
g5
F374.0
sg6
F4.0
sg7
F373.5
sg8
F5.0
sg9
F373.5
saa(lp340
V114037
p341
a(dp342
g5
F374.0
sg6
F4.5
sg7
F373.5
sg8
F1.0
sg9
F374.0
saa(lp343
V114132
p344
a(dp345
g5
F374.0
sg6
F4.0
sg7
F373.5
sg8
F1.0
sg9
F373.5
saa(lp346
V114644
p347
a(dp348
g5
F374.0
sg6
F4.0
sg7
F373.5
sg8
F1.0
sg9
F373.5
saa(lp349
V114829
p350
a(dp351
g5
F374.0
sg6
F4.5
sg7
F373.5
sg8
F2.0
sg9
F374.0
saa(lp352
V114839
p353
a(dp354
g5
F374.0
sg6
F4.5
sg7
F373.5
sg8
F3.0
sg9
F374.0
saa(lp355
V114854
p356
a(dp357
g5
F374.0
sg6
F4.5
sg7
F373.5
sg8
F5.0
sg9
F374.0
saa(lp358
V114900
p359
a(dp360
g5
F374.0
sg6
F4.5
sg7
F373.5
sg8
F1.0
sg9
F374.0
saa(lp361
V114905
p362
a(dp363
g5
F374.5
sg6
F5.0
sg7
F374.0
sg8
F1.0
sg9
F374.5
saa(lp364
V114910
p365
a(dp366
g5
F374.5
sg6
F5.0
sg7
F374.0
sg8
F2.0
sg9
F374.5
saa(lp367
V114915
p368
a(dp369
g5
F375.0
sg6
F5.5
sg7
F374.5
sg8
F6.0
sg9
F375.0
saa(lp370
V114935
p371
a(dp372
g5
F375.5
sg6
F6.0
sg7
F374.5
sg8
F2.0
sg9
F375.5
saa(lp373
V114945
p374
a(dp375
g5
F376.0
sg6
F6.5
sg7
F375.5
sg8
F1.0
sg9
F376.0
saa(lp376
V115005
p377
a(dp378
g5
F376.0
sg6
F6.5
sg7
F375.5
sg8
F1.0
sg9
F376.0
saa(lp379
V115015
p380
a(dp381
g5
F376.0
sg6
F6.5
sg7
F375.5
sg8
F1.0
sg9
F376.0
saa(lp382
V115105
p383
a(dp384
g5
F376.5
sg6
F7.0
sg7
F376.0
sg8
F1.0
sg9
F376.5
saa(lp385
V115200
p386
a(dp387
g5
F377.0
sg6
F7.0
sg7
F376.5
sg8
F1.0
sg9
F376.5
saa(lp388
V115336
p389
a(dp390
g5
F377.0
sg6
F7.0
sg7
F376.5
sg8
F2.0
sg9
F376.5
saa(lp391
V115356
p392
a(dp393
g5
F377.0
sg6
F7.0
sg7
F376.5
sg8
F1.0
sg9
F376.5
saa(lp394
V115401
p395
a(dp396
g5
F377.0
sg6
F7.0
sg7
F376.5
sg8
F2.0
sg9
F376.5
saa(lp397
V115406
p398
a(dp399
g5
F377.0
sg6
F7.0
sg7
F376.5
sg8
F1.0
sg9
F376.5
saa(lp400
V115556
p401
a(dp402
g5
F376.5
sg6
F7.0
sg7
F374.5
sg8
F1.0
sg9
F376.5
saa(lp403
V120805
p404
a(dp405
g5
F376.0
sg6
F6.5
sg7
F374.5
sg8
F2.0
sg9
F376.0
saa(lp406
V121106
p407
a(dp408
g5
F375.5
sg6
F5.0
sg7
F374.5
sg8
F1.0
sg9
F374.5
saa(lp409
V121301
p410
a(dp411
g5
F375.0
sg6
F5.0
sg7
F374.5
sg8
F1.0
sg9
F374.5
saa(lp412
V121547
p413
a(dp414
g5
F375.0
sg6
F4.5
sg7
F374.0
sg8
F1.0
sg9
F374.0
saa(lp415
V121602
p416
a(dp417
g5
F375.0
sg6
F4.5
sg7
F374.0
sg8
F1.0
sg9
F374.0
saa(lp418
V121607
p419
a(dp420
g5
F375.0
sg6
F4.5
sg7
F374.0
sg8
F1.0
sg9
F374.0
saa(lp421
V122254
p422
a(dp423
g5
F375.0
sg6
F4.5
sg7
F374.0
sg8
F1.0
sg9
F374.0
saa(lp424
V123808
p425
a(dp426
g5
F375.0
sg6
F4.5
sg7
F374.0
sg8
F3.0
sg9
F374.0
saa(lp427
V123838
p428
a(dp429
g5
F374.0
sg6
F4.0
sg7
F373.5
sg8
F1.0
sg9
F373.5
saa(lp430
V123843
p431
a(dp432
g5
F374.0
sg6
F4.5
sg7
F373.5
sg8
F1.0
sg9
F374.0
saa(lp433
V124039
p434
a(dp435
g5
F374.5
sg6
F4.0
sg7
F373.5
sg8
F1.0
sg9
F373.5
saa(lp436
V124214
p437
a(dp438
g5
F374.5
sg6
F4.0
sg7
F373.5
sg8
F1.0
sg9
F373.5
saa(lp439
V125327
p440
a(dp441
g5
F374.0
sg6
F4.0
sg7
F373.5
sg8
F1.0
sg9
F373.5
saa(lp442
V125332
p443
a(dp444
g5
F374.0
sg6
F4.5
sg7
F373.5
sg8
F1.0
sg9
F374.0
saa(lp445
V125342
p446
a(dp447
g5
F374.0
sg6
F4.5
sg7
F373.5
sg8
F1.0
sg9
F374.0
saa(lp448
V125904
p449
a(dp450
g5
F374.0
sg6
F4.0
sg7
F373.5
sg8
F1.0
sg9
F373.5
saa(lp451
V125954
p452
a(dp453
g5
F374.0
sg6
F4.5
sg7
F373.5
sg8
F3.0
sg9
F374.0
saa(lp454
V130340
p455
a(dp456
g5
F374.0
sg6
F4.5
sg7
F373.5
sg8
F1.0
sg9
F374.0
saa(lp457
V130410
p458
a(dp459
g5
F374.0
sg6
F4.5
sg7
F373.5
sg8
F1.0
sg9
F374.0
saa(lp460
V130521
p461
a(dp462
g5
F374.5
sg6
F4.5
sg7
F374.0
sg8
F1.0
sg9
F374.0
saa(lp463
V131313
p464
a(dp465
g5
F374.5
sg6
F5.0
sg7
F374.0
sg8
F1.0
sg9
F374.5
saa(lp466
V131323
p467
a(dp468
g5
F375.0
sg6
F5.5
sg7
F374.0
sg8
F5.0
sg9
F375.0
saa(lp469
V131328
p470
a(dp471
g5
F375.5
sg6
F6.0
sg7
F375.0
sg8
F1.0
sg9
F375.5
saa(lp472
V131433
p473
a(dp474
g5
F375.5
sg6
F6.0
sg7
F375.0
sg8
F1.0
sg9
F375.5
saa(lp475
V131518
p476
a(dp477
g5
F375.5
sg6
F6.0
sg7
F375.0
sg8
F2.0
sg9
F375.5
saa(lp478
V131634
p479
a(dp480
g5
F375.5
sg6
F5.5
sg7
F375.0
sg8
F1.0
sg9
F375.0
saa(lp481
V131714
p482
a(dp483
g5
F375.5
sg6
F5.5
sg7
F375.0
sg8
F8.0
sg9
F375.0
saa(lp484
V131930
p485
a(dp486
g5
F375.0
sg6
F5.5
sg7
F374.0
sg8
F1.0
sg9
F375.0
saa(lp487
V132015
p488
a(dp489
g5
F375.0
sg6
F5.5
sg7
F374.0
sg8
F1.0
sg9
F375.0
saa(lp490
V132110
p491
a(dp492
g5
F375.0
sg6
F5.5
sg7
F374.0
sg8
F1.0
sg9
F375.0
saa(lp493
V132225
p494
a(dp495
g5
F375.0
sg6
F5.5
sg7
F374.0
sg8
F2.0
sg9
F375.0
saa(lp496
V132245
p497
a(dp498
g5
F375.5
sg6
F5.5
sg7
F375.0
sg8
F1.0
sg9
F375.0
saa(lp499
V132300
p500
a(dp501
g5
F375.5
sg6
F5.5
sg7
F375.0
sg8
F2.0
sg9
F375.0
saa(lp502
V132421
p503
a(dp504
g5
F375.0
sg6
F5.5
sg7
F374.0
sg8
F1.0
sg9
F375.0
saa(lp505
V133000
p506
a(dp507
g5
F374.0
sg6
F4.0
sg7
F373.5
sg8
F31.0
sg9
F373.5
saatp508
Rp509
.