ccollections
OrderedDict
p0
((lp1
(lp2
V090109
p3
a(dp4
S'sell'
p5
F459.0
sS'diff'
p6
F-3.5
sS'buy'
p7
F456.0
sS'count'
p8
F1.0
sS'deal'
p9
F456.0
saa(lp10
V090119
p11
a(dp12
g5
F458.5
sg6
F-4.5
sg7
F455.0
sg8
F1.0
sg9
F455.0
saa(lp13
V090124
p14
a(dp15
g5
F458.5
sg6
F-4.5
sg7
F455.0
sg8
F2.0
sg9
F455.0
saa(lp16
V090235
p17
a(dp18
g5
F458.0
sg6
F-5.5
sg7
F454.0
sg8
F1.0
sg9
F454.0
saa(lp19
V090240
p20
a(dp21
g5
F458.0
sg6
F-7.5
sg7
F452.0
sg8
F1.0
sg9
F452.0
saa(lp22
V090250
p23
a(dp24
g5
F454.0
sg6
F-8.0
sg7
F451.5
sg8
F1.0
sg9
F451.5
saa(lp25
V090305
p26
a(dp27
g5
F454.0
sg6
F-8.5
sg7
F451.0
sg8
F1.0
sg9
F451.0
saa(lp28
V090310
p29
a(dp30
g5
F454.0
sg6
F-8.5
sg7
F451.0
sg8
F4.0
sg9
F451.0
saa(lp31
V090315
p32
a(dp33
g5
F453.0
sg6
F-8.5
sg7
F451.0
sg8
F1.0
sg9
F451.0
saa(lp34
V090355
p35
a(dp36
g5
F453.0
sg6
F-8.5
sg7
F451.0
sg8
F1.0
sg9
F451.0
saa(lp37
V090405
p38
a(dp39
g5
F453.0
sg6
F-8.5
sg7
F451.0
sg8
F1.0
sg9
F451.0
saa(lp40
V090415
p41
a(dp42
g5
F453.0
sg6
F-6.5
sg7
F451.0
sg8
F1.0
sg9
F453.0
saa(lp43
V090505
p44
a(dp45
g5
F453.0
sg6
F-6.5
sg7
F451.0
sg8
F2.0
sg9
F453.0
saa(lp46
V090510
p47
a(dp48
g5
F453.0
sg6
F-6.5
sg7
F451.0
sg8
F1.0
sg9
F453.0
saa(lp49
V090651
p50
a(dp51
g5
F455.0
sg6
F-6.5
sg7
F453.0
sg8
F3.0
sg9
F453.0
saa(lp52
V090921
p53
a(dp54
g5
F452.5
sg6
F-7.5
sg7
F452.0
sg8
F1.0
sg9
F452.0
saa(lp55
V090926
p56
a(dp57
g5
F452.0
sg6
F-8.5
sg7
F451.0
sg8
F1.0
sg9
F451.0
saa(lp58
V090947
p59
a(dp60
g5
F452.5
sg6
F-8.5
sg7
F451.0
sg8
F1.0
sg9
F451.0
saa(lp61
V090952
p62
a(dp63
g5
F452.5
sg6
F-8.5
sg7
F451.0
sg8
F1.0
sg9
F451.0
saa(lp64
V090957
p65
a(dp66
g5
F451.0
sg6
F-9.5
sg7
F450.0
sg8
F1.0
sg9
F450.0
saa(lp67
V091002
p68
a(dp69
g5
F451.0
sg6
F-9.5
sg7
F450.0
sg8
F3.0
sg9
F450.0
saa(lp70
V091012
p71
a(dp72
g5
F452.5
sg6
F-10.5
sg7
F449.0
sg8
F1.0
sg9
F449.0
saa(lp73
V091052
p74
a(dp75
g5
F452.5
sg6
F-10.5
sg7
F449.0
sg8
F1.0
sg9
F449.0
saa(lp76
V091142
p77
a(dp78
g5
F452.5
sg6
F-10.5
sg7
F449.0
sg8
F1.0
sg9
F449.0
saa(lp79
V091222
p80
a(dp81
g5
F452.5
sg6
F-10.5
sg7
F450.0
sg8
F1.0
sg9
F449.0
saa(lp82
V091227
p83
a(dp84
g5
F452.5
sg6
F-10.5
sg7
F449.0
sg8
F1.0
sg9
F449.0
saa(lp85
V091247
p86
a(dp87
g5
F452.5
sg6
F-10.5
sg7
F449.0
sg8
F1.0
sg9
F449.0
saa(lp88
V091338
p89
a(dp90
g5
F450.0
sg6
F-9.5
sg7
F449.0
sg8
F1.0
sg9
F450.0
saa(lp91
V091458
p92
a(dp93
g5
F452.5
sg6
F-7.0
sg7
F450.5
sg8
F1.0
sg9
F452.5
saa(lp94
V091508
p95
a(dp96
g5
F453.0
sg6
F-6.5
sg7
F451.0
sg8
F1.0
sg9
F453.0
saa(lp97
V091714
p98
a(dp99
g5
F453.0
sg6
F-6.5
sg7
F451.0
sg8
F1.0
sg9
F453.0
saa(lp100
V091819
p101
a(dp102
g5
F455.0
sg6
F-6.5
sg7
F453.0
sg8
F1.0
sg9
F453.0
saa(lp103
V091824
p104
a(dp105
g5
F455.0
sg6
F-8.0
sg7
F451.5
sg8
F2.0
sg9
F451.5
saa(lp106
V091929
p107
a(dp108
g5
F454.0
sg6
F-8.5
sg7
F451.0
sg8
F2.0
sg9
F451.0
saa(lp109
V091939
p110
a(dp111
g5
F454.0
sg6
F-9.0
sg7
F450.5
sg8
F2.0
sg9
F450.5
saa(lp112
V092000
p113
a(dp114
g5
F451.0
sg6
F-9.5
sg7
F450.0
sg8
F1.0
sg9
F450.0
saa(lp115
V092110
p116
a(dp117
g5
F452.0
sg6
F-10.5
sg7
F449.0
sg8
F2.0
sg9
F449.0
saa(lp118
V092140
p119
a(dp120
g5
F450.0
sg6
F-9.5
sg7
F448.0
sg8
F1.0
sg9
F450.0
saa(lp121
V092200
p122
a(dp123
g5
F451.0
sg6
F-9.5
sg7
F450.0
sg8
F1.0
sg9
F450.0
saa(lp124
V092215
p125
a(dp126
g5
F451.0
sg6
F-9.5
sg7
F450.0
sg8
F1.0
sg9
F450.0
saa(lp127
V092511
p128
a(dp129
g5
F452.0
sg6
F-9.5
sg7
F450.0
sg8
F1.0
sg9
F450.0
saa(lp130
V092606
p131
a(dp132
g5
F452.0
sg6
F-9.5
sg7
F450.0
sg8
F1.0
sg9
F450.0
saa(lp133
V092636
p134
a(dp135
g5
F452.0
sg6
F-11.5
sg7
F448.5
sg8
F2.0
sg9
F448.0
saa(lp136
V092656
p137
a(dp138
g5
F452.0
sg6
F-11.5
sg7
F448.0
sg8
F1.0
sg9
F448.0
saa(lp139
V092817
p140
a(dp141
g5
F450.5
sg6
F-11.0
sg7
F448.5
sg8
F1.0
sg9
F448.5
saa(lp142
V093038
p143
a(dp144
g5
F450.5
sg6
F-11.5
sg7
F448.0
sg8
F1.0
sg9
F448.0
saa(lp145
V093253
p146
a(dp147
g5
F449.5
sg6
F-10.0
sg7
F448.5
sg8
F1.0
sg9
F449.5
saa(lp148
V093604
p149
a(dp150
g5
F452.5
sg6
F-9.5
sg7
F450.0
sg8
F1.0
sg9
F450.0
saa(lp151
V093654
p152
a(dp153
g5
F452.5
sg6
F-9.5
sg7
F451.0
sg8
F1.0
sg9
F450.0
saa(lp154
V093739
p155
a(dp156
g5
F452.5
sg6
F-7.0
sg7
F450.0
sg8
F1.0
sg9
F452.5
saa(lp157
V093809
p158
a(dp159
g5
F452.5
sg6
F-7.0
sg7
F450.0
sg8
F1.0
sg9
F452.5
saa(lp160
V093819
p161
a(dp162
g5
F452.5
sg6
F-7.0
sg7
F450.0
sg8
F1.0
sg9
F452.5
saa(lp163
V093824
p164
a(dp165
g5
F452.5
sg6
F-7.0
sg7
F450.0
sg8
F1.0
sg9
F452.5
saa(lp166
V093834
p167
a(dp168
g5
F454.0
sg6
F-5.5
sg7
F451.0
sg8
F1.0
sg9
F454.0
saa(lp169
V093839
p170
a(dp171
g5
F454.5
sg6
F-5.0
sg7
F451.0
sg8
F1.0
sg9
F454.5
saa(lp172
V093854
p173
a(dp174
g5
F454.5
sg6
F-5.0
sg7
F451.0
sg8
F1.0
sg9
F454.5
saa(lp175
V093930
p176
a(dp177
g5
F454.0
sg6
F-5.0
sg7
F451.0
sg8
F1.0
sg9
F454.5
saa(lp178
V094051
p179
a(dp180
g5
F454.0
sg6
F-5.5
sg7
F450.5
sg8
F1.0
sg9
F454.0
saa(lp181
V094146
p182
a(dp183
g5
F454.0
sg6
F-5.5
sg7
F451.5
sg8
F1.0
sg9
F454.0
saa(lp184
V094251
p185
a(dp186
g5
F454.0
sg6
F-5.5
sg7
F451.5
sg8
F1.0
sg9
F454.0
saa(lp187
V094747
p188
a(dp189
g5
F454.0
sg6
F-5.5
sg7
F453.0
sg8
F1.0
sg9
F454.0
saa(lp190
V094807
p191
a(dp192
g5
F454.5
sg6
F-5.0
sg7
F453.0
sg8
F2.0
sg9
F454.5
saa(lp193
V094822
p194
a(dp195
g5
F455.0
sg6
F-4.5
sg7
F453.0
sg8
F2.0
sg9
F455.0
saa(lp196
V094827
p197
a(dp198
g5
F455.0
sg6
F-4.5
sg7
F453.0
sg8
F2.0
sg9
F455.0
saa(lp199
V094832
p200
a(dp201
g5
F455.0
sg6
F-4.5
sg7
F453.0
sg8
F2.0
sg9
F455.0
saa(lp202
V094837
p203
a(dp204
g5
F456.0
sg6
F-3.5
sg7
F453.0
sg8
F3.0
sg9
F456.0
saa(lp205
V094852
p206
a(dp207
g5
F457.5
sg6
F-2.0
sg7
F453.0
sg8
F2.0
sg9
F457.5
saa(lp208
V094857
p209
a(dp210
g5
F457.5
sg6
F-2.0
sg7
F453.0
sg8
F1.0
sg9
F457.5
saa(lp211
V094902
p212
a(dp213
g5
F457.5
sg6
F-2.0
sg7
F454.0
sg8
F2.0
sg9
F457.5
saa(lp214
V094907
p215
a(dp216
g5
F458.0
sg6
F-2.0
sg7
F457.5
sg8
F1.0
sg9
F457.5
saa(lp217
V094912
p218
a(dp219
g5
F458.0
sg6
F-1.5
sg7
F457.5
sg8
F2.0
sg9
F458.0
saa(lp220
V094922
p221
a(dp222
g5
F458.0
sg6
F-1.5
sg7
F457.5
sg8
F3.0
sg9
F458.0
saa(lp223
V094932
p224
a(dp225
g5
F458.5
sg6
F-1.5
sg7
F456.0
sg8
F1.0
sg9
F458.0
saa(lp226
V094943
p227
a(dp228
g5
F458.5
sg6
F-1.0
sg7
F456.0
sg8
F1.0
sg9
F458.5
saa(lp229
V094953
p230
a(dp231
g5
F459.0
sg6
F-1.0
sg7
F456.0
sg8
F1.0
sg9
F458.5
saa(lp232
V095003
p233
a(dp234
g5
F458.0
sg6
F-3.5
sg7
F456.0
sg8
F1.0
sg9
F456.0
saa(lp235
V095148
p236
a(dp237
g5
F457.5
sg6
F-2.0
sg7
F455.0
sg8
F3.0
sg9
F457.5
saa(lp238
V095153
p239
a(dp240
g5
F457.5
sg6
F-2.0
sg7
F455.0
sg8
F1.0
sg9
F457.5
saa(lp241
V095228
p242
a(dp243
g5
F457.5
sg6
F-2.0
sg7
F456.0
sg8
F1.0
sg9
F457.5
saa(lp244
V095329
p245
a(dp246
g5
F457.5
sg6
F-3.5
sg7
F456.0
sg8
F2.0
sg9
F456.0
saa(lp247
V095334
p248
a(dp249
g5
F457.5
sg6
F-3.5
sg7
F456.0
sg8
F1.0
sg9
F456.0
saa(lp250
V095344
p251
a(dp252
g5
F457.5
sg6
F-2.0
sg7
F455.5
sg8
F1.0
sg9
F457.5
saa(lp253
V095404
p254
a(dp255
g5
F457.0
sg6
F-2.0
sg7
F456.0
sg8
F1.0
sg9
F457.5
saa(lp256
V100136
p257
a(dp258
g5
F457.0
sg6
F-2.5
sg7
F456.0
sg8
F1.0
sg9
F457.0
saa(lp259
V100401
p260
a(dp261
g5
F457.0
sg6
F-3.5
sg7
F456.0
sg8
F1.0
sg9
F456.0
saa(lp262
V100502
p263
a(dp264
g5
F457.0
sg6
F-3.5
sg7
F456.0
sg8
F1.0
sg9
F456.0
saa(lp265
V100507
p266
a(dp267
g5
F457.0
sg6
F-3.5
sg7
F456.0
sg8
F1.0
sg9
F456.0
saa(lp268
V100828
p269
a(dp270
g5
F456.0
sg6
F-4.0
sg7
F455.5
sg8
F1.0
sg9
F455.5
saa(lp271
V100833
p272
a(dp273
g5
F456.0
sg6
F-4.0
sg7
F455.5
sg8
F1.0
sg9
F455.5
saa(lp274
V100843
p275
a(dp276
g5
F456.0
sg6
F-4.5
sg7
F455.0
sg8
F1.0
sg9
F455.0
saa(lp277
V100848
p278
a(dp279
g5
F456.0
sg6
F-5.0
sg7
F454.5
sg8
F1.0
sg9
F454.5
saa(lp280
V101149
p281
a(dp282
g5
F455.5
sg6
F-5.5
sg7
F454.0
sg8
F1.0
sg9
F454.0
saa(lp283
V101520
p284
a(dp285
g5
F455.5
sg6
F-5.5
sg7
F454.0
sg8
F1.0
sg9
F454.0
saa(lp286
V101545
p287
a(dp288
g5
F455.5
sg6
F-5.5
sg7
F454.0
sg8
F1.0
sg9
F454.0
saa(lp289
V101715
p290
a(dp291
g5
F455.5
sg6
F-5.5
sg7
F454.0
sg8
F1.0
sg9
F454.0
saa(lp292
V102222
p293
a(dp294
g5
F454.0
sg6
F-5.5
sg7
F453.5
sg8
F2.0
sg9
F454.0
saa(lp295
V104834
p296
a(dp297
g5
F455.5
sg6
F-4.0
sg7
F454.5
sg8
F1.0
sg9
F455.5
saa(lp298
V104939
p299
a(dp300
g5
F456.0
sg6
F-3.5
sg7
F455.5
sg8
F1.0
sg9
F456.0
saa(lp301
V105135
p302
a(dp303
g5
F457.0
sg6
F-2.5
sg7
F454.5
sg8
F3.0
sg9
F457.0
saa(lp304
V105330
p305
a(dp306
g5
F457.0
sg6
F-2.5
sg7
F454.5
sg8
F1.0
sg9
F457.0
saa(lp307
V110043
p308
a(dp309
g5
F457.0
sg6
F-2.5
sg7
F455.0
sg8
F1.0
sg9
F457.0
saa(lp310
V110644
p311
a(dp312
g5
F456.0
sg6
F-4.5
sg7
F455.0
sg8
F1.0
sg9
F455.0
saa(lp313
V110659
p314
a(dp315
g5
F456.0
sg6
F-5.0
sg7
F454.5
sg8
F1.0
sg9
F454.5
saa(lp316
V110754
p317
a(dp318
g5
F455.0
sg6
F-5.0
sg7
F454.5
sg8
F1.0
sg9
F454.5
saa(lp319
V110809
p320
a(dp321
g5
F455.0
sg6
F-5.0
sg7
F454.5
sg8
F1.0
sg9
F454.5
saa(lp322
V111757
p323
a(dp324
g5
F455.0
sg6
F-5.5
sg7
F454.0
sg8
F1.0
sg9
F454.0
saa(lp325
V111958
p326
a(dp327
g5
F455.0
sg6
F-5.5
sg7
F454.0
sg8
F1.0
sg9
F454.0
saa(lp328
V112033
p329
a(dp330
g5
F455.0
sg6
F-5.5
sg7
F454.0
sg8
F1.0
sg9
F454.0
saa(lp331
V112053
p332
a(dp333
g5
F454.5
sg6
F-5.5
sg7
F454.0
sg8
F1.0
sg9
F454.0
saa(lp334
V112344
p335
a(dp336
g5
F454.0
sg6
F-6.0
sg7
F453.5
sg8
F1.0
sg9
F453.5
saa(lp337
V112444
p338
a(dp339
g5
F454.0
sg6
F-6.0
sg7
F453.5
sg8
F1.0
sg9
F453.5
saa(lp340
V112449
p341
a(dp342
g5
F454.0
sg6
F-6.0
sg7
F453.5
sg8
F1.0
sg9
F453.5
saa(lp343
V112509
p344
a(dp345
g5
F454.0
sg6
F-5.5
sg7
F453.0
sg8
F2.0
sg9
F454.0
saa(lp346
V112910
p347
a(dp348
g5
F454.5
sg6
F-5.0
sg7
F454.0
sg8
F1.0
sg9
F454.5
saa(lp349
V113602
p350
a(dp351
g5
F456.0
sg6
F-5.5
sg7
F454.0
sg8
F1.0
sg9
F454.0
saa(lp352
V113718
p353
a(dp354
g5
F456.0
sg6
F-5.5
sg7
F454.0
sg8
F1.0
sg9
F454.0
saa(lp355
V114044
p356
a(dp357
g5
F455.5
sg6
F-5.5
sg7
F454.0
sg8
F1.0
sg9
F454.0
saa(lp358
V114425
p359
a(dp360
g5
F454.0
sg6
F-6.0
sg7
F453.5
sg8
F1.0
sg9
F453.5
saa(lp361
V114510
p362
a(dp363
g5
F454.0
sg6
F-6.0
sg7
F453.5
sg8
F1.0
sg9
F453.5
saa(lp364
V114515
p365
a(dp366
g5
F454.0
sg6
F-6.5
sg7
F453.0
sg8
F1.0
sg9
F453.0
saa(lp367
V114730
p368
a(dp369
g5
F454.0
sg6
F-6.5
sg7
F453.0
sg8
F1.0
sg9
F453.0
saa(lp370
V114836
p371
a(dp372
g5
F453.5
sg6
F-6.0
sg7
F453.0
sg8
F1.0
sg9
F453.5
saa(lp373
V115743
p374
a(dp375
g5
F454.0
sg6
F-6.5
sg7
F453.0
sg8
F1.0
sg9
F453.0
saa(lp376
V115843
p377
a(dp378
g5
F453.0
sg6
F-7.0
sg7
F452.5
sg8
F1.0
sg9
F452.5
saa(lp379
V115859
p380
a(dp381
g5
F452.5
sg6
F-7.5
sg7
F452.0
sg8
F2.0
sg9
F452.0
saa(lp382
V120009
p383
a(dp384
g5
F452.5
sg6
F-7.0
sg7
F452.0
sg8
F1.0
sg9
F452.5
saa(lp385
V120110
p386
a(dp387
g5
F452.5
sg6
F-7.0
sg7
F452.0
sg8
F1.0
sg9
F452.5
saa(lp388
V120726
p389
a(dp390
g5
F453.0
sg6
F-7.0
sg7
F452.5
sg8
F1.0
sg9
F452.5
saa(lp391
V122621
p392
a(dp393
g5
F454.5
sg6
F-7.0
sg7
F452.5
sg8
F1.0
sg9
F452.5
saa(lp394
V123228
p395
a(dp396
g5
F454.5
sg6
F-7.0
sg7
F453.0
sg8
F2.0
sg9
F452.5
saa(lp397
V123349
p398
a(dp399
g5
F454.5
sg6
F-4.5
sg7
F453.0
sg8
F3.0
sg9
F455.0
saa(lp400
V124131
p401
a(dp402
g5
F456.0
sg6
F-4.5
sg7
F455.0
sg8
F1.0
sg9
F455.0
saa(lp403
V124136
p404
a(dp405
g5
F456.0
sg6
F-5.5
sg7
F454.0
sg8
F2.0
sg9
F454.0
saa(lp406
V124306
p407
a(dp408
g5
F455.5
sg6
F-6.0
sg7
F453.5
sg8
F1.0
sg9
F453.5
saa(lp409
V124818
p410
a(dp411
g5
F455.5
sg6
F-5.5
sg7
F454.0
sg8
F1.0
sg9
F454.0
saa(lp412
V125219
p413
a(dp414
g5
F455.5
sg6
F-4.0
sg7
F455.0
sg8
F1.0
sg9
F455.5
saa(lp415
V125314
p416
a(dp417
g5
F456.0
sg6
F-4.5
sg7
F455.0
sg8
F1.0
sg9
F455.0
saa(lp418
V125529
p419
a(dp420
g5
F456.0
sg6
F-4.5
sg7
F455.0
sg8
F1.0
sg9
F455.0
saa(lp421
V130457
p422
a(dp423
g5
F455.5
sg6
F-4.0
sg7
F455.0
sg8
F1.0
sg9
F455.5
saa(lp424
V130532
p425
a(dp426
g5
F456.0
sg6
F-3.5
sg7
F455.5
sg8
F1.0
sg9
F456.0
saa(lp427
V130552
p428
a(dp429
g5
F456.0
sg6
F-3.5
sg7
F455.5
sg8
F1.0
sg9
F456.0
saa(lp430
V130713
p431
a(dp432
g5
F456.0
sg6
F-3.5
sg7
F455.5
sg8
F1.0
sg9
F456.0
saa(lp433
V130903
p434
a(dp435
g5
F457.0
sg6
F-2.5
sg7
F455.5
sg8
F4.0
sg9
F457.0
saa(lp436
V130933
p437
a(dp438
g5
F458.0
sg6
F-1.5
sg7
F457.0
sg8
F1.0
sg9
F458.0
saa(lp439
V130949
p440
a(dp441
g5
F458.0
sg6
F-1.5
sg7
F457.0
sg8
F1.0
sg9
F458.0
saa(lp442
V131239
p443
a(dp444
g5
F458.0
sg6
F-1.5
sg7
F457.0
sg8
F2.0
sg9
F458.0
saa(lp445
V131259
p446
a(dp447
g5
F459.0
sg6
F-0.5
sg7
F458.0
sg8
F2.0
sg9
F459.0
saa(lp448
V131309
p449
a(dp450
g5
F459.0
sg6
F-0.5
sg7
F458.0
sg8
F1.0
sg9
F459.0
saa(lp451
V131419
p452
a(dp453
g5
F460.0
sg6
F0.5
sg7
F459.0
sg8
F1.0
sg9
F460.0
saa(lp454
V131440
p455
a(dp456
g5
F460.0
sg6
F0.5
sg7
F459.0
sg8
F1.0
sg9
F460.0
saa(lp457
V131640
p458
a(dp459
g5
F459.5
sg6
F0.0
sg7
F459.0
sg8
F1.0
sg9
F459.5
saa(lp460
V131645
p461
a(dp462
g5
F460.0
sg6
F0.0
sg7
F459.5
sg8
F3.0
sg9
F459.5
saa(lp463
V131650
p464
a(dp465
g5
F460.0
sg6
F0.5
sg7
F459.5
sg8
F3.0
sg9
F460.0
saa(lp466
V131700
p467
a(dp468
g5
F460.0
sg6
F0.5
sg7
F459.5
sg8
F1.0
sg9
F460.0
saa(lp469
V131705
p470
a(dp471
g5
F460.0
sg6
F0.5
sg7
F459.5
sg8
F1.0
sg9
F460.0
saa(lp472
V131710
p473
a(dp474
g5
F460.0
sg6
F0.5
sg7
F459.5
sg8
F2.0
sg9
F460.0
saa(lp475
V131805
p476
a(dp477
g5
F460.0
sg6
F0.5
sg7
F459.5
sg8
F1.0
sg9
F460.0
saa(lp478
V131957
p479
a(dp480
g5
F460.0
sg6
F0.5
sg7
F459.5
sg8
F1.0
sg9
F460.0
saa(lp481
V132012
p482
a(dp483
g5
F460.0
sg6
F1.0
sg7
F459.5
sg8
F2.0
sg9
F460.5
saa(lp484
V132017
p485
a(dp486
g5
F460.5
sg6
F1.0
sg7
F459.5
sg8
F2.0
sg9
F460.5
saa(lp487
V132027
p488
a(dp489
g5
F460.5
sg6
F1.0
sg7
F459.5
sg8
F1.0
sg9
F460.5
saa(lp490
V132042
p491
a(dp492
g5
F460.5
sg6
F1.0
sg7
F459.5
sg8
F1.0
sg9
F460.5
saa(lp493
V132217
p494
a(dp495
g5
F460.5
sg6
F1.0
sg7
F460.0
sg8
F1.0
sg9
F460.5
saa(lp496
V132222
p497
a(dp498
g5
F461.0
sg6
F1.5
sg7
F460.0
sg8
F5.0
sg9
F461.0
saa(lp499
V132227
p500
a(dp501
g5
F461.5
sg6
F2.0
sg7
F460.0
sg8
F2.0
sg9
F461.5
saa(lp502
V132307
p503
a(dp504
g5
F461.5
sg6
F2.0
sg7
F460.5
sg8
F1.0
sg9
F461.5
saa(lp505
V132312
p506
a(dp507
g5
F461.5
sg6
F2.0
sg7
F460.5
sg8
F4.0
sg9
F461.5
saa(lp508
V132317
p509
a(dp510
g5
F462.0
sg6
F2.5
sg7
F460.5
sg8
F1.0
sg9
F462.0
saa(lp511
V132322
p512
a(dp513
g5
F462.0
sg6
F2.5
sg7
F460.5
sg8
F4.0
sg9
F462.0
saa(lp514
V132327
p515
a(dp516
g5
F462.5
sg6
F3.0
sg7
F462.0
sg8
F1.0
sg9
F462.5
saa(lp517
V132332
p518
a(dp519
g5
F463.0
sg6
F2.5
sg7
F462.0
sg8
F1.0
sg9
F462.0
saa(lp520
V132342
p521
a(dp522
g5
F463.0
sg6
F3.5
sg7
F462.0
sg8
F7.0
sg9
F463.0
saa(lp523
V132347
p524
a(dp525
g5
F463.5
sg6
F4.0
sg7
F463.0
sg8
F2.0
sg9
F463.5
saa(lp526
V132352
p527
a(dp528
g5
F463.5
sg6
F4.0
sg7
F463.0
sg8
F1.0
sg9
F463.5
saa(lp529
V132357
p530
a(dp531
g5
F464.0
sg6
F4.5
sg7
F463.5
sg8
F2.0
sg9
F464.0
saa(lp532
V132407
p533
a(dp534
g5
F464.5
sg6
F5.0
sg7
F464.0
sg8
F1.0
sg9
F464.5
saa(lp535
V132412
p536
a(dp537
g5
F465.0
sg6
F5.5
sg7
F464.5
sg8
F2.0
sg9
F465.0
saa(lp538
V132417
p539
a(dp540
g5
F465.0
sg6
F5.5
sg7
F464.0
sg8
F8.0
sg9
F465.0
saa(lp541
V132422
p542
a(dp543
g5
F465.0
sg6
F5.5
sg7
F464.0
sg8
F1.0
sg9
F465.0
saa(lp544
V132427
p545
a(dp546
g5
F465.0
sg6
F5.5
sg7
F464.0
sg8
F1.0
sg9
F465.0
saa(lp547
V132432
p548
a(dp549
g5
F466.0
sg6
F6.5
sg7
F463.5
sg8
F3.0
sg9
F466.0
saa(lp550
V132437
p551
a(dp552
g5
F467.0
sg6
F6.5
sg7
F466.0
sg8
F1.0
sg9
F466.0
saa(lp553
V132442
p554
a(dp555
g5
F467.0
sg6
F4.0
sg7
F466.0
sg8
F1.0
sg9
F463.5
saa(lp556
V132447
p557
a(dp558
g5
F467.0
sg6
F7.5
sg7
F463.0
sg8
F2.0
sg9
F467.0
saa(lp559
V132457
p560
a(dp561
g5
F467.5
sg6
F12.5
sg7
F464.0
sg8
F6.0
sg9
F472.0
saa(lp562
V133000
p563
a(dp564
g5
F465.0
sg6
F4.5
sg7
F464.0
sg8
F43.0
sg9
F464.0
saatp565
Rp566
.