ccollections
OrderedDict
p0
((lp1
(lp2
V090030
p3
a(dp4
S'sell'
p5
F358.0
sS'diff'
p6
F-3.0
sS'buy'
p7
F357.0
sS'count'
p8
F1.0
sS'deal'
p9
F356.0
saa(lp10
V090105
p11
a(dp12
g5
F357.5
sg6
F-3.0
sg7
F356.0
sg8
F1.0
sg9
F356.0
saa(lp13
V090111
p14
a(dp15
g5
F357.5
sg6
F-1.5
sg7
F356.0
sg8
F1.0
sg9
F357.5
saa(lp16
V090202
p17
a(dp18
g5
F357.0
sg6
F-2.0
sg7
F356.0
sg8
F1.0
sg9
F357.0
saa(lp19
V090228
p20
a(dp21
g5
F357.0
sg6
F-2.0
sg7
F356.5
sg8
F1.0
sg9
F357.0
saa(lp22
V090253
p23
a(dp24
g5
F357.0
sg6
F-2.0
sg7
F356.5
sg8
F1.0
sg9
F357.0
saa(lp25
V090258
p26
a(dp27
g5
F357.0
sg6
F-2.0
sg7
F356.5
sg8
F1.0
sg9
F357.0
saa(lp28
V090329
p29
a(dp30
g5
F357.0
sg6
F-2.0
sg7
F356.5
sg8
F1.0
sg9
F357.0
saa(lp31
V090334
p32
a(dp33
g5
F357.0
sg6
F-2.0
sg7
F356.5
sg8
F1.0
sg9
F357.0
saa(lp34
V090425
p35
a(dp36
g5
F358.0
sg6
F-2.5
sg7
F356.5
sg8
F1.0
sg9
F356.5
saa(lp37
V090436
p38
a(dp39
g5
F358.0
sg6
F-2.5
sg7
F356.5
sg8
F1.0
sg9
F356.5
saa(lp40
V090516
p41
a(dp42
g5
F356.5
sg6
F-2.5
sg7
F356.0
sg8
F1.0
sg9
F356.5
saa(lp43
V090659
p44
a(dp45
g5
F358.0
sg6
F-2.5
sg7
F357.0
sg8
F1.0
sg9
F356.5
saa(lp46
V090719
p47
a(dp48
g5
F357.0
sg6
F-2.5
sg7
F356.5
sg8
F1.0
sg9
F356.5
saa(lp49
V090816
p50
a(dp51
g5
F357.0
sg6
F-2.5
sg7
F356.5
sg8
F1.0
sg9
F356.5
saa(lp52
V090958
p53
a(dp54
g5
F357.0
sg6
F-3.0
sg7
F356.0
sg8
F1.0
sg9
F356.0
saa(lp55
V091009
p56
a(dp57
g5
F357.0
sg6
F-3.0
sg7
F356.0
sg8
F1.0
sg9
F356.0
saa(lp58
V091014
p59
a(dp60
g5
F357.0
sg6
F-3.0
sg7
F356.0
sg8
F1.0
sg9
F356.0
saa(lp61
V091019
p62
a(dp63
g5
F357.0
sg6
F-3.0
sg7
F356.0
sg8
F1.0
sg9
F356.0
saa(lp64
V091024
p65
a(dp66
g5
F356.0
sg6
F-3.5
sg7
F355.5
sg8
F1.0
sg9
F355.5
saa(lp67
V091115
p68
a(dp69
g5
F358.5
sg6
F-5.0
sg7
F354.0
sg8
F1.0
sg9
F354.0
saa(lp70
V091146
p71
a(dp72
g5
F358.5
sg6
F-5.0
sg7
F354.0
sg8
F1.0
sg9
F354.0
saa(lp73
V091243
p74
a(dp75
g5
F356.5
sg6
F-5.0
sg7
F354.0
sg8
F1.0
sg9
F354.0
saa(lp76
V091344
p77
a(dp78
g5
F356.0
sg6
F-5.0
sg7
F354.0
sg8
F4.0
sg9
F354.0
saa(lp79
V091349
p80
a(dp81
g5
F354.0
sg6
F-5.5
sg7
F353.5
sg8
F2.0
sg9
F353.5
saa(lp82
V091354
p83
a(dp84
g5
F354.0
sg6
F-5.0
sg7
F353.5
sg8
F1.0
sg9
F354.0
saa(lp85
V091415
p86
a(dp87
g5
F356.0
sg6
F-5.5
sg7
F354.0
sg8
F2.0
sg9
F353.5
saa(lp88
V091430
p89
a(dp90
g5
F356.0
sg6
F-5.5
sg7
F353.5
sg8
F1.0
sg9
F353.5
saa(lp91
V091435
p92
a(dp93
g5
F356.0
sg6
F-5.5
sg7
F353.5
sg8
F2.0
sg9
F353.5
saa(lp94
V091456
p95
a(dp96
g5
F353.5
sg6
F-6.0
sg7
F353.0
sg8
F1.0
sg9
F353.0
saa(lp97
V091506
p98
a(dp99
g5
F353.5
sg6
F-5.5
sg7
F353.0
sg8
F1.0
sg9
F353.5
saa(lp100
V091618
p101
a(dp102
g5
F355.0
sg6
F-6.0
sg7
F353.0
sg8
F1.0
sg9
F353.0
saa(lp103
V091628
p104
a(dp105
g5
F355.0
sg6
F-4.0
sg7
F353.0
sg8
F2.0
sg9
F355.0
saa(lp106
V091841
p107
a(dp108
g5
F356.0
sg6
F-4.0
sg7
F355.5
sg8
F5.0
sg9
F355.0
saa(lp109
V091932
p110
a(dp111
g5
F356.0
sg6
F-4.0
sg7
F355.0
sg8
F2.0
sg9
F355.0
saa(lp112
V091948
p113
a(dp114
g5
F356.0
sg6
F-3.5
sg7
F355.5
sg8
F1.0
sg9
F355.5
saa(lp115
V092115
p116
a(dp117
g5
F355.5
sg6
F-3.5
sg7
F353.5
sg8
F1.0
sg9
F355.5
saa(lp118
V092744
p119
a(dp120
g5
F355.5
sg6
F-5.5
sg7
F353.5
sg8
F1.0
sg9
F353.5
saa(lp121
V092805
p122
a(dp123
g5
F355.5
sg6
F-6.0
sg7
F353.0
sg8
F4.0
sg9
F353.0
saa(lp124
V092835
p125
a(dp126
g5
F355.5
sg6
F-6.0
sg7
F353.0
sg8
F1.0
sg9
F353.0
saa(lp127
V092937
p128
a(dp129
g5
F354.5
sg6
F-6.0
sg7
F353.0
sg8
F1.0
sg9
F353.0
saa(lp130
V093257
p131
a(dp132
g5
F354.5
sg6
F-6.0
sg7
F353.0
sg8
F1.0
sg9
F353.0
saa(lp133
V093312
p134
a(dp135
g5
F354.5
sg6
F-6.0
sg7
F353.0
sg8
F1.0
sg9
F353.0
saa(lp136
V093455
p137
a(dp138
g5
F354.5
sg6
F-4.5
sg7
F353.0
sg8
F1.0
sg9
F354.5
saa(lp139
V094053
p140
a(dp141
g5
F354.5
sg6
F-4.5
sg7
F354.0
sg8
F1.0
sg9
F354.5
saa(lp142
V094058
p143
a(dp144
g5
F354.5
sg6
F-5.0
sg7
F354.0
sg8
F1.0
sg9
F354.0
saa(lp145
V094144
p146
a(dp147
g5
F354.5
sg6
F-5.0
sg7
F354.0
sg8
F1.0
sg9
F354.0
saa(lp148
V094155
p149
a(dp150
g5
F354.5
sg6
F-6.0
sg7
F353.0
sg8
F2.0
sg9
F353.0
saa(lp151
V094200
p152
a(dp153
g5
F354.5
sg6
F-6.0
sg7
F353.0
sg8
F2.0
sg9
F353.0
saa(lp154
V094246
p155
a(dp156
g5
F353.0
sg6
F-6.0
sg7
F352.0
sg8
F1.0
sg9
F353.0
saa(lp157
V095301
p158
a(dp159
g5
F354.5
sg6
F-6.0
sg7
F353.0
sg8
F1.0
sg9
F353.0
saa(lp160
V095433
p161
a(dp162
g5
F354.5
sg6
F-6.0
sg7
F353.0
sg8
F1.0
sg9
F353.0
saa(lp163
V095656
p164
a(dp165
g5
F354.5
sg6
F-6.0
sg7
F353.0
sg8
F3.0
sg9
F353.0
saa(lp166
V100605
p167
a(dp168
g5
F354.0
sg6
F-5.0
sg7
F353.0
sg8
F1.0
sg9
F354.0
saa(lp169
V100838
p170
a(dp171
g5
F354.5
sg6
F-4.5
sg7
F353.5
sg8
F1.0
sg9
F354.5
saa(lp172
V101041
p173
a(dp174
g5
F354.5
sg6
F-4.5
sg7
F353.0
sg8
F1.0
sg9
F354.5
saa(lp175
V101204
p176
a(dp177
g5
F354.5
sg6
F-4.5
sg7
F353.5
sg8
F1.0
sg9
F354.5
saa(lp178
V101250
p179
a(dp180
g5
F354.5
sg6
F-4.5
sg7
F354.0
sg8
F1.0
sg9
F354.5
saa(lp181
V101255
p182
a(dp183
g5
F355.0
sg6
F-4.0
sg7
F354.0
sg8
F1.0
sg9
F355.0
saa(lp184
V101305
p185
a(dp186
g5
F355.0
sg6
F-4.0
sg7
F354.5
sg8
F1.0
sg9
F355.0
saa(lp187
V101716
p188
a(dp189
g5
F355.5
sg6
F-3.0
sg7
F355.0
sg8
F5.0
sg9
F356.0
saa(lp190
V101721
p191
a(dp192
g5
F356.5
sg6
F-2.5
sg7
F356.0
sg8
F1.0
sg9
F356.5
saa(lp193
V101726
p194
a(dp195
g5
F357.0
sg6
F-2.0
sg7
F356.5
sg8
F1.0
sg9
F357.0
saa(lp196
V101817
p197
a(dp198
g5
F357.0
sg6
F-2.0
sg7
F356.5
sg8
F1.0
sg9
F357.0
saa(lp199
V101822
p200
a(dp201
g5
F357.0
sg6
F-2.0
sg7
F356.5
sg8
F1.0
sg9
F357.0
saa(lp202
V101838
p203
a(dp204
g5
F357.5
sg6
F-1.5
sg7
F356.5
sg8
F1.0
sg9
F357.5
saa(lp205
V101903
p206
a(dp207
g5
F358.0
sg6
F-1.0
sg7
F356.5
sg8
F2.0
sg9
F358.0
saa(lp208
V101914
p209
a(dp210
g5
F358.0
sg6
F-1.0
sg7
F356.5
sg8
F2.0
sg9
F358.0
saa(lp211
V101944
p212
a(dp213
g5
F357.5
sg6
F-1.5
sg7
F357.0
sg8
F3.0
sg9
F357.5
saa(lp214
V101955
p215
a(dp216
g5
F358.0
sg6
F-1.0
sg7
F357.5
sg8
F2.0
sg9
F358.0
saa(lp217
V102056
p218
a(dp219
g5
F359.0
sg6
F-1.0
sg7
F358.0
sg8
F1.0
sg9
F358.0
saa(lp220
V102112
p221
a(dp222
g5
F359.0
sg6
F0.0
sg7
F358.0
sg8
F1.0
sg9
F359.0
saa(lp223
V102142
p224
a(dp225
g5
F360.0
sg6
F0.0
sg7
F359.0
sg8
F1.0
sg9
F359.0
saa(lp226
V102249
p227
a(dp228
g5
F360.0
sg6
F0.0
sg7
F359.0
sg8
F1.0
sg9
F359.0
saa(lp229
V102421
p230
a(dp231
g5
F360.0
sg6
F1.0
sg7
F359.5
sg8
F4.0
sg9
F360.0
saa(lp232
V102447
p233
a(dp234
g5
F361.0
sg6
F2.0
sg7
F359.5
sg8
F1.0
sg9
F361.0
saa(lp235
V102457
p236
a(dp237
g5
F361.0
sg6
F2.0
sg7
F360.0
sg8
F1.0
sg9
F361.0
saa(lp238
V102507
p239
a(dp240
g5
F361.0
sg6
F2.0
sg7
F360.0
sg8
F2.0
sg9
F361.0
saa(lp241
V102523
p242
a(dp243
g5
F361.0
sg6
F2.0
sg7
F360.0
sg8
F1.0
sg9
F361.0
saa(lp244
V102528
p245
a(dp246
g5
F362.0
sg6
F3.0
sg7
F360.0
sg8
F1.0
sg9
F362.0
saa(lp247
V102543
p248
a(dp249
g5
F362.0
sg6
F3.0
sg7
F360.0
sg8
F1.0
sg9
F362.0
saa(lp250
V102558
p251
a(dp252
g5
F362.0
sg6
F3.0
sg7
F360.0
sg8
F1.0
sg9
F362.0
saa(lp253
V102614
p254
a(dp255
g5
F362.0
sg6
F3.0
sg7
F360.0
sg8
F4.0
sg9
F362.0
saa(lp256
V102619
p257
a(dp258
g5
F362.0
sg6
F3.0
sg7
F360.0
sg8
F2.0
sg9
F362.0
saa(lp259
V102624
p260
a(dp261
g5
F362.0
sg6
F3.0
sg7
F360.0
sg8
F2.0
sg9
F362.0
saa(lp262
V102629
p263
a(dp264
g5
F362.0
sg6
F3.0
sg7
F360.0
sg8
F1.0
sg9
F362.0
saa(lp265
V102644
p266
a(dp267
g5
F361.0
sg6
F2.0
sg7
F360.0
sg8
F1.0
sg9
F361.0
saa(lp268
V102700
p269
a(dp270
g5
F362.0
sg6
F3.0
sg7
F361.0
sg8
F1.0
sg9
F362.0
saa(lp271
V102710
p272
a(dp273
g5
F362.5
sg6
F2.0
sg7
F361.0
sg8
F1.0
sg9
F361.0
saa(lp274
V103014
p275
a(dp276
g5
F362.0
sg6
F2.0
sg7
F361.0
sg8
F1.0
sg9
F361.0
saa(lp277
V103111
p278
a(dp279
g5
F361.5
sg6
F3.0
sg7
F361.0
sg8
F2.0
sg9
F362.0
saa(lp280
V103126
p281
a(dp282
g5
F362.0
sg6
F3.0
sg7
F361.0
sg8
F2.0
sg9
F362.0
saa(lp283
V103202
p284
a(dp285
g5
F362.5
sg6
F3.0
sg7
F362.0
sg8
F1.0
sg9
F362.0
saa(lp286
V103212
p287
a(dp288
g5
F362.0
sg6
F3.0
sg7
F361.0
sg8
F1.0
sg9
F362.0
saa(lp289
V103233
p290
a(dp291
g5
F362.5
sg6
F3.0
sg7
F362.0
sg8
F1.0
sg9
F362.0
saa(lp292
V103410
p293
a(dp294
g5
F362.5
sg6
F3.5
sg7
F361.0
sg8
F1.0
sg9
F362.5
saa(lp295
V103430
p296
a(dp297
g5
F362.0
sg6
F2.0
sg7
F361.0
sg8
F1.0
sg9
F361.0
saa(lp298
V103436
p299
a(dp300
g5
F362.0
sg6
F2.0
sg7
F361.0
sg8
F1.0
sg9
F361.0
saa(lp301
V103446
p302
a(dp303
g5
F362.0
sg6
F2.0
sg7
F361.0
sg8
F2.0
sg9
F361.0
saa(lp304
V103451
p305
a(dp306
g5
F362.0
sg6
F2.0
sg7
F361.0
sg8
F2.0
sg9
F361.0
saa(lp307
V103501
p308
a(dp309
g5
F362.0
sg6
F2.0
sg7
F361.0
sg8
F4.0
sg9
F361.0
saa(lp310
V103506
p311
a(dp312
g5
F362.0
sg6
F1.0
sg7
F361.0
sg8
F5.0
sg9
F360.0
saa(lp313
V103511
p314
a(dp315
g5
F361.0
sg6
F2.0
sg7
F360.0
sg8
F1.0
sg9
F361.0
saa(lp316
V103709
p317
a(dp318
g5
F361.0
sg6
F1.0
sg7
F360.0
sg8
F1.0
sg9
F360.0
saa(lp319
V103730
p320
a(dp321
g5
F361.0
sg6
F2.0
sg7
F360.0
sg8
F1.0
sg9
F361.0
saa(lp322
V103959
p323
a(dp324
g5
F361.0
sg6
F2.0
sg7
F360.0
sg8
F1.0
sg9
F361.0
saa(lp325
V104217
p326
a(dp327
g5
F361.0
sg6
F1.0
sg7
F360.0
sg8
F1.0
sg9
F360.0
saa(lp328
V104222
p329
a(dp330
g5
F361.0
sg6
F1.0
sg7
F360.0
sg8
F3.0
sg9
F360.0
saa(lp331
V104233
p332
a(dp333
g5
F360.0
sg6
F0.5
sg7
F359.5
sg8
F1.0
sg9
F359.5
saa(lp334
V104243
p335
a(dp336
g5
F360.0
sg6
F0.0
sg7
F359.0
sg8
F4.0
sg9
F359.0
saa(lp337
V104258
p338
a(dp339
g5
F360.0
sg6
F0.0
sg7
F359.0
sg8
F1.0
sg9
F359.0
saa(lp340
V104314
p341
a(dp342
g5
F360.0
sg6
F0.0
sg7
F359.0
sg8
F2.0
sg9
F359.0
saa(lp343
V104334
p344
a(dp345
g5
F360.0
sg6
F0.0
sg7
F359.0
sg8
F1.0
sg9
F359.0
saa(lp346
V104355
p347
a(dp348
g5
F360.0
sg6
F1.0
sg7
F358.0
sg8
F1.0
sg9
F360.0
saa(lp349
V104552
p350
a(dp351
g5
F360.0
sg6
F-1.0
sg7
F358.0
sg8
F1.0
sg9
F358.0
saa(lp352
V104628
p353
a(dp354
g5
F360.0
sg6
F-1.0
sg7
F358.0
sg8
F1.0
sg9
F358.0
saa(lp355
V104918
p356
a(dp357
g5
F360.0
sg6
F-1.0
sg7
F358.0
sg8
F1.0
sg9
F358.0
saa(lp358
V104933
p359
a(dp360
g5
F360.0
sg6
F-1.0
sg7
F358.0
sg8
F1.0
sg9
F358.0
saa(lp361
V105014
p362
a(dp363
g5
F360.0
sg6
F1.0
sg7
F358.0
sg8
F2.0
sg9
F360.0
saa(lp364
V105425
p365
a(dp366
g5
F360.0
sg6
F0.5
sg7
F359.5
sg8
F1.0
sg9
F359.5
saa(lp367
V105521
p368
a(dp369
g5
F360.0
sg6
F0.5
sg7
F359.5
sg8
F1.0
sg9
F359.5
saa(lp370
V105638
p371
a(dp372
g5
F360.0
sg6
F1.0
sg7
F359.5
sg8
F1.0
sg9
F360.0
saa(lp373
V105704
p374
a(dp375
g5
F360.0
sg6
F1.0
sg7
F359.5
sg8
F1.0
sg9
F360.0
saa(lp376
V105724
p377
a(dp378
g5
F361.0
sg6
F1.0
sg7
F360.0
sg8
F1.0
sg9
F360.0
saa(lp379
V105917
p380
a(dp381
g5
F360.0
sg6
F1.0
sg7
F359.5
sg8
F1.0
sg9
F360.0
saa(lp382
V110049
p383
a(dp384
g5
F360.0
sg6
F0.5
sg7
F359.5
sg8
F1.0
sg9
F359.5
saa(lp385
V110206
p386
a(dp387
g5
F360.0
sg6
F0.0
sg7
F359.0
sg8
F1.0
sg9
F359.0
saa(lp388
V110232
p389
a(dp390
g5
F359.5
sg6
F0.0
sg7
F359.0
sg8
F1.0
sg9
F359.0
saa(lp391
V110247
p392
a(dp393
g5
F359.5
sg6
F0.0
sg7
F359.0
sg8
F1.0
sg9
F359.0
saa(lp394
V110258
p395
a(dp396
g5
F359.0
sg6
F0.0
sg7
F358.0
sg8
F1.0
sg9
F359.0
saa(lp397
V110724
p398
a(dp399
g5
F359.0
sg6
F0.0
sg7
F358.0
sg8
F2.0
sg9
F359.0
saa(lp400
V110841
p401
a(dp402
g5
F359.5
sg6
F-1.0
sg7
F358.0
sg8
F1.0
sg9
F358.0
saa(lp403
V110922
p404
a(dp405
g5
F359.5
sg6
F1.0
sg7
F358.0
sg8
F2.0
sg9
F360.0
saa(lp406
V111023
p407
a(dp408
g5
F360.0
sg6
F-1.0
sg7
F358.0
sg8
F1.0
sg9
F358.0
saa(lp409
V111257
p410
a(dp411
g5
F359.0
sg6
F-1.0
sg7
F358.0
sg8
F1.0
sg9
F358.0
saa(lp412
V111312
p413
a(dp414
g5
F359.0
sg6
F-1.0
sg7
F358.0
sg8
F1.0
sg9
F358.0
saa(lp415
V111409
p416
a(dp417
g5
F358.0
sg6
F-1.0
sg7
F357.0
sg8
F1.0
sg9
F358.0
saa(lp418
V111510
p419
a(dp420
g5
F359.0
sg6
F0.0
sg7
F358.5
sg8
F1.0
sg9
F359.0
saa(lp421
V111541
p422
a(dp423
g5
F360.0
sg6
F1.0
sg7
F358.5
sg8
F1.0
sg9
F360.0
saa(lp424
V111916
p425
a(dp426
g5
F359.0
sg6
F0.0
sg7
F358.5
sg8
F1.0
sg9
F359.0
saa(lp427
V112205
p428
a(dp429
g5
F360.0
sg6
F1.0
sg7
F359.0
sg8
F1.0
sg9
F360.0
saa(lp430
V112327
p431
a(dp432
g5
F360.0
sg6
F1.0
sg7
F359.0
sg8
F1.0
sg9
F360.0
saa(lp433
V112515
p434
a(dp435
g5
F360.0
sg6
F1.0
sg7
F359.0
sg8
F7.0
sg9
F360.0
saa(lp436
V112525
p437
a(dp438
g5
F360.5
sg6
F1.5
sg7
F360.0
sg8
F1.0
sg9
F360.5
saa(lp439
V112829
p440
a(dp441
g5
F361.0
sg6
F2.0
sg7
F360.0
sg8
F2.0
sg9
F361.0
saa(lp442
V113002
p443
a(dp444
g5
F360.5
sg6
F1.5
sg7
F360.0
sg8
F1.0
sg9
F360.5
saa(lp445
V113144
p446
a(dp447
g5
F361.0
sg6
F1.5
sg7
F360.5
sg8
F1.0
sg9
F360.5
saa(lp448
V113205
p449
a(dp450
g5
F361.0
sg6
F1.5
sg7
F360.5
sg8
F1.0
sg9
F360.5
saa(lp451
V113449
p452
a(dp453
g5
F361.0
sg6
F2.0
sg7
F360.0
sg8
F1.0
sg9
F361.0
saa(lp454
V113601
p455
a(dp456
g5
F361.0
sg6
F1.5
sg7
F360.5
sg8
F1.0
sg9
F360.5
saa(lp457
V113956
p458
a(dp459
g5
F360.5
sg6
F1.0
sg7
F360.0
sg8
F1.0
sg9
F360.0
saa(lp460
V114032
p461
a(dp462
g5
F360.5
sg6
F1.0
sg7
F360.0
sg8
F1.0
sg9
F360.0
saa(lp463
V114113
p464
a(dp465
g5
F360.0
sg6
F1.0
sg7
F359.0
sg8
F1.0
sg9
F360.0
saa(lp466
V114733
p467
a(dp468
g5
F360.0
sg6
F1.0
sg7
F359.0
sg8
F3.0
sg9
F360.0
saa(lp469
V115225
p470
a(dp471
g5
F360.0
sg6
F0.0
sg7
F359.0
sg8
F2.0
sg9
F359.0
saa(lp472
V115357
p473
a(dp474
g5
F360.0
sg6
F1.0
sg7
F359.0
sg8
F1.0
sg9
F360.0
saa(lp475
V115402
p476
a(dp477
g5
F360.0
sg6
F0.0
sg7
F359.0
sg8
F1.0
sg9
F359.0
saa(lp478
V120017
p479
a(dp480
g5
F360.0
sg6
F1.0
sg7
F359.0
sg8
F1.0
sg9
F360.0
saa(lp481
V120326
p482
a(dp483
g5
F360.0
sg6
F1.0
sg7
F359.0
sg8
F1.0
sg9
F360.0
saa(lp484
V120636
p485
a(dp486
g5
F359.5
sg6
F0.0
sg7
F359.0
sg8
F1.0
sg9
F359.0
saa(lp487
V120641
p488
a(dp489
g5
F359.5
sg6
F1.0
sg7
F359.0
sg8
F2.0
sg9
F360.0
saa(lp490
V121139
p491
a(dp492
g5
F360.0
sg6
F0.0
sg7
F359.0
sg8
F2.0
sg9
F359.0
saa(lp493
V121144
p494
a(dp495
g5
F359.0
sg6
F0.0
sg7
F358.5
sg8
F1.0
sg9
F359.0
saa(lp496
V121301
p497
a(dp498
g5
F359.0
sg6
F0.0
sg7
F358.5
sg8
F1.0
sg9
F359.0
saa(lp499
V121352
p500
a(dp501
g5
F359.0
sg6
F-0.5
sg7
F358.5
sg8
F2.0
sg9
F358.5
saa(lp502
V121357
p503
a(dp504
g5
F359.0
sg6
F0.0
sg7
F358.5
sg8
F1.0
sg9
F359.0
saa(lp505
V121402
p506
a(dp507
g5
F360.0
sg6
F-0.5
sg7
F358.5
sg8
F2.0
sg9
F358.5
saa(lp508
V121428
p509
a(dp510
g5
F360.0
sg6
F-0.5
sg7
F358.5
sg8
F2.0
sg9
F358.5
saa(lp511
V121433
p512
a(dp513
g5
F360.0
sg6
F-0.5
sg7
F358.5
sg8
F1.0
sg9
F358.5
saa(lp514
V121438
p515
a(dp516
g5
F360.0
sg6
F-0.5
sg7
F358.5
sg8
F1.0
sg9
F358.5
saa(lp517
V121443
p518
a(dp519
g5
F360.0
sg6
F-0.5
sg7
F358.5
sg8
F1.0
sg9
F358.5
saa(lp520
V121458
p521
a(dp522
g5
F360.0
sg6
F-0.5
sg7
F358.5
sg8
F2.0
sg9
F358.5
saa(lp523
V121509
p524
a(dp525
g5
F360.0
sg6
F-0.5
sg7
F358.5
sg8
F1.0
sg9
F358.5
saa(lp526
V121925
p527
a(dp528
g5
F359.5
sg6
F0.5
sg7
F357.0
sg8
F1.0
sg9
F359.5
saa(lp529
V122453
p530
a(dp531
g5
F359.5
sg6
F-0.5
sg7
F358.5
sg8
F10.0
sg9
F358.5
saa(lp532
V122513
p533
a(dp534
g5
F359.5
sg6
F-0.5
sg7
F358.5
sg8
F1.0
sg9
F358.5
saa(lp535
V122534
p536
a(dp537
g5
F359.5
sg6
F-0.5
sg7
F358.5
sg8
F1.0
sg9
F358.5
saa(lp538
V122544
p539
a(dp540
g5
F359.5
sg6
F1.0
sg7
F358.5
sg8
F2.0
sg9
F360.0
saa(lp541
V122615
p542
a(dp543
g5
F360.0
sg6
F-0.5
sg7
F358.5
sg8
F1.0
sg9
F358.5
saa(lp544
V122844
p545
a(dp546
g5
F359.5
sg6
F-0.5
sg7
F358.5
sg8
F1.0
sg9
F358.5
saa(lp547
V123133
p548
a(dp549
g5
F359.0
sg6
F-1.0
sg7
F358.0
sg8
F1.0
sg9
F358.0
saa(lp550
V123209
p551
a(dp552
g5
F359.0
sg6
F0.0
sg7
F357.5
sg8
F1.0
sg9
F359.0
saa(lp553
V123321
p554
a(dp555
g5
F359.0
sg6
F-1.5
sg7
F357.5
sg8
F1.0
sg9
F357.5
saa(lp556
V123549
p557
a(dp558
g5
F359.0
sg6
F0.0
sg7
F357.5
sg8
F1.0
sg9
F359.0
saa(lp559
V123828
p560
a(dp561
g5
F360.0
sg6
F1.0
sg7
F357.5
sg8
F1.0
sg9
F360.0
saa(lp562
V124453
p563
a(dp564
g5
F360.0
sg6
F1.0
sg7
F358.0
sg8
F2.0
sg9
F360.0
saa(lp565
V124655
p566
a(dp567
g5
F360.0
sg6
F0.0
sg7
F359.0
sg8
F1.0
sg9
F359.0
saa(lp568
V125026
p569
a(dp570
g5
F360.0
sg6
F0.5
sg7
F359.5
sg8
F1.0
sg9
F359.5
saa(lp571
V125203
p572
a(dp573
g5
F359.5
sg6
F0.0
sg7
F359.0
sg8
F1.0
sg9
F359.0
saa(lp574
V125634
p575
a(dp576
g5
F359.0
sg6
F-0.5
sg7
F358.5
sg8
F1.0
sg9
F358.5
saa(lp577
V125736
p578
a(dp579
g5
F359.0
sg6
F-0.5
sg7
F358.5
sg8
F1.0
sg9
F358.5
saa(lp580
V130005
p581
a(dp582
g5
F359.0
sg6
F-1.0
sg7
F358.0
sg8
F1.0
sg9
F358.0
saa(lp583
V130259
p584
a(dp585
g5
F359.0
sg6
F-1.5
sg7
F357.5
sg8
F1.0
sg9
F357.5
saa(lp586
V131403
p587
a(dp588
g5
F359.0
sg6
F-1.5
sg7
F357.5
sg8
F1.0
sg9
F357.5
saa(lp589
V131413
p590
a(dp591
g5
F359.0
sg6
F-1.5
sg7
F357.5
sg8
F1.0
sg9
F357.5
saa(lp592
V131646
p593
a(dp594
g5
F359.0
sg6
F-1.5
sg7
F357.5
sg8
F2.0
sg9
F357.5
saa(lp595
V131813
p596
a(dp597
g5
F359.0
sg6
F-1.5
sg7
F357.5
sg8
F4.0
sg9
F357.5
saa(lp598
V131823
p599
a(dp600
g5
F357.5
sg6
F-1.5
sg7
F357.0
sg8
F1.0
sg9
F357.5
saa(lp601
V131950
p602
a(dp603
g5
F359.0
sg6
F-2.0
sg7
F357.0
sg8
F1.0
sg9
F357.0
saa(lp604
V132117
p605
a(dp606
g5
F359.0
sg6
F-2.0
sg7
F357.0
sg8
F1.0
sg9
F357.0
saa(lp607
V132351
p608
a(dp609
g5
F358.5
sg6
F-2.0
sg7
F357.0
sg8
F1.0
sg9
F357.0
saa(lp610
V132406
p611
a(dp612
g5
F358.5
sg6
F-2.0
sg7
F357.0
sg8
F1.0
sg9
F357.0
saa(lp613
V132457
p614
a(dp615
g5
F358.5
sg6
F0.0
sg7
F357.5
sg8
F2.0
sg9
F359.0
saa(lp616
V133000
p617
a(dp618
g5
F358.0
sg6
F-1.0
sg7
F356.5
sg8
F18.0
sg9
F358.0
saa(lp619
V143000
p620
a(dp621
g5
F358.0
sg6
F-1.0
sg7
F357.5
sg8
F1.0
sg9
F358.0
saatp622
Rp623
.