ccollections
OrderedDict
p1
((lp2
(lp3
V090009
p4
a(dp5
S'sell'
p6
F103.5
sS'diff'
p7
F-1
sS'buy'
p8
F103
sS'count'
p9
F2
sS'deal'
p10
F103
saa(lp11
V090014
p12
a(dp13
g6
F103.5
sg7
F-1
sg8
F103
sg9
F4
sg10
F103
saa(lp14
V090030
p15
a(dp16
g6
F103.5
sg7
F-0.5
sg8
F102.5
sg9
F2
sg10
F103.5
saa(lp17
V090035
p18
a(dp19
g6
F103.5
sg7
F-0.5
sg8
F102.5
sg9
F1
sg10
F103.5
saa(lp20
V090040
p21
a(dp22
g6
F103.5
sg7
F-1
sg8
F103
sg9
F5
sg10
F103
saa(lp23
V090045
p24
a(dp25
g6
F103
sg7
F-1
sg8
F102.5
sg9
F9
sg10
F103
saa(lp26
V090050
p27
a(dp28
g6
F103
sg7
F-1
sg8
F102.5
sg9
F3
sg10
F103
saa(lp29
V090055
p30
a(dp31
g6
F103
sg7
F-1
sg8
F102.5
sg9
F1
sg10
F103
saa(lp32
V090100
p33
a(dp34
g6
F103
sg7
F-1.5
sg8
F102.5
sg9
F4
sg10
F102.5
saa(lp35
V090110
p36
a(dp37
g6
F103
sg7
F-1.5
sg8
F102.5
sg9
F2
sg10
F102.5
saa(lp38
V090120
p39
a(dp40
g6
F103
sg7
F-1.5
sg8
F102.5
sg9
F1
sg10
F102.5
saa(lp41
V090125
p42
a(dp43
g6
F103
sg7
F-1.5
sg8
F102.5
sg9
F3
sg10
F102.5
saa(lp44
V090130
p45
a(dp46
g6
F103
sg7
F-1.5
sg8
F102.5
sg9
F16
sg10
F102.5
saa(lp47
V090135
p48
a(dp49
g6
F103
sg7
F-1.5
sg8
F102.5
sg9
F11
sg10
F102.5
saa(lp50
V090140
p51
a(dp52
g6
F102.5
sg7
F-2
sg8
F102
sg9
F5
sg10
F102
saa(lp53
V090145
p54
a(dp55
g6
F102.5
sg7
F-1.5
sg8
F102
sg9
F1
sg10
F102.5
saa(lp56
V090150
p57
a(dp58
g6
F102.5
sg7
F-2
sg8
F102
sg9
F15
sg10
F102
saa(lp59
V090155
p60
a(dp61
g6
F102.5
sg7
F-2
sg8
F102
sg9
F2
sg10
F102
saa(lp62
V090200
p63
a(dp64
g6
F102.5
sg7
F-2
sg8
F102
sg9
F2
sg10
F102
saa(lp65
V090205
p66
a(dp67
g6
F102.5
sg7
F-2
sg8
F102
sg9
F3
sg10
F102
saa(lp68
V090215
p69
a(dp70
g6
F102.5
sg7
F-2
sg8
F102
sg9
F1
sg10
F102
saa(lp71
V090220
p72
a(dp73
g6
F102.5
sg7
F-2
sg8
F102
sg9
F2
sg10
F102
saa(lp74
V090245
p75
a(dp76
g6
F102.5
sg7
F-1.5
sg8
F102
sg9
F1
sg10
F102.5
saa(lp77
V090250
p78
a(dp79
g6
F102.5
sg7
F-1.5
sg8
F102
sg9
F2
sg10
F102.5
saa(lp80
V090300
p81
a(dp82
g6
F102.5
sg7
F-1.5
sg8
F102
sg9
F4
sg10
F102.5
saa(lp83
V090305
p84
a(dp85
g6
F102.5
sg7
F-1.5
sg8
F102
sg9
F1
sg10
F102.5
saa(lp86
V090310
p87
a(dp88
g6
F102.5
sg7
F-2
sg8
F102
sg9
F2
sg10
F102
saa(lp89
V090325
p90
a(dp91
g6
F102.5
sg7
F-2
sg8
F102
sg9
F1
sg10
F102
saa(lp92
V090330
p93
a(dp94
g6
F102.5
sg7
F-1.5
sg8
F102
sg9
F6
sg10
F102.5
saa(lp95
V090335
p96
a(dp97
g6
F102.5
sg7
F-2
sg8
F102
sg9
F11
sg10
F102
saa(lp98
V090340
p99
a(dp100
g6
F102.5
sg7
F-2
sg8
F102
sg9
F1
sg10
F102
saa(lp101
V090350
p102
a(dp103
g6
F102.5
sg7
F-2
sg8
F102
sg9
F10
sg10
F102
saa(lp104
V090400
p105
a(dp106
g6
F102.5
sg7
F-2
sg8
F102
sg9
F2
sg10
F102
saa(lp107
V090425
p108
a(dp109
g6
F102.5
sg7
F-2
sg8
F102
sg9
F5
sg10
F102
saa(lp110
V090431
p111
a(dp112
g6
F102.5
sg7
F-2
sg8
F102
sg9
F1
sg10
F102
saa(lp113
V090436
p114
a(dp115
g6
F102.5
sg7
F-2
sg8
F102
sg9
F5
sg10
F102
saa(lp116
V090441
p117
a(dp118
g6
F102.5
sg7
F-2
sg8
F102
sg9
F1
sg10
F102
saa(lp119
V090501
p120
a(dp121
g6
F102.5
sg7
F-2
sg8
F102
sg9
F1
sg10
F102
saa(lp122
V090506
p123
a(dp124
g6
F102.5
sg7
F-2
sg8
F102
sg9
F1
sg10
F102
saa(lp125
V090511
p126
a(dp127
g6
F102.5
sg7
F-2
sg8
F102
sg9
F4
sg10
F102
saa(lp128
V090516
p129
a(dp130
g6
F102.5
sg7
F-2
sg8
F102
sg9
F2
sg10
F102
saa(lp131
V090521
p132
a(dp133
g6
F102.5
sg7
F-2
sg8
F102
sg9
F3
sg10
F102
saa(lp134
V090526
p135
a(dp136
g6
F102.5
sg7
F-2
sg8
F102
sg9
F1
sg10
F102
saa(lp137
V090531
p138
a(dp139
g6
F102.5
sg7
F-2
sg8
F102
sg9
F1
sg10
F102
saa(lp140
V090536
p141
a(dp142
g6
F102.5
sg7
F-2
sg8
F102
sg9
F1
sg10
F102
saa(lp143
V090541
p144
a(dp145
g6
F102.5
sg7
F-2
sg8
F102
sg9
F1
sg10
F102
saa(lp146
V090546
p147
a(dp148
g6
F102.5
sg7
F-2
sg8
F102
sg9
F4
sg10
F102
saa(lp149
V090551
p150
a(dp151
g6
F102.5
sg7
F-2
sg8
F102
sg9
F3
sg10
F102
saa(lp152
V090556
p153
a(dp154
g6
F102.5
sg7
F-2
sg8
F102
sg9
F7
sg10
F102
saa(lp155
V090601
p156
a(dp157
g6
F102.5
sg7
F-2
sg8
F102
sg9
F3
sg10
F102
saa(lp158
V090606
p159
a(dp160
g6
F102.5
sg7
F-2
sg8
F102
sg9
F2
sg10
F102
saa(lp161
V090611
p162
a(dp163
g6
F102.5
sg7
F-2
sg8
F102
sg9
F1
sg10
F102
saa(lp164
V090617
p165
a(dp166
g6
F102.5
sg7
F-1.5
sg8
F102
sg9
F1
sg10
F102.5
saa(lp167
V090622
p168
a(dp169
g6
F102.5
sg7
F-1.5
sg8
F102
sg9
F19
sg10
F102.5
saa(lp170
V090627
p171
a(dp172
g6
F102.5
sg7
F-1.5
sg8
F102
sg9
F1
sg10
F102.5
saa(lp173
V090632
p174
a(dp175
g6
F102.5
sg7
F-1.5
sg8
F102
sg9
F6
sg10
F102.5
saa(lp176
V090642
p177
a(dp178
g6
F102.5
sg7
F-1.5
sg8
F102
sg9
F1
sg10
F102.5
saa(lp179
V090647
p180
a(dp181
g6
F102.5
sg7
F-1.5
sg8
F102
sg9
F18
sg10
F102.5
saa(lp182
V090652
p183
a(dp184
g6
F102.5
sg7
F-1.5
sg8
F102
sg9
F10
sg10
F102.5
saa(lp185
V090657
p186
a(dp187
g6
F102.5
sg7
F-1.5
sg8
F102
sg9
F7
sg10
F102.5
saa(lp188
V090702
p189
a(dp190
g6
F102.5
sg7
F-1.5
sg8
F102
sg9
F9
sg10
F102.5
saa(lp191
V090707
p192
a(dp193
g6
F102.5
sg7
F-1.5
sg8
F102
sg9
F2
sg10
F102.5
saa(lp194
V090712
p195
a(dp196
g6
F102.5
sg7
F-1.5
sg8
F102
sg9
F24
sg10
F102.5
saa(lp197
V090717
p198
a(dp199
g6
F102.5
sg7
F-1.5
sg8
F102
sg9
F41
sg10
F102.5
saa(lp200
V090722
p201
a(dp202
g6
F102.5
sg7
F-1.5
sg8
F102
sg9
F49
sg10
F102.5
saa(lp203
V090727
p204
a(dp205
g6
F103
sg7
F-1.5
sg8
F102.5
sg9
F11
sg10
F102.5
saa(lp206
V090732
p207
a(dp208
g6
F103
sg7
F-1
sg8
F102.5
sg9
F1
sg10
F103
saa(lp209
V090737
p210
a(dp211
g6
F103
sg7
F-1
sg8
F102.5
sg9
F23
sg10
F103
saa(lp212
V090742
p213
a(dp214
g6
F103
sg7
F-1
sg8
F102.5
sg9
F7
sg10
F103
saa(lp215
V090747
p216
a(dp217
g6
F103
sg7
F-1
sg8
F102.5
sg9
F4
sg10
F103
saa(lp218
V090752
p219
a(dp220
g6
F103
sg7
F-1
sg8
F102.5
sg9
F1
sg10
F103
saa(lp221
V090757
p222
a(dp223
g6
F103
sg7
F-1
sg8
F102.5
sg9
F2
sg10
F103
saa(lp224
V090802
p225
a(dp226
g6
F103
sg7
F-1
sg8
F102.5
sg9
F4
sg10
F103
saa(lp227
V090807
p228
a(dp229
g6
F103
sg7
F-1
sg8
F102.5
sg9
F5
sg10
F103
saa(lp230
V090812
p231
a(dp232
g6
F103
sg7
F-1
sg8
F102.5
sg9
F3
sg10
F103
saa(lp233
V090817
p234
a(dp235
g6
F103
sg7
F-1
sg8
F102.5
sg9
F6
sg10
F103
saa(lp236
V090822
p237
a(dp238
g6
F103
sg7
F-1
sg8
F102.5
sg9
F3
sg10
F103
saa(lp239
V090827
p240
a(dp241
g6
F103
sg7
F-1
sg8
F102.5
sg9
F1
sg10
F103
saa(lp242
V090832
p243
a(dp244
g6
F103
sg7
F-1
sg8
F102.5
sg9
F1
sg10
F103
saa(lp245
V090837
p246
a(dp247
g6
F103
sg7
F-1
sg8
F102.5
sg9
F1
sg10
F103
saa(lp248
V090852
p249
a(dp250
g6
F103
sg7
F-1
sg8
F102.5
sg9
F3
sg10
F103
saa(lp251
V090857
p252
a(dp253
g6
F103
sg7
F-1
sg8
F102.5
sg9
F3
sg10
F103
saa(lp254
V090902
p255
a(dp256
g6
F103
sg7
F-1
sg8
F102.5
sg9
F4
sg10
F103
saa(lp257
V090907
p258
a(dp259
g6
F103
sg7
F-1
sg8
F102.5
sg9
F7
sg10
F103
saa(lp260
V090912
p261
a(dp262
g6
F103.5
sg7
F-1
sg8
F103
sg9
F1
sg10
F103
saa(lp263
V090917
p264
a(dp265
g6
F103.5
sg7
F-1
sg8
F103
sg9
F5
sg10
F103
saa(lp266
V090922
p267
a(dp268
g6
F103.5
sg7
F-1
sg8
F103
sg9
F1
sg10
F103
saa(lp269
V090927
p270
a(dp271
g6
F103.5
sg7
F-1
sg8
F103
sg9
F15
sg10
F103
saa(lp272
V090932
p273
a(dp274
g6
F103.5
sg7
F-1
sg8
F103
sg9
F5
sg10
F103
saa(lp275
V090942
p276
a(dp277
g6
F103
sg7
F-1
sg8
F102.5
sg9
F8
sg10
F103
saa(lp278
V090947
p279
a(dp280
g6
F103.5
sg7
F-1
sg8
F103
sg9
F9
sg10
F103
saa(lp281
V090957
p282
a(dp283
g6
F103.5
sg7
F-1
sg8
F103
sg9
F1
sg10
F103
saa(lp284
V091012
p285
a(dp286
g6
F103.5
sg7
F-1
sg8
F103
sg9
F1
sg10
F103
saa(lp287
V091022
p288
a(dp289
g6
F103.5
sg7
F-0.5
sg8
F103
sg9
F1
sg10
F103.5
saa(lp290
V091027
p291
a(dp292
g6
F103.5
sg7
F-0.5
sg8
F103
sg9
F5
sg10
F103.5
saa(lp293
V091042
p294
a(dp295
g6
F103.5
sg7
F-0.5
sg8
F103
sg9
F1
sg10
F103.5
saa(lp296
V091047
p297
a(dp298
g6
F103.5
sg7
F-1
sg8
F103
sg9
F1
sg10
F103
saa(lp299
V091052
p300
a(dp301
g6
F103.5
sg7
F-1
sg8
F103
sg9
F1
sg10
F103
saa(lp302
V091057
p303
a(dp304
g6
F103.5
sg7
F-1
sg8
F103
sg9
F1
sg10
F103
saa(lp305
V091103
p306
a(dp307
g6
F103.5
sg7
F-1
sg8
F103
sg9
F1
sg10
F103
saa(lp308
V091108
p309
a(dp310
g6
F103.5
sg7
F-1
sg8
F103
sg9
F1
sg10
F103
saa(lp311
V091113
p312
a(dp313
g6
F103.5
sg7
F-1
sg8
F103
sg9
F3
sg10
F103
saa(lp314
V091118
p315
a(dp316
g6
F103.5
sg7
F-0.5
sg8
F103
sg9
F8
sg10
F103.5
saa(lp317
V091123
p318
a(dp319
g6
F103.5
sg7
F-1
sg8
F103
sg9
F3
sg10
F103
saa(lp320
V091128
p321
a(dp322
g6
F103.5
sg7
F-1
sg8
F103
sg9
F1
sg10
F103
saa(lp323
V091133
p324
a(dp325
g6
F103.5
sg7
F-1
sg8
F103
sg9
F1
sg10
F103
saa(lp326
V091138
p327
a(dp328
g6
F103.5
sg7
F-1
sg8
F103
sg9
F1
sg10
F103
saa(lp329
V091143
p330
a(dp331
g6
F103.5
sg7
F-1
sg8
F103
sg9
F1
sg10
F103
saa(lp332
V091208
p333
a(dp334
g6
F103.5
sg7
F-1
sg8
F103
sg9
F3
sg10
F103
saa(lp335
V091228
p336
a(dp337
g6
F103.5
sg7
F-1
sg8
F103
sg9
F10
sg10
F103
saa(lp338
V091233
p339
a(dp340
g6
F103.5
sg7
F-1
sg8
F103
sg9
F31
sg10
F103
saa(lp341
V091238
p342
a(dp343
g6
F103.5
sg7
F-1
sg8
F103
sg9
F3
sg10
F103
saa(lp344
V091423
p345
a(dp346
g6
F103
sg7
F-1
sg8
F102.5
sg9
F1
sg10
F103
saa(lp347
V091428
p348
a(dp349
g6
F103
sg7
F-1
sg8
F102.5
sg9
F4
sg10
F103
saa(lp350
V091433
p351
a(dp352
g6
F103
sg7
F-1.5
sg8
F102.5
sg9
F11
sg10
F102.5
saa(lp353
V091438
p354
a(dp355
g6
F103
sg7
F-1.5
sg8
F102.5
sg9
F1
sg10
F102.5
saa(lp356
V091443
p357
a(dp358
g6
F103
sg7
F-1
sg8
F102.5
sg9
F2
sg10
F103
saa(lp359
V091524
p360
a(dp361
g6
F103
sg7
F-1
sg8
F102.5
sg9
F1
sg10
F103
saa(lp362
V091529
p363
a(dp364
g6
F103
sg7
F-1
sg8
F102.5
sg9
F1
sg10
F103
saa(lp365
V091534
p366
a(dp367
g6
F103
sg7
F-1
sg8
F102.5
sg9
F2
sg10
F103
saa(lp368
V091539
p369
a(dp370
g6
F103
sg7
F-1
sg8
F102.5
sg9
F1
sg10
F103
saa(lp371
V091544
p372
a(dp373
g6
F103
sg7
F-1
sg8
F102.5
sg9
F3
sg10
F103
saa(lp374
V091549
p375
a(dp376
g6
F103
sg7
F-1
sg8
F102.5
sg9
F2
sg10
F103
saa(lp377
V091609
p378
a(dp379
g6
F103
sg7
F-1
sg8
F102.5
sg9
F1
sg10
F103
saa(lp380
V091629
p381
a(dp382
g6
F103
sg7
F-1
sg8
F102.5
sg9
F2
sg10
F103
saa(lp383
V091649
p384
a(dp385
g6
F103
sg7
F-1
sg8
F102.5
sg9
F1
sg10
F103
saa(lp386
V091709
p387
a(dp388
g6
F103
sg7
F-1.5
sg8
F102.5
sg9
F6
sg10
F102.5
saa(lp389
V091714
p390
a(dp391
g6
F103
sg7
F-1
sg8
F102.5
sg9
F1
sg10
F103
saa(lp392
V091719
p393
a(dp394
g6
F103
sg7
F-1
sg8
F102.5
sg9
F2
sg10
F103
saa(lp395
V091724
p396
a(dp397
g6
F103
sg7
F-1
sg8
F102.5
sg9
F1
sg10
F103
saa(lp398
V091735
p399
a(dp400
g6
F103
sg7
F-1
sg8
F102.5
sg9
F2
sg10
F103
saa(lp401
V091745
p402
a(dp403
g6
F103
sg7
F-1
sg8
F102.5
sg9
F1
sg10
F103
saa(lp404
V091750
p405
a(dp406
g6
F103
sg7
F-1.5
sg8
F102.5
sg9
F1
sg10
F102.5
saa(lp407
V091755
p408
a(dp409
g6
F103
sg7
F-1.5
sg8
F102.5
sg9
F1
sg10
F102.5
saa(lp410
V091800
p411
a(dp412
g6
F103
sg7
F-1
sg8
F102.5
sg9
F1
sg10
F103
saa(lp413
V091830
p414
a(dp415
g6
F103
sg7
F-1
sg8
F102.5
sg9
F1
sg10
F103
saa(lp416
V091840
p417
a(dp418
g6
F103
sg7
F-1
sg8
F102.5
sg9
F1
sg10
F103
saa(lp419
V091855
p420
a(dp421
g6
F103
sg7
F-1
sg8
F102.5
sg9
F5
sg10
F103
saa(lp422
V091900
p423
a(dp424
g6
F103
sg7
F-1
sg8
F102.5
sg9
F1
sg10
F103
saa(lp425
V091905
p426
a(dp427
g6
F103
sg7
F-1
sg8
F102.5
sg9
F5
sg10
F103
saa(lp428
V091925
p429
a(dp430
g6
F103
sg7
F-1
sg8
F102.5
sg9
F1
sg10
F103
saa(lp431
V091930
p432
a(dp433
g6
F103
sg7
F-1
sg8
F102.5
sg9
F10
sg10
F103
saa(lp434
V091935
p435
a(dp436
g6
F103
sg7
F-1
sg8
F102.5
sg9
F4
sg10
F103
saa(lp437
V091940
p438
a(dp439
g6
F103
sg7
F-1
sg8
F102.5
sg9
F3
sg10
F103
saa(lp440
V091945
p441
a(dp442
g6
F103
sg7
F-1
sg8
F102.5
sg9
F6
sg10
F103
saa(lp443
V091955
p444
a(dp445
g6
F103
sg7
F-1
sg8
F102.5
sg9
F6
sg10
F103
saa(lp446
V092005
p447
a(dp448
g6
F103
sg7
F-1
sg8
F102.5
sg9
F1
sg10
F103
saa(lp449
V092025
p450
a(dp451
g6
F103
sg7
F-1
sg8
F102.5
sg9
F1
sg10
F103
saa(lp452
V092035
p453
a(dp454
g6
F103
sg7
F-1
sg8
F102.5
sg9
F2
sg10
F103
saa(lp455
V092045
p456
a(dp457
g6
F103
sg7
F-1
sg8
F102.5
sg9
F1
sg10
F103
saa(lp458
V092055
p459
a(dp460
g6
F103
sg7
F-1
sg8
F102.5
sg9
F3
sg10
F103
saa(lp461
V092100
p462
a(dp463
g6
F103
sg7
F-1.5
sg8
F102.5
sg9
F1
sg10
F102.5
saa(lp464
V092110
p465
a(dp466
g6
F103
sg7
F-1
sg8
F102.5
sg9
F1
sg10
F103
saa(lp467
V092120
p468
a(dp469
g6
F103
sg7
F-1
sg8
F102.5
sg9
F5
sg10
F103
saa(lp470
V092125
p471
a(dp472
g6
F103
sg7
F-1
sg8
F102.5
sg9
F3
sg10
F103
saa(lp473
V092140
p474
a(dp475
g6
F103
sg7
F-1.5
sg8
F102.5
sg9
F4
sg10
F102.5
saa(lp476
V092150
p477
a(dp478
g6
F103
sg7
F-1.5
sg8
F102.5
sg9
F1
sg10
F102.5
saa(lp479
V092246
p480
a(dp481
g6
F103
sg7
F-1
sg8
F102.5
sg9
F18
sg10
F103
saa(lp482
V092251
p483
a(dp484
g6
F103
sg7
F-1.5
sg8
F102.5
sg9
F2
sg10
F102.5
saa(lp485
V092256
p486
a(dp487
g6
F103
sg7
F-1.5
sg8
F102.5
sg9
F2
sg10
F102.5
saa(lp488
V092316
p489
a(dp490
g6
F103
sg7
F-1
sg8
F102.5
sg9
F5
sg10
F103
saa(lp491
V092356
p492
a(dp493
g6
F103
sg7
F-1
sg8
F102.5
sg9
F1
sg10
F103
saa(lp494
V092406
p495
a(dp496
g6
F103
sg7
F-1.5
sg8
F102.5
sg9
F2
sg10
F102.5
saa(lp497
V092411
p498
a(dp499
g6
F103
sg7
F-1.5
sg8
F102.5
sg9
F2
sg10
F102.5
saa(lp500
V092416
p501
a(dp502
g6
F103
sg7
F-1.5
sg8
F102.5
sg9
F1
sg10
F102.5
saa(lp503
V092421
p504
a(dp505
g6
F103
sg7
F-1
sg8
F102.5
sg9
F10
sg10
F103
saa(lp506
V092426
p507
a(dp508
g6
F103
sg7
F-1
sg8
F102.5
sg9
F1
sg10
F103
saa(lp509
V092431
p510
a(dp511
g6
F103
sg7
F-1
sg8
F102.5
sg9
F9
sg10
F103
saa(lp512
V092436
p513
a(dp514
g6
F103
sg7
F-1
sg8
F102.5
sg9
F2
sg10
F103
saa(lp515
V092441
p516
a(dp517
g6
F103
sg7
F-1.5
sg8
F102.5
sg9
F1
sg10
F102.5
saa(lp518
V092511
p519
a(dp520
g6
F103
sg7
F-1
sg8
F102.5
sg9
F4
sg10
F103
saa(lp521
V092516
p522
a(dp523
g6
F103
sg7
F-1
sg8
F102.5
sg9
F1
sg10
F103
saa(lp524
V092632
p525
a(dp526
g6
F103
sg7
F-1
sg8
F102.5
sg9
F6
sg10
F103
saa(lp527
V092637
p528
a(dp529
g6
F103
sg7
F-1
sg8
F102.5
sg9
F3
sg10
F103
saa(lp530
V092642
p531
a(dp532
g6
F103
sg7
F-1.5
sg8
F102.5
sg9
F4
sg10
F102.5
saa(lp533
V092707
p534
a(dp535
g6
F103
sg7
F-1
sg8
F102.5
sg9
F1
sg10
F103
saa(lp536
V092737
p537
a(dp538
g6
F103
sg7
F-1
sg8
F102.5
sg9
F1
sg10
F103
saa(lp539
V092832
p540
a(dp541
g6
F103
sg7
F-1.5
sg8
F102.5
sg9
F1
sg10
F102.5
saa(lp542
V092858
p543
a(dp544
g6
F103
sg7
F-1
sg8
F102.5
sg9
F4
sg10
F103
saa(lp545
V092913
p546
a(dp547
g6
F103
sg7
F-1
sg8
F102.5
sg9
F2
sg10
F103
saa(lp548
V092943
p549
a(dp550
g6
F103
sg7
F-1
sg8
F102.5
sg9
F2
sg10
F103
saa(lp551
V093003
p552
a(dp553
g6
F103
sg7
F-1
sg8
F102.5
sg9
F1
sg10
F103
saa(lp554
V093033
p555
a(dp556
g6
F103
sg7
F-1.5
sg8
F102.5
sg9
F4
sg10
F102.5
saa(lp557
V093048
p558
a(dp559
g6
F103
sg7
F-1
sg8
F102.5
sg9
F2
sg10
F103
saa(lp560
V093123
p561
a(dp562
g6
F103
sg7
F-1
sg8
F102.5
sg9
F2
sg10
F103
saa(lp563
V093143
p564
a(dp565
g6
F103
sg7
F-1
sg8
F102.5
sg9
F1
sg10
F103
saa(lp566
V093153
p567
a(dp568
g6
F103
sg7
F-1
sg8
F102.5
sg9
F3
sg10
F103
saa(lp569
V093243
p570
a(dp571
g6
F103
sg7
F-1
sg8
F102.5
sg9
F7
sg10
F103
saa(lp572
V093248
p573
a(dp574
g6
F103
sg7
F-1
sg8
F102.5
sg9
F6
sg10
F103
saa(lp575
V093253
p576
a(dp577
g6
F103
sg7
F-1
sg8
F102.5
sg9
F3
sg10
F103
saa(lp578
V093304
p579
a(dp580
g6
F103
sg7
F-1
sg8
F102.5
sg9
F6
sg10
F103
saa(lp581
V093309
p582
a(dp583
g6
F103
sg7
F-1
sg8
F102.5
sg9
F1
sg10
F103
saa(lp584
V093314
p585
a(dp586
g6
F103
sg7
F-1
sg8
F102.5
sg9
F2
sg10
F103
saa(lp587
V093319
p588
a(dp589
g6
F103
sg7
F-1
sg8
F102.5
sg9
F1
sg10
F103
saa(lp590
V093359
p591
a(dp592
g6
F103
sg7
F-1
sg8
F102.5
sg9
F1
sg10
F103
saa(lp593
V093434
p594
a(dp595
g6
F103
sg7
F-1.5
sg8
F102.5
sg9
F1
sg10
F102.5
saa(lp596
V093439
p597
a(dp598
g6
F103
sg7
F-1
sg8
F102.5
sg9
F3
sg10
F103
saa(lp599
V093444
p600
a(dp601
g6
F103
sg7
F-1.5
sg8
F102.5
sg9
F4
sg10
F102.5
saa(lp602
V093454
p603
a(dp604
g6
F103
sg7
F-1.5
sg8
F102.5
sg9
F1
sg10
F102.5
saa(lp605
V093600
p606
a(dp607
g6
F103
sg7
F-1.5
sg8
F102.5
sg9
F1
sg10
F102.5
saa(lp608
V093630
p609
a(dp610
g6
F103
sg7
F-1
sg8
F102.5
sg9
F3
sg10
F103
saa(lp611
V093645
p612
a(dp613
g6
F103
sg7
F-1
sg8
F102.5
sg9
F2
sg10
F103
saa(lp614
V093700
p615
a(dp616
g6
F103
sg7
F-1.5
sg8
F102.5
sg9
F1
sg10
F102.5
saa(lp617
V093710
p618
a(dp619
g6
F103
sg7
F-1
sg8
F102.5
sg9
F1
sg10
F103
saa(lp620
V093820
p621
a(dp622
g6
F103
sg7
F-1
sg8
F102.5
sg9
F1
sg10
F103
saa(lp623
V093825
p624
a(dp625
g6
F103
sg7
F-1
sg8
F102.5
sg9
F3
sg10
F103
saa(lp626
V093830
p627
a(dp628
g6
F103
sg7
F-1
sg8
F102.5
sg9
F175
sg10
F103
saa(lp629
V093835
p630
a(dp631
g6
F103.5
sg7
F-0.5
sg8
F103
sg9
F58
sg10
F103.5
saa(lp632
V093840
p633
a(dp634
g6
F104
sg7
F-0.5
sg8
F103.5
sg9
F17
sg10
F103.5
saa(lp635
V093845
p636
a(dp637
g6
F104
sg7
F0
sg8
F103.5
sg9
F2
sg10
F104
saa(lp638
V093850
p639
a(dp640
g6
F104
sg7
F-0.5
sg8
F103.5
sg9
F17
sg10
F103.5
saa(lp641
V093855
p642
a(dp643
g6
F103.5
sg7
F-0.5
sg8
F103
sg9
F14
sg10
F103.5
saa(lp644
V093905
p645
a(dp646
g6
F103.5
sg7
F-1
sg8
F103
sg9
F4
sg10
F103
saa(lp647
V093910
p648
a(dp649
g6
F103.5
sg7
F-0.5
sg8
F103
sg9
F2
sg10
F103.5
saa(lp650
V093920
p651
a(dp652
g6
F103.5
sg7
F-0.5
sg8
F103
sg9
F4
sg10
F103.5
saa(lp653
V093935
p654
a(dp655
g6
F103.5
sg7
F-0.5
sg8
F103
sg9
F1
sg10
F103.5
saa(lp656
V093950
p657
a(dp658
g6
F103.5
sg7
F-0.5
sg8
F103
sg9
F1
sg10
F103.5
saa(lp659
V093955
p660
a(dp661
g6
F103.5
sg7
F-0.5
sg8
F103
sg9
F5
sg10
F103.5
saa(lp662
V094006
p663
a(dp664
g6
F103.5
sg7
F-0.5
sg8
F103
sg9
F1
sg10
F103.5
saa(lp665
V094016
p666
a(dp667
g6
F103.5
sg7
F-0.5
sg8
F103
sg9
F1
sg10
F103.5
saa(lp668
V094021
p669
a(dp670
g6
F103.5
sg7
F-0.5
sg8
F103
sg9
F1
sg10
F103.5
saa(lp671
V094106
p672
a(dp673
g6
F103.5
sg7
F-0.5
sg8
F103
sg9
F1
sg10
F103.5
saa(lp674
V094116
p675
a(dp676
g6
F103.5
sg7
F-0.5
sg8
F103
sg9
F46
sg10
F103.5
saa(lp677
V094121
p678
a(dp679
g6
F103.5
sg7
F-0.5
sg8
F103
sg9
F36
sg10
F103.5
saa(lp680
V094126
p681
a(dp682
g6
F103.5
sg7
F-0.5
sg8
F103
sg9
F31
sg10
F103.5
saa(lp683
V094131
p684
a(dp685
g6
F103.5
sg7
F-0.5
sg8
F103
sg9
F48
sg10
F103.5
saa(lp686
V094136
p687
a(dp688
g6
F104
sg7
F-1
sg8
F103.5
sg9
F6
sg10
F103
saa(lp689
V094141
p690
a(dp691
g6
F103.5
sg7
F-0.5
sg8
F103
sg9
F2
sg10
F103.5
saa(lp692
V094146
p693
a(dp694
g6
F103.5
sg7
F-0.5
sg8
F103
sg9
F1
sg10
F103.5
saa(lp695
V094151
p696
a(dp697
g6
F103.5
sg7
F-0.5
sg8
F103
sg9
F1
sg10
F103.5
saa(lp698
V094156
p699
a(dp700
g6
F103.5
sg7
F-0.5
sg8
F103
sg9
F1
sg10
F103.5
saa(lp701
V094201
p702
a(dp703
g6
F103.5
sg7
F-0.5
sg8
F103
sg9
F2
sg10
F103.5
saa(lp704
V094206
p705
a(dp706
g6
F103.5
sg7
F-0.5
sg8
F103
sg9
F13
sg10
F103.5
saa(lp707
V094211
p708
a(dp709
g6
F103.5
sg7
F-0.5
sg8
F103
sg9
F1
sg10
F103.5
saa(lp710
V094216
p711
a(dp712
g6
F103.5
sg7
F-0.5
sg8
F103
sg9
F1
sg10
F103.5
saa(lp713
V094221
p714
a(dp715
g6
F103.5
sg7
F-0.5
sg8
F103
sg9
F2
sg10
F103.5
saa(lp716
V094226
p717
a(dp718
g6
F103.5
sg7
F-0.5
sg8
F103
sg9
F20
sg10
F103.5
saa(lp719
V094231
p720
a(dp721
g6
F103.5
sg7
F-0.5
sg8
F103
sg9
F2
sg10
F103.5
saa(lp722
V094236
p723
a(dp724
g6
F103.5
sg7
F-0.5
sg8
F103
sg9
F4
sg10
F103.5
saa(lp725
V094241
p726
a(dp727
g6
F103.5
sg7
F-0.5
sg8
F103
sg9
F7
sg10
F103.5
saa(lp728
V094246
p729
a(dp730
g6
F103.5
sg7
F-0.5
sg8
F103
sg9
F7
sg10
F103.5
saa(lp731
V094251
p732
a(dp733
g6
F103.5
sg7
F-0.5
sg8
F103
sg9
F3
sg10
F103.5
saa(lp734
V094311
p735
a(dp736
g6
F103.5
sg7
F-0.5
sg8
F103
sg9
F20
sg10
F103.5
saa(lp737
V094316
p738
a(dp739
g6
F103.5
sg7
F-0.5
sg8
F103
sg9
F4
sg10
F103.5
saa(lp740
V094321
p741
a(dp742
g6
F103.5
sg7
F-0.5
sg8
F103
sg9
F8
sg10
F103.5
saa(lp743
V094326
p744
a(dp745
g6
F103.5
sg7
F-0.5
sg8
F103
sg9
F6
sg10
F103.5
saa(lp746
V094331
p747
a(dp748
g6
F103.5
sg7
F-0.5
sg8
F103
sg9
F3
sg10
F103.5
saa(lp749
V094336
p750
a(dp751
g6
F103.5
sg7
F-0.5
sg8
F103
sg9
F4
sg10
F103.5
saa(lp752
V094341
p753
a(dp754
g6
F103.5
sg7
F-0.5
sg8
F103
sg9
F28
sg10
F103.5
saa(lp755
V094346
p756
a(dp757
g6
F103.5
sg7
F-0.5
sg8
F103
sg9
F2
sg10
F103.5
saa(lp758
V094351
p759
a(dp760
g6
F104
sg7
F-0.5
sg8
F103.5
sg9
F10
sg10
F103.5
saa(lp761
V094357
p762
a(dp763
g6
F103.5
sg7
F-0.5
sg8
F103
sg9
F3
sg10
F103.5
saa(lp764
V094407
p765
a(dp766
g6
F103.5
sg7
F-0.5
sg8
F103
sg9
F5
sg10
F103.5
saa(lp767
V094422
p768
a(dp769
g6
F103.5
sg7
F-0.5
sg8
F103
sg9
F3
sg10
F103.5
saa(lp770
V094427
p771
a(dp772
g6
F103.5
sg7
F-0.5
sg8
F103
sg9
F1
sg10
F103.5
saa(lp773
V094432
p774
a(dp775
g6
F103.5
sg7
F-0.5
sg8
F103
sg9
F2
sg10
F103.5
saa(lp776
V094437
p777
a(dp778
g6
F103.5
sg7
F-0.5
sg8
F103
sg9
F2
sg10
F103.5
saa(lp779
V094442
p780
a(dp781
g6
F103.5
sg7
F-0.5
sg8
F103
sg9
F1
sg10
F103.5
saa(lp782
V094452
p783
a(dp784
g6
F103.5
sg7
F-0.5
sg8
F103
sg9
F5
sg10
F103.5
saa(lp785
V094457
p786
a(dp787
g6
F103.5
sg7
F-0.5
sg8
F103
sg9
F2
sg10
F103.5
saa(lp788
V094522
p789
a(dp790
g6
F103.5
sg7
F-0.5
sg8
F103
sg9
F1
sg10
F103.5
saa(lp791
V094527
p792
a(dp793
g6
F103.5
sg7
F-0.5
sg8
F103
sg9
F1
sg10
F103.5
saa(lp794
V094533
p795
a(dp796
g6
F103.5
sg7
F-0.5
sg8
F103
sg9
F4
sg10
F103.5
saa(lp797
V094538
p798
a(dp799
g6
F103.5
sg7
F-1
sg8
F103
sg9
F5
sg10
F103
saa(lp800
V094643
p801
a(dp802
g6
F103.5
sg7
F-0.5
sg8
F103
sg9
F1
sg10
F103.5
saa(lp803
V094648
p804
a(dp805
g6
F103.5
sg7
F-0.5
sg8
F103
sg9
F11
sg10
F103.5
saa(lp806
V094653
p807
a(dp808
g6
F103.5
sg7
F-1
sg8
F103
sg9
F1
sg10
F103
saa(lp809
V094658
p810
a(dp811
g6
F103.5
sg7
F-0.5
sg8
F103
sg9
F2
sg10
F103.5
saa(lp812
V094708
p813
a(dp814
g6
F103.5
sg7
F-0.5
sg8
F103
sg9
F10
sg10
F103.5
saa(lp815
V094718
p816
a(dp817
g6
F103.5
sg7
F-0.5
sg8
F103
sg9
F3
sg10
F103.5
saa(lp818
V094723
p819
a(dp820
g6
F103.5
sg7
F-0.5
sg8
F103
sg9
F6
sg10
F103.5
saa(lp821
V094728
p822
a(dp823
g6
F103.5
sg7
F-0.5
sg8
F103
sg9
F20
sg10
F103.5
saa(lp824
V094733
p825
a(dp826
g6
F103.5
sg7
F-0.5
sg8
F103
sg9
F8
sg10
F103.5
saa(lp827
V094743
p828
a(dp829
g6
F103.5
sg7
F-0.5
sg8
F103
sg9
F2
sg10
F103.5
saa(lp830
V094753
p831
a(dp832
g6
F103.5
sg7
F-0.5
sg8
F103
sg9
F1
sg10
F103.5
saa(lp833
V094803
p834
a(dp835
g6
F103.5
sg7
F-1
sg8
F103
sg9
F1
sg10
F103
saa(lp836
V094903
p837
a(dp838
g6
F103.5
sg7
F-1
sg8
F103
sg9
F1
sg10
F103
saa(lp839
V094918
p840
a(dp841
g6
F103.5
sg7
F-0.5
sg8
F103
sg9
F2
sg10
F103.5
saa(lp842
V094943
p843
a(dp844
g6
F103.5
sg7
F-0.5
sg8
F103
sg9
F5
sg10
F103.5
saa(lp845
V094958
p846
a(dp847
g6
F103.5
sg7
F-0.5
sg8
F103
sg9
F32
sg10
F103.5
saa(lp848
V095003
p849
a(dp850
g6
F103.5
sg7
F-0.5
sg8
F103
sg9
F6
sg10
F103.5
saa(lp851
V095013
p852
a(dp853
g6
F103.5
sg7
F-0.5
sg8
F103
sg9
F2
sg10
F103.5
saa(lp854
V095023
p855
a(dp856
g6
F103.5
sg7
F-0.5
sg8
F103
sg9
F1
sg10
F103.5
saa(lp857
V095028
p858
a(dp859
g6
F103.5
sg7
F-0.5
sg8
F103
sg9
F2
sg10
F103.5
saa(lp860
V095033
p861
a(dp862
g6
F103.5
sg7
F-0.5
sg8
F103
sg9
F13
sg10
F103.5
saa(lp863
V095054
p864
a(dp865
g6
F104
sg7
F0
sg8
F103.5
sg9
F40
sg10
F104
saa(lp866
V095059
p867
a(dp868
g6
F104
sg7
F0
sg8
F103.5
sg9
F25
sg10
F104
saa(lp869
V095104
p870
a(dp871
g6
F104
sg7
F0
sg8
F103.5
sg9
F10
sg10
F104
saa(lp872
V095114
p873
a(dp874
g6
F104
sg7
F0
sg8
F103.5
sg9
F35
sg10
F104
saa(lp875
V095119
p876
a(dp877
g6
F104
sg7
F0
sg8
F103.5
sg9
F1
sg10
F104
saa(lp878
V095124
p879
a(dp880
g6
F104.5
sg7
F0
sg8
F104
sg9
F1
sg10
F104
saa(lp881
V095134
p882
a(dp883
g6
F104.5
sg7
F0.5
sg8
F104
sg9
F1
sg10
F104.5
saa(lp884
V095159
p885
a(dp886
g6
F104.5
sg7
F0.5
sg8
F104
sg9
F2
sg10
F104.5
saa(lp887
V095204
p888
a(dp889
g6
F104.5
sg7
F0.5
sg8
F104
sg9
F15
sg10
F104.5
saa(lp890
V095209
p891
a(dp892
g6
F104.5
sg7
F0
sg8
F104
sg9
F1
sg10
F104
saa(lp893
V095214
p894
a(dp895
g6
F104.5
sg7
F0.5
sg8
F104
sg9
F2
sg10
F104.5
saa(lp896
V095219
p897
a(dp898
g6
F104.5
sg7
F0.5
sg8
F104
sg9
F1
sg10
F104.5
saa(lp899
V095224
p900
a(dp901
g6
F104.5
sg7
F0.5
sg8
F104
sg9
F9
sg10
F104.5
saa(lp902
V095229
p903
a(dp904
g6
F104.5
sg7
F0.5
sg8
F104
sg9
F13
sg10
F104.5
saa(lp905
V095234
p906
a(dp907
g6
F104.5
sg7
F0.5
sg8
F104
sg9
F4
sg10
F104.5
saa(lp908
V095239
p909
a(dp910
g6
F104.5
sg7
F0.5
sg8
F104
sg9
F11
sg10
F104.5
saa(lp911
V095244
p912
a(dp913
g6
F104.5
sg7
F0.5
sg8
F104
sg9
F4
sg10
F104.5
saa(lp914
V095254
p915
a(dp916
g6
F104.5
sg7
F0.5
sg8
F104
sg9
F5
sg10
F104.5
saa(lp917
V095259
p918
a(dp919
g6
F104.5
sg7
F0.5
sg8
F104
sg9
F11
sg10
F104.5
saa(lp920
V095304
p921
a(dp922
g6
F104.5
sg7
F0.5
sg8
F104
sg9
F6
sg10
F104.5
saa(lp923
V095309
p924
a(dp925
g6
F105
sg7
F0.5
sg8
F104.5
sg9
F10
sg10
F104.5
saa(lp926
V095314
p927
a(dp928
g6
F105
sg7
F0.5
sg8
F104.5
sg9
F3
sg10
F104.5
saa(lp929
V095319
p930
a(dp931
g6
F104.5
sg7
F0.5
sg8
F104
sg9
F4
sg10
F104.5
saa(lp932
V095324
p933
a(dp934
g6
F105
sg7
F0.5
sg8
F104
sg9
F3
sg10
F104.5
saa(lp935
V095329
p936
a(dp937
g6
F105
sg7
F0.5
sg8
F104.5
sg9
F3
sg10
F104.5
saa(lp938
V095334
p939
a(dp940
g6
F104.5
sg7
F0.5
sg8
F104
sg9
F3
sg10
F104.5
saa(lp941
V095339
p942
a(dp943
g6
F104.5
sg7
F0.5
sg8
F104
sg9
F1
sg10
F104.5
saa(lp944
V095344
p945
a(dp946
g6
F104.5
sg7
F0.5
sg8
F104
sg9
F2
sg10
F104.5
saa(lp947
V095349
p948
a(dp949
g6
F104.5
sg7
F0.5
sg8
F104
sg9
F5
sg10
F104.5
saa(lp950
V095354
p951
a(dp952
g6
F105
sg7
F0.5
sg8
F104.5
sg9
F2
sg10
F104.5
saa(lp953
V095419
p954
a(dp955
g6
F105
sg7
F0.5
sg8
F104.5
sg9
F1
sg10
F104.5
saa(lp956
V095424
p957
a(dp958
g6
F105
sg7
F0.5
sg8
F104.5
sg9
F12
sg10
F104.5
saa(lp959
V095429
p960
a(dp961
g6
F105
sg7
F0.5
sg8
F104.5
sg9
F2
sg10
F104.5
saa(lp962
V095439
p963
a(dp964
g6
F104.5
sg7
F0.5
sg8
F104
sg9
F3
sg10
F104.5
saa(lp965
V095444
p966
a(dp967
g6
F104.5
sg7
F0
sg8
F104
sg9
F1
sg10
F104
saa(lp968
V095455
p969
a(dp970
g6
F104.5
sg7
F0.5
sg8
F104
sg9
F1
sg10
F104.5
saa(lp971
V095505
p972
a(dp973
g6
F104.5
sg7
F0.5
sg8
F104
sg9
F1
sg10
F104.5
saa(lp974
V095515
p975
a(dp976
g6
F104.5
sg7
F0.5
sg8
F104
sg9
F4
sg10
F104.5
saa(lp977
V095520
p978
a(dp979
g6
F104.5
sg7
F0.5
sg8
F104
sg9
F1
sg10
F104.5
saa(lp980
V095535
p981
a(dp982
g6
F104.5
sg7
F0.5
sg8
F104
sg9
F1
sg10
F104.5
saa(lp983
V095540
p984
a(dp985
g6
F104.5
sg7
F0.5
sg8
F104
sg9
F2
sg10
F104.5
saa(lp986
V095545
p987
a(dp988
g6
F104.5
sg7
F0.5
sg8
F104
sg9
F6
sg10
F104.5
saa(lp989
V095555
p990
a(dp991
g6
F104.5
sg7
F0.5
sg8
F104
sg9
F15
sg10
F104.5
saa(lp992
V095600
p993
a(dp994
g6
F104.5
sg7
F0.5
sg8
F104
sg9
F7
sg10
F104.5
saa(lp995
V095610
p996
a(dp997
g6
F105
sg7
F0.5
sg8
F104.5
sg9
F1
sg10
F104.5
saa(lp998
V095615
p999
a(dp1000
g6
F105
sg7
F1
sg8
F104.5
sg9
F10
sg10
F105
saa(lp1001
V095620
p1002
a(dp1003
g6
F105
sg7
F0.5
sg8
F104.5
sg9
F1
sg10
F104.5
saa(lp1004
V095650
p1005
a(dp1006
g6
F105
sg7
F0.5
sg8
F104.5
sg9
F1
sg10
F104.5
saa(lp1007
V095656
p1008
a(dp1009
g6
F105
sg7
F1
sg8
F104.5
sg9
F1
sg10
F105
saa(lp1010
V095721
p1011
a(dp1012
g6
F105
sg7
F1
sg8
F104.5
sg9
F8
sg10
F105
saa(lp1013
V095731
p1014
a(dp1015
g6
F105
sg7
F1
sg8
F104.5
sg9
F1
sg10
F105
saa(lp1016
V095741
p1017
a(dp1018
g6
F105
sg7
F1
sg8
F104.5
sg9
F20
sg10
F105
saa(lp1019
V095751
p1020
a(dp1021
g6
F105
sg7
F1
sg8
F104.5
sg9
F5
sg10
F105
saa(lp1022
V095756
p1023
a(dp1024
g6
F105
sg7
F1
sg8
F104.5
sg9
F1
sg10
F105
saa(lp1025
V095801
p1026
a(dp1027
g6
F105
sg7
F1
sg8
F104.5
sg9
F11
sg10
F105
saa(lp1028
V095806
p1029
a(dp1030
g6
F105
sg7
F1
sg8
F104.5
sg9
F1
sg10
F105
saa(lp1031
V095811
p1032
a(dp1033
g6
F105
sg7
F1
sg8
F104.5
sg9
F2
sg10
F105
saa(lp1034
V095821
p1035
a(dp1036
g6
F105
sg7
F0.5
sg8
F104.5
sg9
F1
sg10
F104.5
saa(lp1037
V095826
p1038
a(dp1039
g6
F105
sg7
F1
sg8
F104.5
sg9
F5
sg10
F105
saa(lp1040
V095836
p1041
a(dp1042
g6
F105
sg7
F1
sg8
F104.5
sg9
F1
sg10
F105
saa(lp1043
V095846
p1044
a(dp1045
g6
F105
sg7
F0.5
sg8
F104.5
sg9
F1
sg10
F104.5
saa(lp1046
V095851
p1047
a(dp1048
g6
F105
sg7
F1
sg8
F104.5
sg9
F1
sg10
F105
saa(lp1049
V095906
p1050
a(dp1051
g6
F105
sg7
F1
sg8
F104.5
sg9
F5
sg10
F105
saa(lp1052
V095911
p1053
a(dp1054
g6
F105
sg7
F1
sg8
F104.5
sg9
F1
sg10
F105
saa(lp1055
V095916
p1056
a(dp1057
g6
F105
sg7
F1
sg8
F104.5
sg9
F2
sg10
F105
saa(lp1058
V100011
p1059
a(dp1060
g6
F105
sg7
F1
sg8
F104.5
sg9
F1
sg10
F105
saa(lp1061
V100046
p1062
a(dp1063
g6
F105
sg7
F1
sg8
F104.5
sg9
F2
sg10
F105
saa(lp1064
V100106
p1065
a(dp1066
g6
F105
sg7
F1
sg8
F104.5
sg9
F2
sg10
F105
saa(lp1067
V100116
p1068
a(dp1069
g6
F105
sg7
F1
sg8
F104.5
sg9
F1
sg10
F105
saa(lp1070
V100137
p1071
a(dp1072
g6
F105
sg7
F1
sg8
F104.5
sg9
F1
sg10
F105
saa(lp1073
V100157
p1074
a(dp1075
g6
F105
sg7
F1
sg8
F104.5
sg9
F1
sg10
F105
saa(lp1076
V100212
p1077
a(dp1078
g6
F105
sg7
F1
sg8
F104.5
sg9
F18
sg10
F105
saa(lp1079
V100222
p1080
a(dp1081
g6
F105
sg7
F0.5
sg8
F104.5
sg9
F1
sg10
F104.5
saa(lp1082
V100302
p1083
a(dp1084
g6
F105
sg7
F1
sg8
F104.5
sg9
F3
sg10
F105
saa(lp1085
V100307
p1086
a(dp1087
g6
F105
sg7
F0.5
sg8
F104.5
sg9
F1
sg10
F104.5
saa(lp1088
V100312
p1089
a(dp1090
g6
F105
sg7
F0.5
sg8
F104.5
sg9
F6
sg10
F104.5
saa(lp1091
V100322
p1092
a(dp1093
g6
F105
sg7
F0.5
sg8
F104.5
sg9
F1
sg10
F104.5
saa(lp1094
V100332
p1095
a(dp1096
g6
F105
sg7
F1
sg8
F104.5
sg9
F1
sg10
F105
saa(lp1097
V100337
p1098
a(dp1099
g6
F105
sg7
F0.5
sg8
F104.5
sg9
F1
sg10
F104.5
saa(lp1100
V100342
p1101
a(dp1102
g6
F105
sg7
F0.5
sg8
F104.5
sg9
F1
sg10
F104.5
saa(lp1103
V100412
p1104
a(dp1105
g6
F105
sg7
F0.5
sg8
F104.5
sg9
F7
sg10
F104.5
saa(lp1106
V100452
p1107
a(dp1108
g6
F105
sg7
F1
sg8
F104.5
sg9
F2
sg10
F105
saa(lp1109
V100528
p1110
a(dp1111
g6
F105
sg7
F1
sg8
F104.5
sg9
F1
sg10
F105
saa(lp1112
V100548
p1113
a(dp1114
g6
F105
sg7
F1
sg8
F104.5
sg9
F1
sg10
F105
saa(lp1115
V100558
p1116
a(dp1117
g6
F105
sg7
F1
sg8
F104.5
sg9
F1
sg10
F105
saa(lp1118
V100608
p1119
a(dp1120
g6
F105
sg7
F0.5
sg8
F104.5
sg9
F1
sg10
F104.5
saa(lp1121
V100613
p1122
a(dp1123
g6
F105
sg7
F0.5
sg8
F104.5
sg9
F1
sg10
F104.5
saa(lp1124
V100618
p1125
a(dp1126
g6
F105
sg7
F0.5
sg8
F104.5
sg9
F2
sg10
F104.5
saa(lp1127
V100633
p1128
a(dp1129
g6
F105
sg7
F1
sg8
F104.5
sg9
F5
sg10
F105
saa(lp1130
V100638
p1131
a(dp1132
g6
F105
sg7
F0.5
sg8
F104.5
sg9
F1
sg10
F104.5
saa(lp1133
V100643
p1134
a(dp1135
g6
F105
sg7
F0.5
sg8
F104.5
sg9
F1
sg10
F104.5
saa(lp1136
V100648
p1137
a(dp1138
g6
F105
sg7
F0.5
sg8
F104.5
sg9
F1
sg10
F104.5
saa(lp1139
V100653
p1140
a(dp1141
g6
F105
sg7
F0.5
sg8
F104.5
sg9
F1
sg10
F104.5
saa(lp1142
V100658
p1143
a(dp1144
g6
F105
sg7
F0.5
sg8
F104.5
sg9
F3
sg10
F104.5
saa(lp1145
V100703
p1146
a(dp1147
g6
F105
sg7
F0.5
sg8
F104.5
sg9
F1
sg10
F104.5
saa(lp1148
V100708
p1149
a(dp1150
g6
F105
sg7
F0.5
sg8
F104.5
sg9
F1
sg10
F104.5
saa(lp1151
V100713
p1152
a(dp1153
g6
F105
sg7
F0.5
sg8
F104.5
sg9
F3
sg10
F104.5
saa(lp1154
V100718
p1155
a(dp1156
g6
F105
sg7
F0.5
sg8
F104.5
sg9
F3
sg10
F104.5
saa(lp1157
V100723
p1158
a(dp1159
g6
F105
sg7
F0.5
sg8
F104.5
sg9
F1
sg10
F104.5
saa(lp1160
V100728
p1161
a(dp1162
g6
F105
sg7
F0.5
sg8
F104.5
sg9
F1
sg10
F104.5
saa(lp1163
V100733
p1164
a(dp1165
g6
F105
sg7
F0.5
sg8
F104.5
sg9
F2
sg10
F104.5
saa(lp1166
V100738
p1167
a(dp1168
g6
F105
sg7
F0.5
sg8
F104.5
sg9
F2
sg10
F104.5
saa(lp1169
V100743
p1170
a(dp1171
g6
F105
sg7
F0.5
sg8
F104.5
sg9
F12
sg10
F104.5
saa(lp1172
V100748
p1173
a(dp1174
g6
F105
sg7
F0.5
sg8
F104.5
sg9
F5
sg10
F104.5
saa(lp1175
V100753
p1176
a(dp1177
g6
F105
sg7
F0.5
sg8
F104.5
sg9
F3
sg10
F104.5
saa(lp1178
V100758
p1179
a(dp1180
g6
F105
sg7
F0.5
sg8
F104.5
sg9
F4
sg10
F104.5
saa(lp1181
V100803
p1182
a(dp1183
g6
F105
sg7
F0.5
sg8
F104.5
sg9
F4
sg10
F104.5
saa(lp1184
V100809
p1185
a(dp1186
g6
F105
sg7
F0.5
sg8
F104.5
sg9
F17
sg10
F104.5
saa(lp1187
V100814
p1188
a(dp1189
g6
F105
sg7
F0.5
sg8
F104.5
sg9
F17
sg10
F104.5
saa(lp1190
V100819
p1191
a(dp1192
g6
F104.5
sg7
F0.5
sg8
F104
sg9
F1
sg10
F104.5
saa(lp1193
V100829
p1194
a(dp1195
g6
F104.5
sg7
F0
sg8
F104
sg9
F3
sg10
F104
saa(lp1196
V100909
p1197
a(dp1198
g6
F104.5
sg7
F0.5
sg8
F104
sg9
F1
sg10
F104.5
saa(lp1199
V100924
p1200
a(dp1201
g6
F104.5
sg7
F0
sg8
F104
sg9
F1
sg10
F104
saa(lp1202
V100944
p1203
a(dp1204
g6
F104.5
sg7
F0
sg8
F104
sg9
F2
sg10
F104
saa(lp1205
V100949
p1206
a(dp1207
g6
F104.5
sg7
F0.5
sg8
F104
sg9
F1
sg10
F104.5
saa(lp1208
V100954
p1209
a(dp1210
g6
F104.5
sg7
F0.5
sg8
F104
sg9
F1
sg10
F104.5
saa(lp1211
V101014
p1212
a(dp1213
g6
F104.5
sg7
F0.5
sg8
F104
sg9
F1
sg10
F104.5
saa(lp1214
V101034
p1215
a(dp1216
g6
F104.5
sg7
F0.5
sg8
F104
sg9
F1
sg10
F104.5
saa(lp1217
V101054
p1218
a(dp1219
g6
F104.5
sg7
F0
sg8
F104
sg9
F1
sg10
F104
saa(lp1220
V101119
p1221
a(dp1222
g6
F104.5
sg7
F0.5
sg8
F104
sg9
F1
sg10
F104.5
saa(lp1223
V101149
p1224
a(dp1225
g6
F104.5
sg7
F0
sg8
F104
sg9
F1
sg10
F104
saa(lp1226
V101204
p1227
a(dp1228
g6
F104.5
sg7
F0.5
sg8
F104
sg9
F1
sg10
F104.5
saa(lp1229
V101209
p1230
a(dp1231
g6
F104.5
sg7
F0
sg8
F104
sg9
F1
sg10
F104
saa(lp1232
V101250
p1233
a(dp1234
g6
F104.5
sg7
F0.5
sg8
F104
sg9
F1
sg10
F104.5
saa(lp1235
V101305
p1236
a(dp1237
g6
F104.5
sg7
F0
sg8
F104
sg9
F1
sg10
F104
saa(lp1238
V101310
p1239
a(dp1240
g6
F104.5
sg7
F0.5
sg8
F104
sg9
F1
sg10
F104.5
saa(lp1241
V101335
p1242
a(dp1243
g6
F104.5
sg7
F0.5
sg8
F104
sg9
F1
sg10
F104.5
saa(lp1244
V101405
p1245
a(dp1246
g6
F104.5
sg7
F0.5
sg8
F104
sg9
F1
sg10
F104.5
saa(lp1247
V101420
p1248
a(dp1249
g6
F104.5
sg7
F0.5
sg8
F104
sg9
F1
sg10
F104.5
saa(lp1250
V101500
p1251
a(dp1252
g6
F104.5
sg7
F0.5
sg8
F104
sg9
F1
sg10
F104.5
saa(lp1253
V101505
p1254
a(dp1255
g6
F104.5
sg7
F0.5
sg8
F104
sg9
F1
sg10
F104.5
saa(lp1256
V101531
p1257
a(dp1258
g6
F104.5
sg7
F0
sg8
F104
sg9
F5
sg10
F104
saa(lp1259
V101536
p1260
a(dp1261
g6
F104.5
sg7
F0
sg8
F104
sg9
F1
sg10
F104
saa(lp1262
V101546
p1263
a(dp1264
g6
F104.5
sg7
F0
sg8
F104
sg9
F1
sg10
F104
saa(lp1265
V101611
p1266
a(dp1267
g6
F104.5
sg7
F0
sg8
F104
sg9
F1
sg10
F104
saa(lp1268
V101621
p1269
a(dp1270
g6
F104.5
sg7
F0
sg8
F104
sg9
F1
sg10
F104
saa(lp1271
V101626
p1272
a(dp1273
g6
F104.5
sg7
F0
sg8
F104
sg9
F1
sg10
F104
saa(lp1274
V101631
p1275
a(dp1276
g6
F104.5
sg7
F0
sg8
F104
sg9
F1
sg10
F104
saa(lp1277
V101841
p1278
a(dp1279
g6
F104.5
sg7
F0
sg8
F104
sg9
F1
sg10
F104
saa(lp1280
V101906
p1281
a(dp1282
g6
F104.5
sg7
F0
sg8
F104
sg9
F15
sg10
F104
saa(lp1283
V101916
p1284
a(dp1285
g6
F104.5
sg7
F0
sg8
F104
sg9
F1
sg10
F104
saa(lp1286
V101927
p1287
a(dp1288
g6
F104.5
sg7
F0
sg8
F104
sg9
F1
sg10
F104
saa(lp1289
V101932
p1290
a(dp1291
g6
F104.5
sg7
F0
sg8
F104
sg9
F1
sg10
F104
saa(lp1292
V101937
p1293
a(dp1294
g6
F104.5
sg7
F0
sg8
F104
sg9
F1
sg10
F104
saa(lp1295
V101942
p1296
a(dp1297
g6
F104.5
sg7
F0
sg8
F104
sg9
F2
sg10
F104
saa(lp1298
V101947
p1299
a(dp1300
g6
F104.5
sg7
F0
sg8
F104
sg9
F2
sg10
F104
saa(lp1301
V101952
p1302
a(dp1303
g6
F104.5
sg7
F0
sg8
F104
sg9
F1
sg10
F104
saa(lp1304
V101957
p1305
a(dp1306
g6
F104.5
sg7
F0
sg8
F104
sg9
F2
sg10
F104
saa(lp1307
V102002
p1308
a(dp1309
g6
F104.5
sg7
F0
sg8
F104
sg9
F1
sg10
F104
saa(lp1310
V102007
p1311
a(dp1312
g6
F104.5
sg7
F0
sg8
F104
sg9
F11
sg10
F104
saa(lp1313
V102012
p1314
a(dp1315
g6
F104.5
sg7
F0
sg8
F104
sg9
F6
sg10
F104
saa(lp1316
V102017
p1317
a(dp1318
g6
F104.5
sg7
F0
sg8
F104
sg9
F2
sg10
F104
saa(lp1319
V102022
p1320
a(dp1321
g6
F104.5
sg7
F0
sg8
F104
sg9
F1
sg10
F104
saa(lp1322
V102027
p1323
a(dp1324
g6
F104.5
sg7
F0
sg8
F104
sg9
F1
sg10
F104
saa(lp1325
V102032
p1326
a(dp1327
g6
F104.5
sg7
F0
sg8
F104
sg9
F12
sg10
F104
saa(lp1328
V102037
p1329
a(dp1330
g6
F104.5
sg7
F0
sg8
F104
sg9
F2
sg10
F104
saa(lp1331
V102042
p1332
a(dp1333
g6
F104.5
sg7
F0
sg8
F104
sg9
F1
sg10
F104
saa(lp1334
V102047
p1335
a(dp1336
g6
F104.5
sg7
F0
sg8
F104
sg9
F3
sg10
F104
saa(lp1337
V102052
p1338
a(dp1339
g6
F104.5
sg7
F0
sg8
F104
sg9
F1
sg10
F104
saa(lp1340
V102057
p1341
a(dp1342
g6
F104.5
sg7
F0
sg8
F104
sg9
F1
sg10
F104
saa(lp1343
V102102
p1344
a(dp1345
g6
F104.5
sg7
F0
sg8
F104
sg9
F1
sg10
F104
saa(lp1346
V102152
p1347
a(dp1348
g6
F104.5
sg7
F0
sg8
F104
sg9
F1
sg10
F104
saa(lp1349
V102227
p1350
a(dp1351
g6
F104.5
sg7
F0
sg8
F104
sg9
F1
sg10
F104
saa(lp1352
V102237
p1353
a(dp1354
g6
F104.5
sg7
F0
sg8
F104
sg9
F1
sg10
F104
saa(lp1355
V102252
p1356
a(dp1357
g6
F104.5
sg7
F0
sg8
F104
sg9
F1
sg10
F104
saa(lp1358
V102257
p1359
a(dp1360
g6
F104.5
sg7
F0.5
sg8
F104
sg9
F1
sg10
F104.5
saa(lp1361
V102307
p1362
a(dp1363
g6
F104.5
sg7
F0
sg8
F104
sg9
F2
sg10
F104
saa(lp1364
V102312
p1365
a(dp1366
g6
F104.5
sg7
F0.5
sg8
F104
sg9
F1
sg10
F104.5
saa(lp1367
V102338
p1368
a(dp1369
g6
F104.5
sg7
F0
sg8
F104
sg9
F1
sg10
F104
saa(lp1370
V102403
p1371
a(dp1372
g6
F104.5
sg7
F0.5
sg8
F104
sg9
F2
sg10
F104.5
saa(lp1373
V102408
p1374
a(dp1375
g6
F104.5
sg7
F0.5
sg8
F104
sg9
F1
sg10
F104.5
saa(lp1376
V102503
p1377
a(dp1378
g6
F104.5
sg7
F0
sg8
F104
sg9
F5
sg10
F104
saa(lp1379
V102508
p1380
a(dp1381
g6
F104.5
sg7
F0.5
sg8
F104
sg9
F2
sg10
F104.5
saa(lp1382
V102513
p1383
a(dp1384
g6
F104.5
sg7
F0.5
sg8
F104
sg9
F1
sg10
F104.5
saa(lp1385
V102523
p1386
a(dp1387
g6
F104.5
sg7
F0.5
sg8
F104
sg9
F2
sg10
F104.5
saa(lp1388
V102529
p1389
a(dp1390
g6
F104.5
sg7
F0.5
sg8
F104
sg9
F2
sg10
F104.5
saa(lp1391
V102534
p1392
a(dp1393
g6
F104.5
sg7
F0.5
sg8
F104
sg9
F1
sg10
F104.5
saa(lp1394
V102539
p1395
a(dp1396
g6
F104.5
sg7
F0
sg8
F104
sg9
F2
sg10
F104
saa(lp1397
V102544
p1398
a(dp1399
g6
F104.5
sg7
F0
sg8
F104
sg9
F1
sg10
F104
saa(lp1400
V102554
p1401
a(dp1402
g6
F104.5
sg7
F0
sg8
F104
sg9
F1
sg10
F104
saa(lp1403
V102804
p1404
a(dp1405
g6
F104.5
sg7
F0.5
sg8
F104
sg9
F2
sg10
F104.5
saa(lp1406
V102809
p1407
a(dp1408
g6
F104.5
sg7
F0.5
sg8
F104
sg9
F1
sg10
F104.5
saa(lp1409
V102824
p1410
a(dp1411
g6
F104.5
sg7
F0
sg8
F104
sg9
F1
sg10
F104
saa(lp1412
V102834
p1413
a(dp1414
g6
F104.5
sg7
F0
sg8
F104
sg9
F2
sg10
F104
saa(lp1415
V102839
p1416
a(dp1417
g6
F104.5
sg7
F0.5
sg8
F104
sg9
F1
sg10
F104.5
saa(lp1418
V102914
p1419
a(dp1420
g6
F104.5
sg7
F0
sg8
F104
sg9
F1
sg10
F104
saa(lp1421
V102934
p1422
a(dp1423
g6
F104.5
sg7
F0.5
sg8
F104
sg9
F1
sg10
F104.5
saa(lp1424
V102954
p1425
a(dp1426
g6
F104.5
sg7
F0
sg8
F104
sg9
F2
sg10
F104
saa(lp1427
V103004
p1428
a(dp1429
g6
F104.5
sg7
F0
sg8
F104
sg9
F2
sg10
F104
saa(lp1430
V103055
p1431
a(dp1432
g6
F104.5
sg7
F0
sg8
F104
sg9
F3
sg10
F104
saa(lp1433
V103100
p1434
a(dp1435
g6
F104.5
sg7
F0
sg8
F104
sg9
F1
sg10
F104
saa(lp1436
V103105
p1437
a(dp1438
g6
F104.5
sg7
F0
sg8
F104
sg9
F2
sg10
F104
saa(lp1439
V103130
p1440
a(dp1441
g6
F104.5
sg7
F0
sg8
F104
sg9
F1
sg10
F104
saa(lp1442
V103155
p1443
a(dp1444
g6
F104.5
sg7
F0
sg8
F104
sg9
F2
sg10
F104
saa(lp1445
V103210
p1446
a(dp1447
g6
F104.5
sg7
F0
sg8
F104
sg9
F1
sg10
F104
saa(lp1448
V103220
p1449
a(dp1450
g6
F104.5
sg7
F0.5
sg8
F104
sg9
F50
sg10
F104.5
saa(lp1451
V103230
p1452
a(dp1453
g6
F104.5
sg7
F0
sg8
F104
sg9
F7
sg10
F104
saa(lp1454
V103240
p1455
a(dp1456
g6
F104.5
sg7
F0.5
sg8
F104
sg9
F50
sg10
F104.5
saa(lp1457
V103250
p1458
a(dp1459
g6
F104.5
sg7
F0
sg8
F104
sg9
F4
sg10
F104
saa(lp1460
V103330
p1461
a(dp1462
g6
F104.5
sg7
F0.5
sg8
F104
sg9
F50
sg10
F104.5
saa(lp1463
V103335
p1464
a(dp1465
g6
F104.5
sg7
F0.5
sg8
F104
sg9
F3
sg10
F104.5
saa(lp1466
V103340
p1467
a(dp1468
g6
F104.5
sg7
F0.5
sg8
F104
sg9
F35
sg10
F104.5
saa(lp1469
V103345
p1470
a(dp1471
g6
F105
sg7
F0.5
sg8
F104.5
sg9
F11
sg10
F104.5
saa(lp1472
V103436
p1473
a(dp1474
g6
F105
sg7
F0.5
sg8
F104.5
sg9
F1
sg10
F104.5
saa(lp1475
V103827
p1476
a(dp1477
g6
F105
sg7
F0.5
sg8
F104.5
sg9
F2
sg10
F104.5
saa(lp1478
V103837
p1479
a(dp1480
g6
F105
sg7
F0.5
sg8
F104.5
sg9
F1
sg10
F104.5
saa(lp1481
V103842
p1482
a(dp1483
g6
F105
sg7
F0.5
sg8
F104.5
sg9
F1
sg10
F104.5
saa(lp1484
V103927
p1485
a(dp1486
g6
F105
sg7
F0.5
sg8
F104.5
sg9
F2
sg10
F104.5
saa(lp1487
V104117
p1488
a(dp1489
g6
F105
sg7
F0.5
sg8
F104.5
sg9
F1
sg10
F104.5
saa(lp1490
V104148
p1491
a(dp1492
g6
F105
sg7
F1
sg8
F104.5
sg9
F4
sg10
F105
saa(lp1493
V104153
p1494
a(dp1495
g6
F105
sg7
F0.5
sg8
F104.5
sg9
F1
sg10
F104.5
saa(lp1496
V104233
p1497
a(dp1498
g6
F105
sg7
F0.5
sg8
F104.5
sg9
F2
sg10
F104.5
saa(lp1499
V104243
p1500
a(dp1501
g6
F105
sg7
F0.5
sg8
F104.5
sg9
F1
sg10
F104.5
saa(lp1502
V104343
p1503
a(dp1504
g6
F105
sg7
F1
sg8
F104.5
sg9
F1
sg10
F105
saa(lp1505
V104453
p1506
a(dp1507
g6
F105
sg7
F0.5
sg8
F104.5
sg9
F1
sg10
F104.5
saa(lp1508
V104513
p1509
a(dp1510
g6
F105
sg7
F0.5
sg8
F104.5
sg9
F13
sg10
F104.5
saa(lp1511
V104524
p1512
a(dp1513
g6
F105
sg7
F0.5
sg8
F104.5
sg9
F1
sg10
F104.5
saa(lp1514
V104549
p1515
a(dp1516
g6
F105
sg7
F0.5
sg8
F104.5
sg9
F1
sg10
F104.5
saa(lp1517
V104734
p1518
a(dp1519
g6
F105
sg7
F0.5
sg8
F104.5
sg9
F1
sg10
F104.5
saa(lp1520
V104744
p1521
a(dp1522
g6
F105
sg7
F1
sg8
F104.5
sg9
F2
sg10
F105
saa(lp1523
V104749
p1524
a(dp1525
g6
F105
sg7
F0.5
sg8
F104.5
sg9
F1
sg10
F104.5
saa(lp1526
V104835
p1527
a(dp1528
g6
F105
sg7
F1
sg8
F104.5
sg9
F1
sg10
F105
saa(lp1529
V104955
p1530
a(dp1531
g6
F105
sg7
F0.5
sg8
F104.5
sg9
F1
sg10
F104.5
saa(lp1532
V105030
p1533
a(dp1534
g6
F105
sg7
F0.5
sg8
F104.5
sg9
F1
sg10
F104.5
saa(lp1535
V105040
p1536
a(dp1537
g6
F105
sg7
F0.5
sg8
F104.5
sg9
F5
sg10
F104.5
saa(lp1538
V105105
p1539
a(dp1540
g6
F105
sg7
F0.5
sg8
F104.5
sg9
F1
sg10
F104.5
saa(lp1541
V105115
p1542
a(dp1543
g6
F105
sg7
F0.5
sg8
F104.5
sg9
F1
sg10
F104.5
saa(lp1544
V105125
p1545
a(dp1546
g6
F105
sg7
F0.5
sg8
F104.5
sg9
F1
sg10
F104.5
saa(lp1547
V105140
p1548
a(dp1549
g6
F105
sg7
F0.5
sg8
F104.5
sg9
F6
sg10
F104.5
saa(lp1550
V105145
p1551
a(dp1552
g6
F105
sg7
F1
sg8
F104.5
sg9
F4
sg10
F105
saa(lp1553
V105150
p1554
a(dp1555
g6
F105
sg7
F0.5
sg8
F104.5
sg9
F1
sg10
F104.5
saa(lp1556
V105205
p1557
a(dp1558
g6
F105
sg7
F0.5
sg8
F104.5
sg9
F1
sg10
F104.5
saa(lp1559
V105226
p1560
a(dp1561
g6
F105
sg7
F1
sg8
F104.5
sg9
F2
sg10
F105
saa(lp1562
V105316
p1563
a(dp1564
g6
F105
sg7
F1
sg8
F104.5
sg9
F1
sg10
F105
saa(lp1565
V105341
p1566
a(dp1567
g6
F105
sg7
F0.5
sg8
F104.5
sg9
F11
sg10
F104.5
saa(lp1568
V105351
p1569
a(dp1570
g6
F105
sg7
F0.5
sg8
F104.5
sg9
F1
sg10
F104.5
saa(lp1571
V105411
p1572
a(dp1573
g6
F105
sg7
F0.5
sg8
F104.5
sg9
F1
sg10
F104.5
saa(lp1574
V105421
p1575
a(dp1576
g6
F105
sg7
F0.5
sg8
F104.5
sg9
F1
sg10
F104.5
saa(lp1577
V105431
p1578
a(dp1579
g6
F105
sg7
F0.5
sg8
F104.5
sg9
F2
sg10
F104.5
saa(lp1580
V105436
p1581
a(dp1582
g6
F105
sg7
F0.5
sg8
F104.5
sg9
F2
sg10
F104.5
saa(lp1583
V105537
p1584
a(dp1585
g6
F105
sg7
F0.5
sg8
F104.5
sg9
F2
sg10
F104.5
saa(lp1586
V105552
p1587
a(dp1588
g6
F105
sg7
F0.5
sg8
F104.5
sg9
F1
sg10
F104.5
saa(lp1589
V105602
p1590
a(dp1591
g6
F105
sg7
F1
sg8
F104.5
sg9
F2
sg10
F105
saa(lp1592
V105617
p1593
a(dp1594
g6
F105
sg7
F0.5
sg8
F104.5
sg9
F1
sg10
F104.5
saa(lp1595
V105647
p1596
a(dp1597
g6
F105
sg7
F0.5
sg8
F104.5
sg9
F1
sg10
F104.5
saa(lp1598
V105722
p1599
a(dp1600
g6
F105
sg7
F0.5
sg8
F104.5
sg9
F1
sg10
F104.5
saa(lp1601
V105727
p1602
a(dp1603
g6
F105
sg7
F0.5
sg8
F104.5
sg9
F1
sg10
F104.5
saa(lp1604
V105732
p1605
a(dp1606
g6
F105
sg7
F0.5
sg8
F104.5
sg9
F1
sg10
F104.5
saa(lp1607
V105737
p1608
a(dp1609
g6
F105
sg7
F0.5
sg8
F104.5
sg9
F1
sg10
F104.5
saa(lp1610
V105742
p1611
a(dp1612
g6
F105
sg7
F0.5
sg8
F104.5
sg9
F4
sg10
F104.5
saa(lp1613
V105757
p1614
a(dp1615
g6
F105
sg7
F1
sg8
F104.5
sg9
F1
sg10
F105
saa(lp1616
V105802
p1617
a(dp1618
g6
F105
sg7
F0.5
sg8
F104.5
sg9
F2
sg10
F104.5
saa(lp1619
V105812
p1620
a(dp1621
g6
F105
sg7
F0.5
sg8
F104.5
sg9
F6
sg10
F104.5
saa(lp1622
V105817
p1623
a(dp1624
g6
F105
sg7
F0.5
sg8
F104.5
sg9
F6
sg10
F104.5
saa(lp1625
V105822
p1626
a(dp1627
g6
F105
sg7
F0.5
sg8
F104.5
sg9
F6
sg10
F104.5
saa(lp1628
V105832
p1629
a(dp1630
g6
F105
sg7
F0.5
sg8
F104.5
sg9
F1
sg10
F104.5
saa(lp1631
V105842
p1632
a(dp1633
g6
F105
sg7
F0.5
sg8
F104.5
sg9
F12
sg10
F104.5
saa(lp1634
V105847
p1635
a(dp1636
g6
F105
sg7
F0.5
sg8
F104.5
sg9
F10
sg10
F104.5
saa(lp1637
V105852
p1638
a(dp1639
g6
F105
sg7
F0.5
sg8
F104.5
sg9
F43
sg10
F104.5
saa(lp1640
V105858
p1641
a(dp1642
g6
F105
sg7
F0.5
sg8
F104.5
sg9
F11
sg10
F104.5
saa(lp1643
V105903
p1644
a(dp1645
g6
F104.5
sg7
F0.5
sg8
F104
sg9
F10
sg10
F104.5
saa(lp1646
V105908
p1647
a(dp1648
g6
F104.5
sg7
F0
sg8
F104
sg9
F3
sg10
F104
saa(lp1649
V105913
p1650
a(dp1651
g6
F104.5
sg7
F0
sg8
F104
sg9
F5
sg10
F104
saa(lp1652
V110038
p1653
a(dp1654
g6
F104.5
sg7
F0
sg8
F104
sg9
F1
sg10
F104
saa(lp1655
V110053
p1656
a(dp1657
g6
F104.5
sg7
F0.5
sg8
F104
sg9
F2
sg10
F104.5
saa(lp1658
V110103
p1659
a(dp1660
g6
F104.5
sg7
F0
sg8
F104
sg9
F1
sg10
F104
saa(lp1661
V110108
p1662
a(dp1663
g6
F104.5
sg7
F0
sg8
F104
sg9
F2
sg10
F104
saa(lp1664
V110208
p1665
a(dp1666
g6
F104.5
sg7
F0
sg8
F104
sg9
F2
sg10
F104
saa(lp1667
V110304
p1668
a(dp1669
g6
F104.5
sg7
F0
sg8
F104
sg9
F1
sg10
F104
saa(lp1670
V110344
p1671
a(dp1672
g6
F104.5
sg7
F0.5
sg8
F104
sg9
F2
sg10
F104.5
saa(lp1673
V110349
p1674
a(dp1675
g6
F104.5
sg7
F0.5
sg8
F104
sg9
F1
sg10
F104.5
saa(lp1676
V110354
p1677
a(dp1678
g6
F104.5
sg7
F0
sg8
F104
sg9
F1
sg10
F104
saa(lp1679
V110429
p1680
a(dp1681
g6
F104.5
sg7
F0
sg8
F104
sg9
F2
sg10
F104
saa(lp1682
V110439
p1683
a(dp1684
g6
F104.5
sg7
F0
sg8
F104
sg9
F1
sg10
F104
saa(lp1685
V110530
p1686
a(dp1687
g6
F104.5
sg7
F0
sg8
F104
sg9
F2
sg10
F104
saa(lp1688
V110540
p1689
a(dp1690
g6
F104.5
sg7
F0
sg8
F104
sg9
F2
sg10
F104
saa(lp1691
V110550
p1692
a(dp1693
g6
F104.5
sg7
F0
sg8
F104
sg9
F4
sg10
F104
saa(lp1694
V110555
p1695
a(dp1696
g6
F104.5
sg7
F0.5
sg8
F104
sg9
F1
sg10
F104.5
saa(lp1697
V110630
p1698
a(dp1699
g6
F104.5
sg7
F0
sg8
F104
sg9
F2
sg10
F104
saa(lp1700
V110635
p1701
a(dp1702
g6
F104.5
sg7
F0.5
sg8
F104
sg9
F2
sg10
F104.5
saa(lp1703
V110640
p1704
a(dp1705
g6
F104.5
sg7
F0
sg8
F104
sg9
F1
sg10
F104
saa(lp1706
V110725
p1707
a(dp1708
g6
F104.5
sg7
F0
sg8
F104
sg9
F1
sg10
F104
saa(lp1709
V110730
p1710
a(dp1711
g6
F104.5
sg7
F0
sg8
F104
sg9
F2
sg10
F104
saa(lp1712
V110735
p1713
a(dp1714
g6
F104.5
sg7
F0.5
sg8
F104
sg9
F1
sg10
F104.5
saa(lp1715
V110755
p1716
a(dp1717
g6
F104.5
sg7
F0.5
sg8
F104
sg9
F1
sg10
F104.5
saa(lp1718
V110830
p1719
a(dp1720
g6
F104.5
sg7
F0
sg8
F104
sg9
F2
sg10
F104
saa(lp1721
V110835
p1722
a(dp1723
g6
F104.5
sg7
F0
sg8
F104
sg9
F1
sg10
F104
saa(lp1724
V110905
p1725
a(dp1726
g6
F104.5
sg7
F0
sg8
F104
sg9
F2
sg10
F104
saa(lp1727
V110915
p1728
a(dp1729
g6
F104.5
sg7
F0
sg8
F104
sg9
F1
sg10
F104
saa(lp1730
V110920
p1731
a(dp1732
g6
F104.5
sg7
F0.5
sg8
F104
sg9
F3
sg10
F104.5
saa(lp1733
V110925
p1734
a(dp1735
g6
F104.5
sg7
F0.5
sg8
F104
sg9
F1
sg10
F104.5
saa(lp1736
V111001
p1737
a(dp1738
g6
F104.5
sg7
F0
sg8
F104
sg9
F2
sg10
F104
saa(lp1739
V111046
p1740
a(dp1741
g6
F104.5
sg7
F0
sg8
F104
sg9
F2
sg10
F104
saa(lp1742
V111101
p1743
a(dp1744
g6
F104.5
sg7
F0
sg8
F104
sg9
F2
sg10
F104
saa(lp1745
V111136
p1746
a(dp1747
g6
F104.5
sg7
F0
sg8
F104
sg9
F1
sg10
F104
saa(lp1748
V111156
p1749
a(dp1750
g6
F104.5
sg7
F0
sg8
F104
sg9
F3
sg10
F104
saa(lp1751
V111201
p1752
a(dp1753
g6
F104.5
sg7
F0
sg8
F104
sg9
F5
sg10
F104
saa(lp1754
V111206
p1755
a(dp1756
g6
F104.5
sg7
F0
sg8
F104
sg9
F1
sg10
F104
saa(lp1757
V111236
p1758
a(dp1759
g6
F104.5
sg7
F0
sg8
F104
sg9
F2
sg10
F104
saa(lp1760
V111256
p1761
a(dp1762
g6
F104.5
sg7
F0
sg8
F104
sg9
F2
sg10
F104
saa(lp1763
V111301
p1764
a(dp1765
g6
F104.5
sg7
F0.5
sg8
F104
sg9
F1
sg10
F104.5
saa(lp1766
V111306
p1767
a(dp1768
g6
F104.5
sg7
F0
sg8
F104
sg9
F1
sg10
F104
saa(lp1769
V111311
p1770
a(dp1771
g6
F104.5
sg7
F0
sg8
F104
sg9
F50
sg10
F104
saa(lp1772
V111316
p1773
a(dp1774
g6
F104.5
sg7
F0.5
sg8
F104
sg9
F5
sg10
F104.5
saa(lp1775
V111321
p1776
a(dp1777
g6
F104.5
sg7
F0
sg8
F104
sg9
F4
sg10
F104
saa(lp1778
V111357
p1779
a(dp1780
g6
F104.5
sg7
F0
sg8
F104
sg9
F2
sg10
F104
saa(lp1781
V111402
p1782
a(dp1783
g6
F104.5
sg7
F0.5
sg8
F104
sg9
F55
sg10
F104.5
saa(lp1784
V111407
p1785
a(dp1786
g6
F104.5
sg7
F0
sg8
F104
sg9
F9
sg10
F104
saa(lp1787
V111417
p1788
a(dp1789
g6
F104.5
sg7
F0
sg8
F104
sg9
F2
sg10
F104
saa(lp1790
V111437
p1791
a(dp1792
g6
F104.5
sg7
F0
sg8
F104
sg9
F100
sg10
F104
saa(lp1793
V111442
p1794
a(dp1795
g6
F104.5
sg7
F0.5
sg8
F104
sg9
F9
sg10
F104.5
saa(lp1796
V111452
p1797
a(dp1798
g6
F104.5
sg7
F0
sg8
F104
sg9
F8
sg10
F104
saa(lp1799
V111457
p1800
a(dp1801
g6
F104.5
sg7
F0.5
sg8
F104
sg9
F1
sg10
F104.5
saa(lp1802
V111522
p1803
a(dp1804
g6
F104.5
sg7
F0
sg8
F104
sg9
F1
sg10
F104
saa(lp1805
V111558
p1806
a(dp1807
g6
F104.5
sg7
F0
sg8
F104
sg9
F5
sg10
F104
saa(lp1808
V111608
p1809
a(dp1810
g6
F104.5
sg7
F0
sg8
F104
sg9
F1
sg10
F104
saa(lp1811
V111613
p1812
a(dp1813
g6
F104.5
sg7
F0
sg8
F104
sg9
F1
sg10
F104
saa(lp1814
V111643
p1815
a(dp1816
g6
F104.5
sg7
F0
sg8
F104
sg9
F9
sg10
F104
saa(lp1817
V111648
p1818
a(dp1819
g6
F104.5
sg7
F0.5
sg8
F104
sg9
F1
sg10
F104.5
saa(lp1820
V111653
p1821
a(dp1822
g6
F104.5
sg7
F0
sg8
F104
sg9
F1
sg10
F104
saa(lp1823
V111728
p1824
a(dp1825
g6
F104.5
sg7
F0.5
sg8
F104
sg9
F3
sg10
F104.5
saa(lp1826
V111733
p1827
a(dp1828
g6
F104.5
sg7
F0.5
sg8
F104
sg9
F1
sg10
F104.5
saa(lp1829
V111808
p1830
a(dp1831
g6
F104.5
sg7
F0
sg8
F104
sg9
F5
sg10
F104
saa(lp1832
V111813
p1833
a(dp1834
g6
F104.5
sg7
F0
sg8
F104
sg9
F1
sg10
F104
saa(lp1835
V111818
p1836
a(dp1837
g6
F104.5
sg7
F0
sg8
F104
sg9
F1
sg10
F104
saa(lp1838
V112023
p1839
a(dp1840
g6
F104.5
sg7
F0.5
sg8
F104
sg9
F3
sg10
F104.5
saa(lp1841
V112029
p1842
a(dp1843
g6
F104.5
sg7
F0.5
sg8
F104
sg9
F1
sg10
F104.5
saa(lp1844
V112044
p1845
a(dp1846
g6
F104.5
sg7
F0
sg8
F104
sg9
F10
sg10
F104
saa(lp1847
V112049
p1848
a(dp1849
g6
F104.5
sg7
F0.5
sg8
F104
sg9
F1
sg10
F104.5
saa(lp1850
V112059
p1851
a(dp1852
g6
F104.5
sg7
F0
sg8
F104
sg9
F1
sg10
F104
saa(lp1853
V112309
p1854
a(dp1855
g6
F104.5
sg7
F0.5
sg8
F104
sg9
F3
sg10
F104.5
saa(lp1856
V112429
p1857
a(dp1858
g6
F104.5
sg7
F0
sg8
F104
sg9
F1
sg10
F104
saa(lp1859
V112545
p1860
a(dp1861
g6
F104.5
sg7
F0.5
sg8
F104
sg9
F3
sg10
F104.5
saa(lp1862
V112550
p1863
a(dp1864
g6
F104.5
sg7
F0.5
sg8
F104
sg9
F1
sg10
F104.5
saa(lp1865
V112555
p1866
a(dp1867
g6
F104.5
sg7
F0
sg8
F104
sg9
F1
sg10
F104
saa(lp1868
V112636
p1869
a(dp1870
g6
F104.5
sg7
F0
sg8
F104
sg9
F1
sg10
F104
saa(lp1871
V112646
p1872
a(dp1873
g6
F104.5
sg7
F0
sg8
F104
sg9
F10
sg10
F104
saa(lp1874
V112651
p1875
a(dp1876
g6
F104.5
sg7
F0.5
sg8
F104
sg9
F1
sg10
F104.5
saa(lp1877
V112656
p1878
a(dp1879
g6
F104.5
sg7
F0
sg8
F104
sg9
F1
sg10
F104
saa(lp1880
V112831
p1881
a(dp1882
g6
F104.5
sg7
F0.5
sg8
F104
sg9
F4
sg10
F104.5
saa(lp1883
V112841
p1884
a(dp1885
g6
F104.5
sg7
F0
sg8
F104
sg9
F1
sg10
F104
saa(lp1886
V112941
p1887
a(dp1888
g6
F104.5
sg7
F0
sg8
F104
sg9
F1
sg10
F104
saa(lp1889
V113001
p1890
a(dp1891
g6
F104.5
sg7
F0
sg8
F104
sg9
F2
sg10
F104
saa(lp1892
V113006
p1893
a(dp1894
g6
F104.5
sg7
F0.5
sg8
F104
sg9
F1
sg10
F104.5
saa(lp1895
V113011
p1896
a(dp1897
g6
F104.5
sg7
F0
sg8
F104
sg9
F12
sg10
F104
saa(lp1898
V113016
p1899
a(dp1900
g6
F104.5
sg7
F0.5
sg8
F104
sg9
F1
sg10
F104.5
saa(lp1901
V113021
p1902
a(dp1903
g6
F104.5
sg7
F0
sg8
F104
sg9
F2
sg10
F104
saa(lp1904
V113051
p1905
a(dp1906
g6
F104.5
sg7
F0.5
sg8
F104
sg9
F1
sg10
F104.5
saa(lp1907
V113127
p1908
a(dp1909
g6
F104.5
sg7
F0.5
sg8
F104
sg9
F5
sg10
F104.5
saa(lp1910
V113132
p1911
a(dp1912
g6
F104.5
sg7
F0.5
sg8
F104
sg9
F1
sg10
F104.5
saa(lp1913
V113142
p1914
a(dp1915
g6
F104.5
sg7
F0
sg8
F104
sg9
F1
sg10
F104
saa(lp1916
V113212
p1917
a(dp1918
g6
F104.5
sg7
F0.5
sg8
F104
sg9
F2
sg10
F104.5
saa(lp1919
V113222
p1920
a(dp1921
g6
F104.5
sg7
F0.5
sg8
F104
sg9
F1
sg10
F104.5
saa(lp1922
V113232
p1923
a(dp1924
g6
F104.5
sg7
F0
sg8
F104
sg9
F1
sg10
F104
saa(lp1925
V113312
p1926
a(dp1927
g6
F104.5
sg7
F0.5
sg8
F104
sg9
F1
sg10
F104.5
saa(lp1928
V113332
p1929
a(dp1930
g6
F104.5
sg7
F0
sg8
F104
sg9
F5
sg10
F104
saa(lp1931
V113337
p1932
a(dp1933
g6
F104.5
sg7
F0.5
sg8
F104
sg9
F1
sg10
F104.5
saa(lp1934
V113357
p1935
a(dp1936
g6
F104.5
sg7
F0.5
sg8
F104
sg9
F1
sg10
F104.5
saa(lp1937
V113407
p1938
a(dp1939
g6
F104.5
sg7
F0.5
sg8
F104
sg9
F4
sg10
F104.5
saa(lp1940
V113417
p1941
a(dp1942
g6
F104.5
sg7
F0
sg8
F104
sg9
F1
sg10
F104
saa(lp1943
V113523
p1944
a(dp1945
g6
F104.5
sg7
F0.5
sg8
F104
sg9
F1
sg10
F104.5
saa(lp1946
V113528
p1947
a(dp1948
g6
F104.5
sg7
F0
sg8
F104
sg9
F1
sg10
F104
saa(lp1949
V113533
p1950
a(dp1951
g6
F104.5
sg7
F0.5
sg8
F104
sg9
F1
sg10
F104.5
saa(lp1952
V113538
p1953
a(dp1954
g6
F104.5
sg7
F0.5
sg8
F104
sg9
F1
sg10
F104.5
saa(lp1955
V113623
p1956
a(dp1957
g6
F104.5
sg7
F0
sg8
F104
sg9
F1
sg10
F104
saa(lp1958
V113658
p1959
a(dp1960
g6
F104.5
sg7
F0.5
sg8
F104
sg9
F4
sg10
F104.5
saa(lp1961
V113703
p1962
a(dp1963
g6
F104.5
sg7
F0.5
sg8
F104
sg9
F4
sg10
F104.5
saa(lp1964
V113708
p1965
a(dp1966
g6
F104.5
sg7
F0
sg8
F104
sg9
F1
sg10
F104
saa(lp1967
V113713
p1968
a(dp1969
g6
F104.5
sg7
F0.5
sg8
F104
sg9
F1
sg10
F104.5
saa(lp1970
V113729
p1971
a(dp1972
g6
F104.5
sg7
F0
sg8
F104
sg9
F1
sg10
F104
saa(lp1973
V113744
p1974
a(dp1975
g6
F104.5
sg7
F0
sg8
F104
sg9
F9
sg10
F104
saa(lp1976
V113754
p1977
a(dp1978
g6
F104.5
sg7
F0
sg8
F104
sg9
F1
sg10
F104
saa(lp1979
V113839
p1980
a(dp1981
g6
F104.5
sg7
F0
sg8
F104
sg9
F2
sg10
F104
saa(lp1982
V113914
p1983
a(dp1984
g6
F104.5
sg7
F0
sg8
F104
sg9
F1
sg10
F104
saa(lp1985
V113939
p1986
a(dp1987
g6
F104.5
sg7
F0.5
sg8
F104
sg9
F3
sg10
F104.5
saa(lp1988
V114014
p1989
a(dp1990
g6
F104.5
sg7
F0.5
sg8
F104
sg9
F1
sg10
F104.5
saa(lp1991
V114134
p1992
a(dp1993
g6
F104.5
sg7
F0.5
sg8
F104
sg9
F1
sg10
F104.5
saa(lp1994
V114144
p1995
a(dp1996
g6
F104.5
sg7
F0.5
sg8
F104
sg9
F1
sg10
F104.5
saa(lp1997
V114210
p1998
a(dp1999
g6
F104.5
sg7
F0
sg8
F104
sg9
F1
sg10
F104
saa(lp2000
V114215
p2001
a(dp2002
g6
F104.5
sg7
F0.5
sg8
F104
sg9
F1
sg10
F104.5
saa(lp2003
V114220
p2004
a(dp2005
g6
F104.5
sg7
F0
sg8
F104
sg9
F1
sg10
F104
saa(lp2006
V114225
p2007
a(dp2008
g6
F104.5
sg7
F0.5
sg8
F104
sg9
F4
sg10
F104.5
saa(lp2009
V114230
p2010
a(dp2011
g6
F104.5
sg7
F0
sg8
F104
sg9
F2
sg10
F104
saa(lp2012
V114240
p2013
a(dp2014
g6
F104.5
sg7
F0
sg8
F104
sg9
F2
sg10
F104
saa(lp2015
V114245
p2016
a(dp2017
g6
F104.5
sg7
F0.5
sg8
F104
sg9
F1
sg10
F104.5
saa(lp2018
V114300
p2019
a(dp2020
g6
F104.5
sg7
F0.5
sg8
F104
sg9
F1
sg10
F104.5
saa(lp2021
V114330
p2022
a(dp2023
g6
F104.5
sg7
F0
sg8
F104
sg9
F2
sg10
F104
saa(lp2024
V114340
p2025
a(dp2026
g6
F104.5
sg7
F0
sg8
F104
sg9
F1
sg10
F104
saa(lp2027
V114350
p2028
a(dp2029
g6
F104.5
sg7
F0.5
sg8
F104
sg9
F1
sg10
F104.5
saa(lp2030
V114355
p2031
a(dp2032
g6
F104.5
sg7
F0
sg8
F104
sg9
F1
sg10
F104
saa(lp2033
V114410
p2034
a(dp2035
g6
F104.5
sg7
F0.5
sg8
F104
sg9
F1
sg10
F104.5
saa(lp2036
V114425
p2037
a(dp2038
g6
F104.5
sg7
F0.5
sg8
F104
sg9
F1
sg10
F104.5
saa(lp2039
V114435
p2040
a(dp2041
g6
F104.5
sg7
F0.5
sg8
F104
sg9
F2
sg10
F104.5
saa(lp2042
V114440
p2043
a(dp2044
g6
F104.5
sg7
F0.5
sg8
F104
sg9
F2
sg10
F104.5
saa(lp2045
V114445
p2046
a(dp2047
g6
F104.5
sg7
F0.5
sg8
F104
sg9
F2
sg10
F104.5
saa(lp2048
V114455
p2049
a(dp2050
g6
F104.5
sg7
F0
sg8
F104
sg9
F1
sg10
F104
saa(lp2051
V114500
p2052
a(dp2053
g6
F104.5
sg7
F0
sg8
F104
sg9
F2
sg10
F104
saa(lp2054
V114510
p2055
a(dp2056
g6
F104.5
sg7
F0.5
sg8
F104
sg9
F4
sg10
F104.5
saa(lp2057
V114531
p2058
a(dp2059
g6
F104.5
sg7
F0.5
sg8
F104
sg9
F1
sg10
F104.5
saa(lp2060
V114536
p2061
a(dp2062
g6
F104.5
sg7
F0.5
sg8
F104
sg9
F1
sg10
F104.5
saa(lp2063
V114601
p2064
a(dp2065
g6
F104.5
sg7
F0
sg8
F104
sg9
F2
sg10
F104
saa(lp2066
V114606
p2067
a(dp2068
g6
F104.5
sg7
F0.5
sg8
F104
sg9
F1
sg10
F104.5
saa(lp2069
V114611
p2070
a(dp2071
g6
F104.5
sg7
F0
sg8
F104
sg9
F4
sg10
F104
saa(lp2072
V114616
p2073
a(dp2074
g6
F104.5
sg7
F0.5
sg8
F104
sg9
F1
sg10
F104.5
saa(lp2075
V114631
p2076
a(dp2077
g6
F104.5
sg7
F0.5
sg8
F104
sg9
F4
sg10
F104.5
saa(lp2078
V114636
p2079
a(dp2080
g6
F104.5
sg7
F0.5
sg8
F104
sg9
F1
sg10
F104.5
saa(lp2081
V114641
p2082
a(dp2083
g6
F104.5
sg7
F0
sg8
F104
sg9
F2
sg10
F104
saa(lp2084
V114701
p2085
a(dp2086
g6
F104.5
sg7
F0
sg8
F104
sg9
F2
sg10
F104
saa(lp2087
V114706
p2088
a(dp2089
g6
F104.5
sg7
F0.5
sg8
F104
sg9
F1
sg10
F104.5
saa(lp2090
V114741
p2091
a(dp2092
g6
F104.5
sg7
F0
sg8
F104
sg9
F13
sg10
F104
saa(lp2093
V114751
p2094
a(dp2095
g6
F104.5
sg7
F0
sg8
F104
sg9
F1
sg10
F104
saa(lp2096
V114756
p2097
a(dp2098
g6
F104.5
sg7
F0.5
sg8
F104
sg9
F4
sg10
F104.5
saa(lp2099
V114831
p2100
a(dp2101
g6
F104.5
sg7
F0
sg8
F104
sg9
F2
sg10
F104
saa(lp2102
V114846
p2103
a(dp2104
g6
F104.5
sg7
F0.5
sg8
F104
sg9
F1
sg10
F104.5
saa(lp2105
V114851
p2106
a(dp2107
g6
F104.5
sg7
F0
sg8
F104
sg9
F1
sg10
F104
saa(lp2108
V114931
p2109
a(dp2110
g6
F104.5
sg7
F0
sg8
F104
sg9
F2
sg10
F104
saa(lp2111
V114936
p2112
a(dp2113
g6
F104.5
sg7
F0.5
sg8
F104
sg9
F1
sg10
F104.5
saa(lp2114
V114942
p2115
a(dp2116
g6
F104.5
sg7
F0
sg8
F104
sg9
F1
sg10
F104
saa(lp2117
V114947
p2118
a(dp2119
g6
F104.5
sg7
F0.5
sg8
F104
sg9
F1
sg10
F104.5
saa(lp2120
V115027
p2121
a(dp2122
g6
F104.5
sg7
F0.5
sg8
F104
sg9
F1
sg10
F104.5
saa(lp2123
V115032
p2124
a(dp2125
g6
F104.5
sg7
F0
sg8
F104
sg9
F2
sg10
F104
saa(lp2126
V115042
p2127
a(dp2128
g6
F104.5
sg7
F0.5
sg8
F104
sg9
F5
sg10
F104.5
saa(lp2129
V115117
p2130
a(dp2131
g6
F104.5
sg7
F0.5
sg8
F104
sg9
F1
sg10
F104.5
saa(lp2132
V115127
p2133
a(dp2134
g6
F104.5
sg7
F0
sg8
F104
sg9
F1
sg10
F104
saa(lp2135
V115132
p2136
a(dp2137
g6
F104.5
sg7
F0.5
sg8
F104
sg9
F1
sg10
F104.5
saa(lp2138
V115142
p2139
a(dp2140
g6
F104.5
sg7
F0
sg8
F104
sg9
F9
sg10
F104
saa(lp2141
V115202
p2142
a(dp2143
g6
F104.5
sg7
F0
sg8
F104
sg9
F2
sg10
F104
saa(lp2144
V115207
p2145
a(dp2146
g6
F104.5
sg7
F0.5
sg8
F104
sg9
F1
sg10
F104.5
saa(lp2147
V115212
p2148
a(dp2149
g6
F104.5
sg7
F0
sg8
F104
sg9
F3
sg10
F104
saa(lp2150
V115217
p2151
a(dp2152
g6
F104.5
sg7
F0.5
sg8
F104
sg9
F1
sg10
F104.5
saa(lp2153
V115252
p2154
a(dp2155
g6
F104.5
sg7
F0.5
sg8
F104
sg9
F1
sg10
F104.5
saa(lp2156
V115302
p2157
a(dp2158
g6
F104.5
sg7
F0
sg8
F104
sg9
F2
sg10
F104
saa(lp2159
V115317
p2160
a(dp2161
g6
F104.5
sg7
F0.5
sg8
F104
sg9
F2
sg10
F104.5
saa(lp2162
V115322
p2163
a(dp2164
g6
F104.5
sg7
F0.5
sg8
F104
sg9
F1
sg10
F104.5
saa(lp2165
V115343
p2166
a(dp2167
g6
F104.5
sg7
F0.5
sg8
F104
sg9
F1
sg10
F104.5
saa(lp2168
V115353
p2169
a(dp2170
g6
F104.5
sg7
F0.5
sg8
F104
sg9
F2
sg10
F104.5
saa(lp2171
V115403
p2172
a(dp2173
g6
F104.5
sg7
F0.5
sg8
F104
sg9
F1
sg10
F104.5
saa(lp2174
V115418
p2175
a(dp2176
g6
F104.5
sg7
F0.5
sg8
F104
sg9
F1
sg10
F104.5
saa(lp2177
V115433
p2178
a(dp2179
g6
F104.5
sg7
F0.5
sg8
F104
sg9
F1
sg10
F104.5
saa(lp2180
V115443
p2181
a(dp2182
g6
F104.5
sg7
F0
sg8
F104
sg9
F4
sg10
F104
saa(lp2183
V115448
p2184
a(dp2185
g6
F104.5
sg7
F0.5
sg8
F104
sg9
F1
sg10
F104.5
saa(lp2186
V115523
p2187
a(dp2188
g6
F104.5
sg7
F0.5
sg8
F104
sg9
F9
sg10
F104.5
saa(lp2189
V115534
p2190
a(dp2191
g6
F104.5
sg7
F0
sg8
F104
sg9
F1
sg10
F104
saa(lp2192
V115539
p2193
a(dp2194
g6
F104.5
sg7
F0.5
sg8
F104
sg9
F1
sg10
F104.5
saa(lp2195
V115544
p2196
a(dp2197
g6
F104.5
sg7
F0
sg8
F104
sg9
F1
sg10
F104
saa(lp2198
V115559
p2199
a(dp2200
g6
F104.5
sg7
F0
sg8
F104
sg9
F1
sg10
F104
saa(lp2201
V115609
p2202
a(dp2203
g6
F104.5
sg7
F0.5
sg8
F104
sg9
F1
sg10
F104.5
saa(lp2204
V115614
p2205
a(dp2206
g6
F104.5
sg7
F0.5
sg8
F104
sg9
F5
sg10
F104.5
saa(lp2207
V115619
p2208
a(dp2209
g6
F104.5
sg7
F0
sg8
F104
sg9
F1
sg10
F104
saa(lp2210
V115644
p2211
a(dp2212
g6
F104.5
sg7
F0
sg8
F104
sg9
F2
sg10
F104
saa(lp2213
V115649
p2214
a(dp2215
g6
F104.5
sg7
F0.5
sg8
F104
sg9
F1
sg10
F104.5
saa(lp2216
V115659
p2217
a(dp2218
g6
F104.5
sg7
F0.5
sg8
F104
sg9
F1
sg10
F104.5
saa(lp2219
V115704
p2220
a(dp2221
g6
F104.5
sg7
F0.5
sg8
F104
sg9
F1
sg10
F104.5
saa(lp2222
V115709
p2223
a(dp2224
g6
F104.5
sg7
F0
sg8
F104
sg9
F1
sg10
F104
saa(lp2225
V115749
p2226
a(dp2227
g6
F104.5
sg7
F0.5
sg8
F104
sg9
F1
sg10
F104.5
saa(lp2228
V115759
p2229
a(dp2230
g6
F104.5
sg7
F0
sg8
F104
sg9
F1
sg10
F104
saa(lp2231
V115804
p2232
a(dp2233
g6
F104.5
sg7
F0
sg8
F104
sg9
F1
sg10
F104
saa(lp2234
V115824
p2235
a(dp2236
g6
F104.5
sg7
F0.5
sg8
F104
sg9
F4
sg10
F104.5
saa(lp2237
V115829
p2238
a(dp2239
g6
F104.5
sg7
F0.5
sg8
F104
sg9
F1
sg10
F104.5
saa(lp2240
V115834
p2241
a(dp2242
g6
F104.5
sg7
F0.5
sg8
F104
sg9
F4
sg10
F104.5
saa(lp2243
V115839
p2244
a(dp2245
g6
F104.5
sg7
F0.5
sg8
F104
sg9
F1
sg10
F104.5
saa(lp2246
V115854
p2247
a(dp2248
g6
F104.5
sg7
F0
sg8
F104
sg9
F11
sg10
F104
saa(lp2249
V115859
p2250
a(dp2251
g6
F104.5
sg7
F0.5
sg8
F104
sg9
F2
sg10
F104.5
saa(lp2252
V115904
p2253
a(dp2254
g6
F104.5
sg7
F0
sg8
F104
sg9
F2
sg10
F104
saa(lp2255
V115909
p2256
a(dp2257
g6
F104.5
sg7
F0.5
sg8
F104
sg9
F4
sg10
F104.5
saa(lp2258
V115914
p2259
a(dp2260
g6
F104.5
sg7
F0
sg8
F104
sg9
F10
sg10
F104
saa(lp2261
V115919
p2262
a(dp2263
g6
F104.5
sg7
F0
sg8
F104
sg9
F1
sg10
F104
saa(lp2264
V115924
p2265
a(dp2266
g6
F104.5
sg7
F0
sg8
F104
sg9
F6
sg10
F104
saa(lp2267
V115929
p2268
a(dp2269
g6
F104.5
sg7
F0
sg8
F104
sg9
F10
sg10
F104
saa(lp2270
V115934
p2271
a(dp2272
g6
F104.5
sg7
F0
sg8
F104
sg9
F6
sg10
F104
saa(lp2273
V115939
p2274
a(dp2275
g6
F104.5
sg7
F0.5
sg8
F104
sg9
F1
sg10
F104.5
saa(lp2276
V115944
p2277
a(dp2278
g6
F104.5
sg7
F0
sg8
F104
sg9
F6
sg10
F104
saa(lp2279
V115954
p2280
a(dp2281
g6
F104.5
sg7
F0
sg8
F104
sg9
F5
sg10
F104
saa(lp2282
V115959
p2283
a(dp2284
g6
F104.5
sg7
F0.5
sg8
F104
sg9
F1
sg10
F104.5
saa(lp2285
V120004
p2286
a(dp2287
g6
F104.5
sg7
F0
sg8
F104
sg9
F2
sg10
F104
saa(lp2288
V120014
p2289
a(dp2290
g6
F104.5
sg7
F0
sg8
F104
sg9
F6
sg10
F104
saa(lp2291
V120019
p2292
a(dp2293
g6
F104.5
sg7
F0.5
sg8
F104
sg9
F2
sg10
F104.5
saa(lp2294
V120035
p2295
a(dp2296
g6
F104.5
sg7
F0
sg8
F104
sg9
F4
sg10
F104
saa(lp2297
V120045
p2298
a(dp2299
g6
F104.5
sg7
F0
sg8
F104
sg9
F1
sg10
F104
saa(lp2300
V120105
p2301
a(dp2302
g6
F104.5
sg7
F0.5
sg8
F104
sg9
F1
sg10
F104.5
saa(lp2303
V120110
p2304
a(dp2305
g6
F104.5
sg7
F0.5
sg8
F104
sg9
F1
sg10
F104.5
saa(lp2306
V120135
p2307
a(dp2308
g6
F104.5
sg7
F0.5
sg8
F104
sg9
F1
sg10
F104.5
saa(lp2309
V120140
p2310
a(dp2311
g6
F104.5
sg7
F0.5
sg8
F104
sg9
F1
sg10
F104.5
saa(lp2312
V120150
p2313
a(dp2314
g6
F104.5
sg7
F0
sg8
F104
sg9
F1
sg10
F104
saa(lp2315
V120155
p2316
a(dp2317
g6
F104.5
sg7
F0.5
sg8
F104
sg9
F4
sg10
F104.5
saa(lp2318
V120200
p2319
a(dp2320
g6
F104.5
sg7
F0
sg8
F104
sg9
F1
sg10
F104
saa(lp2321
V120215
p2322
a(dp2323
g6
F104.5
sg7
F0.5
sg8
F104
sg9
F1
sg10
F104.5
saa(lp2324
V120245
p2325
a(dp2326
g6
F104.5
sg7
F0.5
sg8
F104
sg9
F1
sg10
F104.5
saa(lp2327
V120335
p2328
a(dp2329
g6
F104.5
sg7
F0
sg8
F104
sg9
F4
sg10
F104
saa(lp2330
V120340
p2331
a(dp2332
g6
F104.5
sg7
F0.5
sg8
F104
sg9
F1
sg10
F104.5
saa(lp2333
V120345
p2334
a(dp2335
g6
F104.5
sg7
F0.5
sg8
F104
sg9
F1
sg10
F104.5
saa(lp2336
V120426
p2337
a(dp2338
g6
F104.5
sg7
F0.5
sg8
F104
sg9
F1
sg10
F104.5
saa(lp2339
V120436
p2340
a(dp2341
g6
F104.5
sg7
F0.5
sg8
F104
sg9
F3
sg10
F104.5
saa(lp2342
V120446
p2343
a(dp2344
g6
F104.5
sg7
F0
sg8
F104
sg9
F1
sg10
F104
saa(lp2345
V120506
p2346
a(dp2347
g6
F104.5
sg7
F0.5
sg8
F104
sg9
F5
sg10
F104.5
saa(lp2348
V120511
p2349
a(dp2350
g6
F104.5
sg7
F0.5
sg8
F104
sg9
F1
sg10
F104.5
saa(lp2351
V120516
p2352
a(dp2353
g6
F104.5
sg7
F0.5
sg8
F104
sg9
F1
sg10
F104.5
saa(lp2354
V120521
p2355
a(dp2356
g6
F104.5
sg7
F0
sg8
F104
sg9
F2
sg10
F104
saa(lp2357
V120601
p2358
a(dp2359
g6
F104.5
sg7
F0.5
sg8
F104
sg9
F1
sg10
F104.5
saa(lp2360
V120606
p2361
a(dp2362
g6
F104.5
sg7
F0
sg8
F104
sg9
F1
sg10
F104
saa(lp2363
V120611
p2364
a(dp2365
g6
F104.5
sg7
F0
sg8
F104
sg9
F9
sg10
F104
saa(lp2366
V120626
p2367
a(dp2368
g6
F104.5
sg7
F0
sg8
F104
sg9
F1
sg10
F104
saa(lp2369
V120641
p2370
a(dp2371
g6
F104.5
sg7
F0
sg8
F104
sg9
F2
sg10
F104
saa(lp2372
V120651
p2373
a(dp2374
g6
F104.5
sg7
F0
sg8
F104
sg9
F1
sg10
F104
saa(lp2375
V120717
p2376
a(dp2377
g6
F104.5
sg7
F0
sg8
F104
sg9
F2
sg10
F104
saa(lp2378
V120742
p2379
a(dp2380
g6
F104.5
sg7
F0.5
sg8
F104
sg9
F1
sg10
F104.5
saa(lp2381
V120747
p2382
a(dp2383
g6
F104.5
sg7
F0.5
sg8
F104
sg9
F4
sg10
F104.5
saa(lp2384
V120822
p2385
a(dp2386
g6
F104.5
sg7
F0.5
sg8
F104
sg9
F1
sg10
F104.5
saa(lp2387
V120832
p2388
a(dp2389
g6
F104.5
sg7
F0.5
sg8
F104
sg9
F1
sg10
F104.5
saa(lp2390
V120842
p2391
a(dp2392
g6
F104.5
sg7
F0.5
sg8
F104
sg9
F1
sg10
F104.5
saa(lp2393
V120912
p2394
a(dp2395
g6
F104.5
sg7
F0
sg8
F104
sg9
F1
sg10
F104
saa(lp2396
V120922
p2397
a(dp2398
g6
F104.5
sg7
F0
sg8
F104
sg9
F1
sg10
F104
saa(lp2399
V121012
p2400
a(dp2401
g6
F104.5
sg7
F0.5
sg8
F104
sg9
F1
sg10
F104.5
saa(lp2402
V121027
p2403
a(dp2404
g6
F104.5
sg7
F0
sg8
F104
sg9
F9
sg10
F104
saa(lp2405
V121032
p2406
a(dp2407
g6
F104.5
sg7
F0.5
sg8
F104
sg9
F1
sg10
F104.5
saa(lp2408
V121102
p2409
a(dp2410
g6
F104.5
sg7
F0.5
sg8
F104
sg9
F1
sg10
F104.5
saa(lp2411
V121112
p2412
a(dp2413
g6
F104.5
sg7
F0
sg8
F104
sg9
F2
sg10
F104
saa(lp2414
V121122
p2415
a(dp2416
g6
F104.5
sg7
F0.5
sg8
F104
sg9
F2
sg10
F104.5
saa(lp2417
V121133
p2418
a(dp2419
g6
F104.5
sg7
F0.5
sg8
F104
sg9
F1
sg10
F104.5
saa(lp2420
V121148
p2421
a(dp2422
g6
F104.5
sg7
F0.5
sg8
F104
sg9
F1
sg10
F104.5
saa(lp2423
V121233
p2424
a(dp2425
g6
F104.5
sg7
F0
sg8
F104
sg9
F1
sg10
F104
saa(lp2426
V121238
p2427
a(dp2428
g6
F104.5
sg7
F0.5
sg8
F104
sg9
F2
sg10
F104.5
saa(lp2429
V121243
p2430
a(dp2431
g6
F104.5
sg7
F0.5
sg8
F104
sg9
F1
sg10
F104.5
saa(lp2432
V121308
p2433
a(dp2434
g6
F104.5
sg7
F0.5
sg8
F104
sg9
F1
sg10
F104.5
saa(lp2435
V121328
p2436
a(dp2437
g6
F104.5
sg7
F0.5
sg8
F104
sg9
F2
sg10
F104.5
saa(lp2438
V121338
p2439
a(dp2440
g6
F104.5
sg7
F0
sg8
F104
sg9
F1
sg10
F104
saa(lp2441
V121418
p2442
a(dp2443
g6
F104.5
sg7
F0.5
sg8
F104
sg9
F1
sg10
F104.5
saa(lp2444
V121508
p2445
a(dp2446
g6
F104.5
sg7
F0
sg8
F104
sg9
F2
sg10
F104
saa(lp2447
V121519
p2448
a(dp2449
g6
F104.5
sg7
F0.5
sg8
F104
sg9
F3
sg10
F104.5
saa(lp2450
V121524
p2451
a(dp2452
g6
F104.5
sg7
F0.5
sg8
F104
sg9
F1
sg10
F104.5
saa(lp2453
V121554
p2454
a(dp2455
g6
F104.5
sg7
F0.5
sg8
F104
sg9
F1
sg10
F104.5
saa(lp2456
V121559
p2457
a(dp2458
g6
F104.5
sg7
F0.5
sg8
F104
sg9
F1
sg10
F104.5
saa(lp2459
V121644
p2460
a(dp2461
g6
F104.5
sg7
F0.5
sg8
F104
sg9
F1
sg10
F104.5
saa(lp2462
V121704
p2463
a(dp2464
g6
F104.5
sg7
F0.5
sg8
F104
sg9
F1
sg10
F104.5
saa(lp2465
V121709
p2466
a(dp2467
g6
F104.5
sg7
F0.5
sg8
F104
sg9
F1
sg10
F104.5
saa(lp2468
V121714
p2469
a(dp2470
g6
F104.5
sg7
F0
sg8
F104
sg9
F8
sg10
F104
saa(lp2471
V121719
p2472
a(dp2473
g6
F104.5
sg7
F0
sg8
F104
sg9
F1
sg10
F104
saa(lp2474
V121724
p2475
a(dp2476
g6
F104.5
sg7
F0
sg8
F104
sg9
F1
sg10
F104
saa(lp2477
V121734
p2478
a(dp2479
g6
F104.5
sg7
F0.5
sg8
F104
sg9
F1
sg10
F104.5
saa(lp2480
V121744
p2481
a(dp2482
g6
F104.5
sg7
F0
sg8
F104
sg9
F1
sg10
F104
saa(lp2483
V121749
p2484
a(dp2485
g6
F104.5
sg7
F0.5
sg8
F104
sg9
F1
sg10
F104.5
saa(lp2486
V121815
p2487
a(dp2488
g6
F104.5
sg7
F0.5
sg8
F104
sg9
F3
sg10
F104.5
saa(lp2489
V121825
p2490
a(dp2491
g6
F104.5
sg7
F0.5
sg8
F104
sg9
F1
sg10
F104.5
saa(lp2492
V121830
p2493
a(dp2494
g6
F104.5
sg7
F0.5
sg8
F104
sg9
F1
sg10
F104.5
saa(lp2495
V121845
p2496
a(dp2497
g6
F104.5
sg7
F0.5
sg8
F104
sg9
F3
sg10
F104.5
saa(lp2498
V121910
p2499
a(dp2500
g6
F104.5
sg7
F0
sg8
F104
sg9
F2
sg10
F104
saa(lp2501
V121915
p2502
a(dp2503
g6
F104.5
sg7
F0.5
sg8
F104
sg9
F1
sg10
F104.5
saa(lp2504
V121950
p2505
a(dp2506
g6
F104.5
sg7
F0.5
sg8
F104
sg9
F4
sg10
F104.5
saa(lp2507
V121955
p2508
a(dp2509
g6
F104.5
sg7
F0.5
sg8
F104
sg9
F1
sg10
F104.5
saa(lp2510
V122005
p2511
a(dp2512
g6
F104.5
sg7
F0.5
sg8
F104
sg9
F1
sg10
F104.5
saa(lp2513
V122015
p2514
a(dp2515
g6
F104.5
sg7
F0.5
sg8
F104
sg9
F1
sg10
F104.5
saa(lp2516
V122045
p2517
a(dp2518
g6
F104.5
sg7
F0.5
sg8
F104
sg9
F1
sg10
F104.5
saa(lp2519
V122050
p2520
a(dp2521
g6
F104.5
sg7
F0.5
sg8
F104
sg9
F3
sg10
F104.5
saa(lp2522
V122055
p2523
a(dp2524
g6
F104.5
sg7
F0.5
sg8
F104
sg9
F1
sg10
F104.5
saa(lp2525
V122105
p2526
a(dp2527
g6
F104.5
sg7
F0
sg8
F104
sg9
F4
sg10
F104
saa(lp2528
V122110
p2529
a(dp2530
g6
F104.5
sg7
F0.5
sg8
F104
sg9
F1
sg10
F104.5
saa(lp2531
V122130
p2532
a(dp2533
g6
F104.5
sg7
F0.5
sg8
F104
sg9
F2
sg10
F104.5
saa(lp2534
V122140
p2535
a(dp2536
g6
F104.5
sg7
F0.5
sg8
F104
sg9
F2
sg10
F104.5
saa(lp2537
V122231
p2538
a(dp2539
g6
F104.5
sg7
F0.5
sg8
F104
sg9
F1
sg10
F104.5
saa(lp2540
V122256
p2541
a(dp2542
g6
F104.5
sg7
F0
sg8
F104
sg9
F8
sg10
F104
saa(lp2543
V122301
p2544
a(dp2545
g6
F104.5
sg7
F0.5
sg8
F104
sg9
F1
sg10
F104.5
saa(lp2546
V122311
p2547
a(dp2548
g6
F104.5
sg7
F0.5
sg8
F104
sg9
F30
sg10
F104.5
saa(lp2549
V122316
p2550
a(dp2551
g6
F104.5
sg7
F0.5
sg8
F104
sg9
F4
sg10
F104.5
saa(lp2552
V122321
p2553
a(dp2554
g6
F104.5
sg7
F0.5
sg8
F104
sg9
F3
sg10
F104.5
saa(lp2555
V122326
p2556
a(dp2557
g6
F104.5
sg7
F0.5
sg8
F104
sg9
F1
sg10
F104.5
saa(lp2558
V122411
p2559
a(dp2560
g6
F104.5
sg7
F0.5
sg8
F104
sg9
F1
sg10
F104.5
saa(lp2561
V122416
p2562
a(dp2563
g6
F104.5
sg7
F0.5
sg8
F104
sg9
F3
sg10
F104.5
saa(lp2564
V122421
p2565
a(dp2566
g6
F104.5
sg7
F0.5
sg8
F104
sg9
F1
sg10
F104.5
saa(lp2567
V122441
p2568
a(dp2569
g6
F104.5
sg7
F0.5
sg8
F104
sg9
F5
sg10
F104.5
saa(lp2570
V122446
p2571
a(dp2572
g6
F104.5
sg7
F0.5
sg8
F104
sg9
F1
sg10
F104.5
saa(lp2573
V122451
p2574
a(dp2575
g6
F104.5
sg7
F0
sg8
F104
sg9
F1
sg10
F104
saa(lp2576
V122511
p2577
a(dp2578
g6
F104.5
sg7
F0.5
sg8
F104
sg9
F1
sg10
F104.5
saa(lp2579
V122516
p2580
a(dp2581
g6
F104.5
sg7
F0.5
sg8
F104
sg9
F1
sg10
F104.5
saa(lp2582
V122557
p2583
a(dp2584
g6
F104.5
sg7
F0.5
sg8
F104
sg9
F25
sg10
F104.5
saa(lp2585
V122602
p2586
a(dp2587
g6
F104.5
sg7
F0.5
sg8
F104
sg9
F2
sg10
F104.5
saa(lp2588
V122607
p2589
a(dp2590
g6
F104.5
sg7
F0
sg8
F104
sg9
F3
sg10
F104
saa(lp2591
V122617
p2592
a(dp2593
g6
F104.5
sg7
F0.5
sg8
F104
sg9
F3
sg10
F104.5
saa(lp2594
V122622
p2595
a(dp2596
g6
F104.5
sg7
F0.5
sg8
F104
sg9
F1
sg10
F104.5
saa(lp2597
V122637
p2598
a(dp2599
g6
F104.5
sg7
F0.5
sg8
F104
sg9
F25
sg10
F104.5
saa(lp2600
V122642
p2601
a(dp2602
g6
F104.5
sg7
F0.5
sg8
F104
sg9
F6
sg10
F104.5
saa(lp2603
V122647
p2604
a(dp2605
g6
F104.5
sg7
F0.5
sg8
F104
sg9
F15
sg10
F104.5
saa(lp2606
V122652
p2607
a(dp2608
g6
F104.5
sg7
F0.5
sg8
F104
sg9
F7
sg10
F104.5
saa(lp2609
V122657
p2610
a(dp2611
g6
F104.5
sg7
F0.5
sg8
F104
sg9
F13
sg10
F104.5
saa(lp2612
V122702
p2613
a(dp2614
g6
F105
sg7
F1
sg8
F104.5
sg9
F1
sg10
F105
saa(lp2615
V122722
p2616
a(dp2617
g6
F105
sg7
F0.5
sg8
F104.5
sg9
F1
sg10
F104.5
saa(lp2618
V122742
p2619
a(dp2620
g6
F105
sg7
F1
sg8
F104.5
sg9
F2
sg10
F105
saa(lp2621
V122752
p2622
a(dp2623
g6
F105
sg7
F1
sg8
F104.5
sg9
F100
sg10
F105
saa(lp2624
V122757
p2625
a(dp2626
g6
F105
sg7
F1
sg8
F104.5
sg9
F83
sg10
F105
saa(lp2627
V122802
p2628
a(dp2629
g6
F105.5
sg7
F1.5
sg8
F105
sg9
F14
sg10
F105.5
saa(lp2630
V122807
p2631
a(dp2632
g6
F105.5
sg7
F1.5
sg8
F105
sg9
F5
sg10
F105.5
saa(lp2633
V122812
p2634
a(dp2635
g6
F105.5
sg7
F1.5
sg8
F105
sg9
F2
sg10
F105.5
saa(lp2636
V122817
p2637
a(dp2638
g6
F105.5
sg7
F1.5
sg8
F105
sg9
F5
sg10
F105.5
saa(lp2639
V122822
p2640
a(dp2641
g6
F105.5
sg7
F1.5
sg8
F105
sg9
F2
sg10
F105.5
saa(lp2642
V122827
p2643
a(dp2644
g6
F105.5
sg7
F1.5
sg8
F105
sg9
F2
sg10
F105.5
saa(lp2645
V122832
p2646
a(dp2647
g6
F105.5
sg7
F1
sg8
F105
sg9
F1
sg10
F105
saa(lp2648
V122837
p2649
a(dp2650
g6
F105.5
sg7
F1.5
sg8
F105
sg9
F1
sg10
F105.5
saa(lp2651
V122847
p2652
a(dp2653
g6
F105.5
sg7
F1
sg8
F105
sg9
F10
sg10
F105
saa(lp2654
V122852
p2655
a(dp2656
g6
F105
sg7
F1
sg8
F104.5
sg9
F1
sg10
F105
saa(lp2657
V122857
p2658
a(dp2659
g6
F105
sg7
F1
sg8
F104.5
sg9
F1
sg10
F105
saa(lp2660
V122902
p2661
a(dp2662
g6
F105
sg7
F1
sg8
F104.5
sg9
F1
sg10
F105
saa(lp2663
V122907
p2664
a(dp2665
g6
F105
sg7
F1
sg8
F104.5
sg9
F1
sg10
F105
saa(lp2666
V122912
p2667
a(dp2668
g6
F105
sg7
F1
sg8
F104.5
sg9
F1
sg10
F105
saa(lp2669
V122917
p2670
a(dp2671
g6
F105
sg7
F1
sg8
F104.5
sg9
F1
sg10
F105
saa(lp2672
V122927
p2673
a(dp2674
g6
F105
sg7
F1
sg8
F104.5
sg9
F1
sg10
F105
saa(lp2675
V122932
p2676
a(dp2677
g6
F105
sg7
F1
sg8
F104.5
sg9
F2
sg10
F105
saa(lp2678
V122942
p2679
a(dp2680
g6
F105
sg7
F1
sg8
F104.5
sg9
F3
sg10
F105
saa(lp2681
V123023
p2682
a(dp2683
g6
F105
sg7
F1
sg8
F104.5
sg9
F2
sg10
F105
saa(lp2684
V123033
p2685
a(dp2686
g6
F105
sg7
F1
sg8
F104.5
sg9
F1
sg10
F105
saa(lp2687
V123043
p2688
a(dp2689
g6
F105
sg7
F1
sg8
F104.5
sg9
F1
sg10
F105
saa(lp2690
V123108
p2691
a(dp2692
g6
F105
sg7
F1
sg8
F104.5
sg9
F2
sg10
F105
saa(lp2693
V123118
p2694
a(dp2695
g6
F105
sg7
F1
sg8
F104.5
sg9
F5
sg10
F105
saa(lp2696
V123123
p2697
a(dp2698
g6
F105
sg7
F1
sg8
F104.5
sg9
F3
sg10
F105
saa(lp2699
V123128
p2700
a(dp2701
g6
F105
sg7
F1
sg8
F104.5
sg9
F3
sg10
F105
saa(lp2702
V123133
p2703
a(dp2704
g6
F105
sg7
F1
sg8
F104.5
sg9
F4
sg10
F105
saa(lp2705
V123143
p2706
a(dp2707
g6
F105
sg7
F1
sg8
F104.5
sg9
F5
sg10
F105
saa(lp2708
V123148
p2709
a(dp2710
g6
F105
sg7
F1
sg8
F104.5
sg9
F1
sg10
F105
saa(lp2711
V123153
p2712
a(dp2713
g6
F105
sg7
F1
sg8
F104.5
sg9
F7
sg10
F105
saa(lp2714
V123158
p2715
a(dp2716
g6
F105
sg7
F1
sg8
F104.5
sg9
F3
sg10
F105
saa(lp2717
V123203
p2718
a(dp2719
g6
F105
sg7
F1
sg8
F104.5
sg9
F2
sg10
F105
saa(lp2720
V123218
p2721
a(dp2722
g6
F105
sg7
F1
sg8
F104.5
sg9
F5
sg10
F105
saa(lp2723
V123228
p2724
a(dp2725
g6
F105
sg7
F1
sg8
F104.5
sg9
F1
sg10
F105
saa(lp2726
V123233
p2727
a(dp2728
g6
F105
sg7
F1
sg8
F104.5
sg9
F1
sg10
F105
saa(lp2729
V123243
p2730
a(dp2731
g6
F105
sg7
F1
sg8
F104.5
sg9
F1
sg10
F105
saa(lp2732
V123429
p2733
a(dp2734
g6
F105
sg7
F1
sg8
F104.5
sg9
F2
sg10
F105
saa(lp2735
V123650
p2736
a(dp2737
g6
F105
sg7
F1
sg8
F104.5
sg9
F2
sg10
F105
saa(lp2738
V123700
p2739
a(dp2740
g6
F105
sg7
F0.5
sg8
F104.5
sg9
F1
sg10
F104.5
saa(lp2741
V123730
p2742
a(dp2743
g6
F105
sg7
F1
sg8
F104.5
sg9
F4
sg10
F105
saa(lp2744
V123850
p2745
a(dp2746
g6
F105
sg7
F0.5
sg8
F104.5
sg9
F1
sg10
F104.5
saa(lp2747
V124000
p2748
a(dp2749
g6
F105
sg7
F0.5
sg8
F104.5
sg9
F5
sg10
F104.5
saa(lp2750
V124015
p2751
a(dp2752
g6
F105
sg7
F0.5
sg8
F104.5
sg9
F1
sg10
F104.5
saa(lp2753
V124111
p2754
a(dp2755
g6
F105
sg7
F0.5
sg8
F104.5
sg9
F1
sg10
F104.5
saa(lp2756
V124256
p2757
a(dp2758
g6
F105
sg7
F1
sg8
F104.5
sg9
F3
sg10
F105
saa(lp2759
V124316
p2760
a(dp2761
g6
F105
sg7
F0.5
sg8
F104.5
sg9
F1
sg10
F104.5
saa(lp2762
V124336
p2763
a(dp2764
g6
F105
sg7
F0.5
sg8
F104.5
sg9
F2
sg10
F104.5
saa(lp2765
V124356
p2766
a(dp2767
g6
F105
sg7
F0.5
sg8
F104.5
sg9
F9
sg10
F104.5
saa(lp2768
V124406
p2769
a(dp2770
g6
F105
sg7
F0.5
sg8
F104.5
sg9
F1
sg10
F104.5
saa(lp2771
V124431
p2772
a(dp2773
g6
F105
sg7
F1
sg8
F104.5
sg9
F10
sg10
F105
saa(lp2774
V124441
p2775
a(dp2776
g6
F105
sg7
F1
sg8
F104.5
sg9
F5
sg10
F105
saa(lp2777
V124446
p2778
a(dp2779
g6
F105
sg7
F0.5
sg8
F104.5
sg9
F1
sg10
F104.5
saa(lp2780
V124543
p2781
a(dp2782
g6
F105
sg7
F1
sg8
F104.5
sg9
F4
sg10
F105
saa(lp2783
V124633
p2784
a(dp2785
g6
F105
sg7
F1
sg8
F104.5
sg9
F1
sg10
F105
saa(lp2786
V124643
p2787
a(dp2788
g6
F105
sg7
F0.5
sg8
F104.5
sg9
F1
sg10
F104.5
saa(lp2789
V124803
p2790
a(dp2791
g6
F105
sg7
F0.5
sg8
F104.5
sg9
F1
sg10
F104.5
saa(lp2792
V124818
p2793
a(dp2794
g6
F105
sg7
F1
sg8
F104.5
sg9
F2
sg10
F105
saa(lp2795
V124828
p2796
a(dp2797
g6
F105
sg7
F0.5
sg8
F104.5
sg9
F1
sg10
F104.5
saa(lp2798
V124833
p2799
a(dp2800
g6
F105
sg7
F0.5
sg8
F104.5
sg9
F2
sg10
F104.5
saa(lp2801
V124903
p2802
a(dp2803
g6
F105
sg7
F0.5
sg8
F104.5
sg9
F1
sg10
F104.5
saa(lp2804
V124913
p2805
a(dp2806
g6
F105
sg7
F0.5
sg8
F104.5
sg9
F8
sg10
F104.5
saa(lp2807
V124923
p2808
a(dp2809
g6
F105
sg7
F0.5
sg8
F104.5
sg9
F1
sg10
F104.5
saa(lp2810
V124933
p2811
a(dp2812
g6
F105
sg7
F0.5
sg8
F104.5
sg9
F1
sg10
F104.5
saa(lp2813
V124943
p2814
a(dp2815
g6
F105
sg7
F1
sg8
F104.5
sg9
F1
sg10
F105
saa(lp2816
V125003
p2817
a(dp2818
g6
F105
sg7
F0.5
sg8
F104.5
sg9
F1
sg10
F104.5
saa(lp2819
V125034
p2820
a(dp2821
g6
F105
sg7
F0.5
sg8
F104.5
sg9
F1
sg10
F104.5
saa(lp2822
V125054
p2823
a(dp2824
g6
F105
sg7
F1
sg8
F104.5
sg9
F4
sg10
F105
saa(lp2825
V125059
p2826
a(dp2827
g6
F105
sg7
F1
sg8
F104.5
sg9
F1
sg10
F105
saa(lp2828
V125104
p2829
a(dp2830
g6
F105
sg7
F0.5
sg8
F104.5
sg9
F2
sg10
F104.5
saa(lp2831
V125124
p2832
a(dp2833
g6
F105
sg7
F0.5
sg8
F104.5
sg9
F1
sg10
F104.5
saa(lp2834
V125134
p2835
a(dp2836
g6
F105
sg7
F0.5
sg8
F104.5
sg9
F1
sg10
F104.5
saa(lp2837
V125144
p2838
a(dp2839
g6
F105
sg7
F0.5
sg8
F104.5
sg9
F3
sg10
F104.5
saa(lp2840
V125204
p2841
a(dp2842
g6
F105
sg7
F0.5
sg8
F104.5
sg9
F1
sg10
F104.5
saa(lp2843
V125234
p2844
a(dp2845
g6
F105
sg7
F0.5
sg8
F104.5
sg9
F1
sg10
F104.5
saa(lp2846
V125254
p2847
a(dp2848
g6
F105
sg7
F0.5
sg8
F104.5
sg9
F2
sg10
F104.5
saa(lp2849
V125304
p2850
a(dp2851
g6
F105
sg7
F0.5
sg8
F104.5
sg9
F2
sg10
F104.5
saa(lp2852
V125324
p2853
a(dp2854
g6
F105
sg7
F1
sg8
F104.5
sg9
F1
sg10
F105
saa(lp2855
V125329
p2856
a(dp2857
g6
F105
sg7
F1
sg8
F104.5
sg9
F3
sg10
F105
saa(lp2858
V125334
p2859
a(dp2860
g6
F105
sg7
F0.5
sg8
F104.5
sg9
F1
sg10
F104.5
saa(lp2861
V125359
p2862
a(dp2863
g6
F105
sg7
F0.5
sg8
F104.5
sg9
F1
sg10
F104.5
saa(lp2864
V125404
p2865
a(dp2866
g6
F105
sg7
F0.5
sg8
F104.5
sg9
F1
sg10
F104.5
saa(lp2867
V125424
p2868
a(dp2869
g6
F105
sg7
F0.5
sg8
F104.5
sg9
F1
sg10
F104.5
saa(lp2870
V125434
p2871
a(dp2872
g6
F105
sg7
F0.5
sg8
F104.5
sg9
F2
sg10
F104.5
saa(lp2873
V125445
p2874
a(dp2875
g6
F105
sg7
F1
sg8
F104.5
sg9
F1
sg10
F105
saa(lp2876
V125450
p2877
a(dp2878
g6
F105
sg7
F0.5
sg8
F104.5
sg9
F1
sg10
F104.5
saa(lp2879
V125455
p2880
a(dp2881
g6
F105
sg7
F0.5
sg8
F104.5
sg9
F1
sg10
F104.5
saa(lp2882
V125505
p2883
a(dp2884
g6
F105
sg7
F0.5
sg8
F104.5
sg9
F1
sg10
F104.5
saa(lp2885
V125510
p2886
a(dp2887
g6
F105
sg7
F0.5
sg8
F104.5
sg9
F1
sg10
F104.5
saa(lp2888
V125530
p2889
a(dp2890
g6
F105
sg7
F0.5
sg8
F104.5
sg9
F1
sg10
F104.5
saa(lp2891
V125545
p2892
a(dp2893
g6
F105
sg7
F1
sg8
F104.5
sg9
F1
sg10
F105
saa(lp2894
V125555
p2895
a(dp2896
g6
F105
sg7
F0.5
sg8
F104.5
sg9
F1
sg10
F104.5
saa(lp2897
V125600
p2898
a(dp2899
g6
F105
sg7
F0.5
sg8
F104.5
sg9
F1
sg10
F104.5
saa(lp2900
V125610
p2901
a(dp2902
g6
F105
sg7
F1
sg8
F104.5
sg9
F4
sg10
F105
saa(lp2903
V125620
p2904
a(dp2905
g6
F105
sg7
F0.5
sg8
F104.5
sg9
F3
sg10
F104.5
saa(lp2906
V125631
p2907
a(dp2908
g6
F105
sg7
F0.5
sg8
F104.5
sg9
F1
sg10
F104.5
saa(lp2909
V125701
p2910
a(dp2911
g6
F105
sg7
F0.5
sg8
F104.5
sg9
F1
sg10
F104.5
saa(lp2912
V125721
p2913
a(dp2914
g6
F105
sg7
F1
sg8
F104.5
sg9
F1
sg10
F105
saa(lp2915
V125731
p2916
a(dp2917
g6
F105
sg7
F0.5
sg8
F104.5
sg9
F1
sg10
F104.5
saa(lp2918
V125741
p2919
a(dp2920
g6
F105
sg7
F0.5
sg8
F104.5
sg9
F11
sg10
F104.5
saa(lp2921
V125751
p2922
a(dp2923
g6
F105
sg7
F0.5
sg8
F104.5
sg9
F1
sg10
F104.5
saa(lp2924
V125801
p2925
a(dp2926
g6
F105
sg7
F0.5
sg8
F104.5
sg9
F2
sg10
F104.5
saa(lp2927
V125831
p2928
a(dp2929
g6
F105
sg7
F0.5
sg8
F104.5
sg9
F2
sg10
F104.5
saa(lp2930
V125841
p2931
a(dp2932
g6
F105
sg7
F0.5
sg8
F104.5
sg9
F1
sg10
F104.5
saa(lp2933
V125856
p2934
a(dp2935
g6
F105
sg7
F0.5
sg8
F104.5
sg9
F1
sg10
F104.5
saa(lp2936
V125901
p2937
a(dp2938
g6
F105
sg7
F0.5
sg8
F104.5
sg9
F1
sg10
F104.5
saa(lp2939
V125906
p2940
a(dp2941
g6
F105
sg7
F0.5
sg8
F104.5
sg9
F1
sg10
F104.5
saa(lp2942
V125916
p2943
a(dp2944
g6
F105
sg7
F0.5
sg8
F104.5
sg9
F3
sg10
F104.5
saa(lp2945
V125931
p2946
a(dp2947
g6
F105
sg7
F1
sg8
F104.5
sg9
F10
sg10
F105
saa(lp2948
V125936
p2949
a(dp2950
g6
F105
sg7
F1
sg8
F104.5
sg9
F12
sg10
F105
saa(lp2951
V125941
p2952
a(dp2953
g6
F105
sg7
F1
sg8
F104.5
sg9
F5
sg10
F105
saa(lp2954
V125946
p2955
a(dp2956
g6
F105
sg7
F0.5
sg8
F104.5
sg9
F10
sg10
F104.5
saa(lp2957
V125951
p2958
a(dp2959
g6
F105
sg7
F0.5
sg8
F104.5
sg9
F5
sg10
F104.5
saa(lp2960
V130001
p2961
a(dp2962
g6
F105
sg7
F0.5
sg8
F104.5
sg9
F1
sg10
F104.5
saa(lp2963
V130006
p2964
a(dp2965
g6
F105
sg7
F0.5
sg8
F104.5
sg9
F5
sg10
F104.5
saa(lp2966
V130011
p2967
a(dp2968
g6
F105
sg7
F0.5
sg8
F104.5
sg9
F24
sg10
F104.5
saa(lp2969
V130016
p2970
a(dp2971
g6
F104.5
sg7
F0.5
sg8
F104
sg9
F7
sg10
F104.5
saa(lp2972
V130021
p2973
a(dp2974
g6
F104.5
sg7
F0
sg8
F104
sg9
F2
sg10
F104
saa(lp2975
V130026
p2976
a(dp2977
g6
F104.5
sg7
F0
sg8
F104
sg9
F1
sg10
F104
saa(lp2978
V130101
p2979
a(dp2980
g6
F104.5
sg7
F0
sg8
F104
sg9
F1
sg10
F104
saa(lp2981
V130112
p2982
a(dp2983
g6
F104.5
sg7
F0
sg8
F104
sg9
F1
sg10
F104
saa(lp2984
V130127
p2985
a(dp2986
g6
F104.5
sg7
F0.5
sg8
F104
sg9
F3
sg10
F104.5
saa(lp2987
V130132
p2988
a(dp2989
g6
F104.5
sg7
F0
sg8
F104
sg9
F1
sg10
F104
saa(lp2990
V130202
p2991
a(dp2992
g6
F104.5
sg7
F0
sg8
F104
sg9
F1
sg10
F104
saa(lp2993
V130212
p2994
a(dp2995
g6
F104.5
sg7
F0
sg8
F104
sg9
F2
sg10
F104
saa(lp2996
V130232
p2997
a(dp2998
g6
F104.5
sg7
F0
sg8
F104
sg9
F2
sg10
F104
saa(lp2999
V130237
p3000
a(dp3001
g6
F104.5
sg7
F0
sg8
F104
sg9
F2
sg10
F104
saa(lp3002
V130242
p3003
a(dp3004
g6
F104.5
sg7
F0
sg8
F104
sg9
F2
sg10
F104
saa(lp3005
V130257
p3006
a(dp3007
g6
F104.5
sg7
F0
sg8
F104
sg9
F3
sg10
F104
saa(lp3008
V130302
p3009
a(dp3010
g6
F104.5
sg7
F0
sg8
F104
sg9
F1
sg10
F104
saa(lp3011
V130312
p3012
a(dp3013
g6
F104.5
sg7
F0
sg8
F104
sg9
F1
sg10
F104
saa(lp3014
V130332
p3015
a(dp3016
g6
F104.5
sg7
F0
sg8
F104
sg9
F1
sg10
F104
saa(lp3017
V130402
p3018
a(dp3019
g6
F104.5
sg7
F0
sg8
F104
sg9
F2
sg10
F104
saa(lp3020
V130412
p3021
a(dp3022
g6
F104.5
sg7
F0.5
sg8
F104
sg9
F1
sg10
F104.5
saa(lp3023
V130417
p3024
a(dp3025
g6
F104.5
sg7
F0.5
sg8
F104
sg9
F1
sg10
F104.5
saa(lp3026
V130427
p3027
a(dp3028
g6
F104.5
sg7
F0.5
sg8
F104
sg9
F2
sg10
F104.5
saa(lp3029
V130432
p3030
a(dp3031
g6
F104.5
sg7
F0
sg8
F104
sg9
F2
sg10
F104
saa(lp3032
V130437
p3033
a(dp3034
g6
F104.5
sg7
F0
sg8
F104
sg9
F2
sg10
F104
saa(lp3035
V130447
p3036
a(dp3037
g6
F104.5
sg7
F0
sg8
F104
sg9
F2
sg10
F104
saa(lp3038
V130457
p3039
a(dp3040
g6
F104.5
sg7
F0
sg8
F104
sg9
F3
sg10
F104
saa(lp3041
V130502
p3042
a(dp3043
g6
F104.5
sg7
F0
sg8
F104
sg9
F1
sg10
F104
saa(lp3044
V130512
p3045
a(dp3046
g6
F104.5
sg7
F0
sg8
F104
sg9
F20
sg10
F104
saa(lp3047
V130518
p3048
a(dp3049
g6
F104.5
sg7
F0
sg8
F104
sg9
F1
sg10
F104
saa(lp3050
V130523
p3051
a(dp3052
g6
F104.5
sg7
F0
sg8
F104
sg9
F2
sg10
F104
saa(lp3053
V130533
p3054
a(dp3055
g6
F104.5
sg7
F0
sg8
F104
sg9
F1
sg10
F104
saa(lp3056
V130538
p3057
a(dp3058
g6
F104.5
sg7
F0
sg8
F104
sg9
F2
sg10
F104
saa(lp3059
V130543
p3060
a(dp3061
g6
F104.5
sg7
F0
sg8
F104
sg9
F1
sg10
F104
saa(lp3062
V130548
p3063
a(dp3064
g6
F104.5
sg7
F0
sg8
F104
sg9
F1
sg10
F104
saa(lp3065
V130558
p3066
a(dp3067
g6
F104.5
sg7
F0
sg8
F104
sg9
F1
sg10
F104
saa(lp3068
V130603
p3069
a(dp3070
g6
F104.5
sg7
F0
sg8
F104
sg9
F1
sg10
F104
saa(lp3071
V130608
p3072
a(dp3073
g6
F104.5
sg7
F0.5
sg8
F104
sg9
F1
sg10
F104.5
saa(lp3074
V130613
p3075
a(dp3076
g6
F104.5
sg7
F0
sg8
F104
sg9
F8
sg10
F104
saa(lp3077
V130618
p3078
a(dp3079
g6
F104.5
sg7
F0
sg8
F104
sg9
F2
sg10
F104
saa(lp3080
V130623
p3081
a(dp3082
g6
F104.5
sg7
F0
sg8
F104
sg9
F1
sg10
F104
saa(lp3083
V130633
p3084
a(dp3085
g6
F104.5
sg7
F0
sg8
F104
sg9
F1
sg10
F104
saa(lp3086
V130638
p3087
a(dp3088
g6
F104.5
sg7
F0
sg8
F104
sg9
F1
sg10
F104
saa(lp3089
V130653
p3090
a(dp3091
g6
F104.5
sg7
F0
sg8
F104
sg9
F2
sg10
F104
saa(lp3092
V130703
p3093
a(dp3094
g6
F104.5
sg7
F0
sg8
F104
sg9
F17
sg10
F104
saa(lp3095
V130708
p3096
a(dp3097
g6
F104.5
sg7
F0
sg8
F104
sg9
F1
sg10
F104
saa(lp3098
V130713
p3099
a(dp3100
g6
F104.5
sg7
F0.5
sg8
F104
sg9
F4
sg10
F104.5
saa(lp3101
V130718
p3102
a(dp3103
g6
F104.5
sg7
F0
sg8
F104
sg9
F2
sg10
F104
saa(lp3104
V130733
p3105
a(dp3106
g6
F104.5
sg7
F0
sg8
F104
sg9
F3
sg10
F104
saa(lp3107
V130749
p3108
a(dp3109
g6
F104.5
sg7
F0
sg8
F104
sg9
F1
sg10
F104
saa(lp3110
V130759
p3111
a(dp3112
g6
F104.5
sg7
F0.5
sg8
F104
sg9
F1
sg10
F104.5
saa(lp3113
V130804
p3114
a(dp3115
g6
F104.5
sg7
F0
sg8
F104
sg9
F2
sg10
F104
saa(lp3116
V130809
p3117
a(dp3118
g6
F104.5
sg7
F0
sg8
F104
sg9
F1
sg10
F104
saa(lp3119
V130824
p3120
a(dp3121
g6
F104.5
sg7
F0
sg8
F104
sg9
F1
sg10
F104
saa(lp3122
V130829
p3123
a(dp3124
g6
F104.5
sg7
F0
sg8
F104
sg9
F1
sg10
F104
saa(lp3125
V130834
p3126
a(dp3127
g6
F104.5
sg7
F0
sg8
F104
sg9
F1
sg10
F104
saa(lp3128
V130839
p3129
a(dp3130
g6
F104.5
sg7
F0
sg8
F104
sg9
F1
sg10
F104
saa(lp3131
V130904
p3132
a(dp3133
g6
F104.5
sg7
F0
sg8
F104
sg9
F5
sg10
F104
saa(lp3134
V130919
p3135
a(dp3136
g6
F104.5
sg7
F0
sg8
F104
sg9
F1
sg10
F104
saa(lp3137
V130924
p3138
a(dp3139
g6
F104.5
sg7
F0
sg8
F104
sg9
F1
sg10
F104
saa(lp3140
V130929
p3141
a(dp3142
g6
F104.5
sg7
F0
sg8
F104
sg9
F1
sg10
F104
saa(lp3143
V130934
p3144
a(dp3145
g6
F104.5
sg7
F0
sg8
F104
sg9
F2
sg10
F104
saa(lp3146
V130944
p3147
a(dp3148
g6
F104.5
sg7
F0.5
sg8
F104
sg9
F1
sg10
F104.5
saa(lp3149
V131004
p3150
a(dp3151
g6
F104.5
sg7
F0
sg8
F104
sg9
F2
sg10
F104
saa(lp3152
V131009
p3153
a(dp3154
g6
F104.5
sg7
F0.5
sg8
F104
sg9
F6
sg10
F104.5
saa(lp3155
V131019
p3156
a(dp3157
g6
F104.5
sg7
F0
sg8
F104
sg9
F1
sg10
F104
saa(lp3158
V131029
p3159
a(dp3160
g6
F104.5
sg7
F0
sg8
F104
sg9
F10
sg10
F104
saa(lp3161
V131034
p3162
a(dp3163
g6
F104.5
sg7
F0
sg8
F104
sg9
F2
sg10
F104
saa(lp3164
V131039
p3165
a(dp3166
g6
F104.5
sg7
F0
sg8
F104
sg9
F1
sg10
F104
saa(lp3167
V131054
p3168
a(dp3169
g6
F104.5
sg7
F0
sg8
F104
sg9
F1
sg10
F104
saa(lp3170
V131059
p3171
a(dp3172
g6
F104.5
sg7
F0
sg8
F104
sg9
F1
sg10
F104
saa(lp3173
V131104
p3174
a(dp3175
g6
F104.5
sg7
F0
sg8
F104
sg9
F1
sg10
F104
saa(lp3176
V131119
p3177
a(dp3178
g6
F104.5
sg7
F0
sg8
F104
sg9
F2
sg10
F104
saa(lp3179
V131129
p3180
a(dp3181
g6
F104.5
sg7
F0
sg8
F104
sg9
F1
sg10
F104
saa(lp3182
V131134
p3183
a(dp3184
g6
F104.5
sg7
F0
sg8
F104
sg9
F1
sg10
F104
saa(lp3185
V131149
p3186
a(dp3187
g6
F104.5
sg7
F0
sg8
F104
sg9
F1
sg10
F104
saa(lp3188
V131154
p3189
a(dp3190
g6
F104.5
sg7
F0
sg8
F104
sg9
F1
sg10
F104
saa(lp3191
V131205
p3192
a(dp3193
g6
F104.5
sg7
F0
sg8
F104
sg9
F2
sg10
F104
saa(lp3194
V131215
p3195
a(dp3196
g6
F104.5
sg7
F0
sg8
F104
sg9
F6
sg10
F104
saa(lp3197
V131235
p3198
a(dp3199
g6
F104.5
sg7
F0
sg8
F104
sg9
F1
sg10
F104
saa(lp3200
V131240
p3201
a(dp3202
g6
F104.5
sg7
F0
sg8
F104
sg9
F2
sg10
F104
saa(lp3203
V131245
p3204
a(dp3205
g6
F104.5
sg7
F0
sg8
F104
sg9
F1
sg10
F104
saa(lp3206
V131250
p3207
a(dp3208
g6
F104.5
sg7
F0
sg8
F104
sg9
F1
sg10
F104
saa(lp3209
V131255
p3210
a(dp3211
g6
F104.5
sg7
F0.5
sg8
F104
sg9
F6
sg10
F104.5
saa(lp3212
V131300
p3213
a(dp3214
g6
F104.5
sg7
F0
sg8
F104
sg9
F1
sg10
F104
saa(lp3215
V131305
p3216
a(dp3217
g6
F104.5
sg7
F0
sg8
F104
sg9
F2
sg10
F104
saa(lp3218
V131315
p3219
a(dp3220
g6
F104.5
sg7
F0
sg8
F104
sg9
F2
sg10
F104
saa(lp3221
V131320
p3222
a(dp3223
g6
F104.5
sg7
F0
sg8
F104
sg9
F1
sg10
F104
saa(lp3224
V131325
p3225
a(dp3226
g6
F104.5
sg7
F0
sg8
F104
sg9
F1
sg10
F104
saa(lp3227
V131330
p3228
a(dp3229
g6
F104.5
sg7
F0
sg8
F104
sg9
F1
sg10
F104
saa(lp3230
V131335
p3231
a(dp3232
g6
F104.5
sg7
F0
sg8
F104
sg9
F3
sg10
F104
saa(lp3233
V131355
p3234
a(dp3235
g6
F104.5
sg7
F0
sg8
F104
sg9
F1
sg10
F104
saa(lp3236
V131405
p3237
a(dp3238
g6
F104.5
sg7
F0
sg8
F104
sg9
F3
sg10
F104
saa(lp3239
V131415
p3240
a(dp3241
g6
F104.5
sg7
F0
sg8
F104
sg9
F2
sg10
F104
saa(lp3242
V131420
p3243
a(dp3244
g6
F104.5
sg7
F0.5
sg8
F104
sg9
F1
sg10
F104.5
saa(lp3245
V131425
p3246
a(dp3247
g6
F104.5
sg7
F0
sg8
F104
sg9
F1
sg10
F104
saa(lp3248
V131435
p3249
a(dp3250
g6
F104.5
sg7
F0
sg8
F104
sg9
F3
sg10
F104
saa(lp3251
V131440
p3252
a(dp3253
g6
F104.5
sg7
F0
sg8
F104
sg9
F1
sg10
F104
saa(lp3254
V131445
p3255
a(dp3256
g6
F104.5
sg7
F0
sg8
F104
sg9
F1
sg10
F104
saa(lp3257
V131455
p3258
a(dp3259
g6
F104.5
sg7
F0
sg8
F104
sg9
F1
sg10
F104
saa(lp3260
V131505
p3261
a(dp3262
g6
F104.5
sg7
F0
sg8
F104
sg9
F2
sg10
F104
saa(lp3263
V131510
p3264
a(dp3265
g6
F104.5
sg7
F0.5
sg8
F104
sg9
F1
sg10
F104.5
saa(lp3266
V131515
p3267
a(dp3268
g6
F104.5
sg7
F0
sg8
F104
sg9
F1
sg10
F104
saa(lp3269
V131526
p3270
a(dp3271
g6
F104.5
sg7
F0
sg8
F104
sg9
F3
sg10
F104
saa(lp3272
V131531
p3273
a(dp3274
g6
F104.5
sg7
F0
sg8
F104
sg9
F3
sg10
F104
saa(lp3275
V131536
p3276
a(dp3277
g6
F104.5
sg7
F0
sg8
F104
sg9
F1
sg10
F104
saa(lp3278
V131551
p3279
a(dp3280
g6
F104.5
sg7
F0.5
sg8
F104
sg9
F6
sg10
F104.5
saa(lp3281
V131556
p3282
a(dp3283
g6
F104.5
sg7
F0
sg8
F104
sg9
F1
sg10
F104
saa(lp3284
V131601
p3285
a(dp3286
g6
F104.5
sg7
F0
sg8
F104
sg9
F3
sg10
F104
saa(lp3287
V131606
p3288
a(dp3289
g6
F104.5
sg7
F0
sg8
F104
sg9
F1
sg10
F104
saa(lp3290
V131611
p3291
a(dp3292
g6
F104.5
sg7
F0
sg8
F104
sg9
F1
sg10
F104
saa(lp3293
V131616
p3294
a(dp3295
g6
F104.5
sg7
F0
sg8
F104
sg9
F2
sg10
F104
saa(lp3296
V131621
p3297
a(dp3298
g6
F104.5
sg7
F0.5
sg8
F104
sg9
F2
sg10
F104.5
saa(lp3299
V131631
p3300
a(dp3301
g6
F104.5
sg7
F0
sg8
F104
sg9
F2
sg10
F104
saa(lp3302
V131641
p3303
a(dp3304
g6
F104.5
sg7
F0
sg8
F104
sg9
F1
sg10
F104
saa(lp3305
V131646
p3306
a(dp3307
g6
F104.5
sg7
F0
sg8
F104
sg9
F2
sg10
F104
saa(lp3308
V131651
p3309
a(dp3310
g6
F104.5
sg7
F0
sg8
F104
sg9
F1
sg10
F104
saa(lp3311
V131656
p3312
a(dp3313
g6
F104.5
sg7
F0
sg8
F104
sg9
F1
sg10
F104
saa(lp3314
V131701
p3315
a(dp3316
g6
F104.5
sg7
F0
sg8
F104
sg9
F4
sg10
F104
saa(lp3317
V131721
p3318
a(dp3319
g6
F104.5
sg7
F0
sg8
F104
sg9
F1
sg10
F104
saa(lp3320
V131726
p3321
a(dp3322
g6
F104.5
sg7
F0
sg8
F104
sg9
F7
sg10
F104
saa(lp3323
V131731
p3324
a(dp3325
g6
F104.5
sg7
F0
sg8
F104
sg9
F3
sg10
F104
saa(lp3326
V131756
p3327
a(dp3328
g6
F104.5
sg7
F0
sg8
F104
sg9
F1
sg10
F104
saa(lp3329
V131801
p3330
a(dp3331
g6
F104.5
sg7
F0
sg8
F104
sg9
F4
sg10
F104
saa(lp3332
V131806
p3333
a(dp3334
g6
F104.5
sg7
F0
sg8
F104
sg9
F2
sg10
F104
saa(lp3335
V131811
p3336
a(dp3337
g6
F104.5
sg7
F0
sg8
F104
sg9
F1
sg10
F104
saa(lp3338
V131816
p3339
a(dp3340
g6
F104.5
sg7
F0
sg8
F104
sg9
F5
sg10
F104
saa(lp3341
V131826
p3342
a(dp3343
g6
F104.5
sg7
F0.5
sg8
F104
sg9
F5
sg10
F104.5
saa(lp3344
V131831
p3345
a(dp3346
g6
F104.5
sg7
F0
sg8
F104
sg9
F3
sg10
F104
saa(lp3347
V131836
p3348
a(dp3349
g6
F104.5
sg7
F0
sg8
F104
sg9
F1
sg10
F104
saa(lp3350
V131841
p3351
a(dp3352
g6
F104.5
sg7
F0.5
sg8
F104
sg9
F6
sg10
F104.5
saa(lp3353
V131846
p3354
a(dp3355
g6
F104.5
sg7
F0.5
sg8
F104
sg9
F1
sg10
F104.5
saa(lp3356
V131902
p3357
a(dp3358
g6
F104.5
sg7
F0
sg8
F104
sg9
F2
sg10
F104
saa(lp3359
V131917
p3360
a(dp3361
g6
F104.5
sg7
F0
sg8
F104
sg9
F1
sg10
F104
saa(lp3362
V131927
p3363
a(dp3364
g6
F104.5
sg7
F0
sg8
F104
sg9
F2
sg10
F104
saa(lp3365
V131932
p3366
a(dp3367
g6
F104.5
sg7
F0
sg8
F104
sg9
F4
sg10
F104
saa(lp3368
V131937
p3369
a(dp3370
g6
F104.5
sg7
F0
sg8
F104
sg9
F1
sg10
F104
saa(lp3371
V131942
p3372
a(dp3373
g6
F104.5
sg7
F0
sg8
F104
sg9
F7
sg10
F104
saa(lp3374
V131952
p3375
a(dp3376
g6
F104.5
sg7
F0
sg8
F104
sg9
F1
sg10
F104
saa(lp3377
V131957
p3378
a(dp3379
g6
F104.5
sg7
F0
sg8
F104
sg9
F1
sg10
F104
saa(lp3380
V132002
p3381
a(dp3382
g6
F104.5
sg7
F0
sg8
F104
sg9
F3
sg10
F104
saa(lp3383
V132007
p3384
a(dp3385
g6
F104.5
sg7
F0
sg8
F104
sg9
F2
sg10
F104
saa(lp3386
V132012
p3387
a(dp3388
g6
F104.5
sg7
F0.5
sg8
F104
sg9
F2
sg10
F104.5
saa(lp3389
V132022
p3390
a(dp3391
g6
F104.5
sg7
F0.5
sg8
F104
sg9
F1
sg10
F104.5
saa(lp3392
V132027
p3393
a(dp3394
g6
F104.5
sg7
F0
sg8
F104
sg9
F2
sg10
F104
saa(lp3395
V132032
p3396
a(dp3397
g6
F104.5
sg7
F0
sg8
F104
sg9
F3
sg10
F104
saa(lp3398
V132037
p3399
a(dp3400
g6
F104.5
sg7
F0.5
sg8
F104
sg9
F1
sg10
F104.5
saa(lp3401
V132042
p3402
a(dp3403
g6
F104.5
sg7
F0.5
sg8
F104
sg9
F2
sg10
F104.5
saa(lp3404
V132047
p3405
a(dp3406
g6
F104.5
sg7
F0.5
sg8
F104
sg9
F1
sg10
F104.5
saa(lp3407
V132057
p3408
a(dp3409
g6
F104.5
sg7
F0.5
sg8
F104
sg9
F1
sg10
F104.5
saa(lp3410
V132102
p3411
a(dp3412
g6
F104.5
sg7
F0
sg8
F104
sg9
F3
sg10
F104
saa(lp3413
V132107
p3414
a(dp3415
g6
F104.5
sg7
F0.5
sg8
F104
sg9
F6
sg10
F104.5
saa(lp3416
V132117
p3417
a(dp3418
g6
F104.5
sg7
F0
sg8
F104
sg9
F1
sg10
F104
saa(lp3419
V132122
p3420
a(dp3421
g6
F104.5
sg7
F0.5
sg8
F104
sg9
F4
sg10
F104.5
saa(lp3422
V132127
p3423
a(dp3424
g6
F104.5
sg7
F0
sg8
F104
sg9
F1
sg10
F104
saa(lp3425
V132132
p3426
a(dp3427
g6
F104.5
sg7
F0
sg8
F104
sg9
F3
sg10
F104
saa(lp3428
V132142
p3429
a(dp3430
g6
F104.5
sg7
F0
sg8
F104
sg9
F1
sg10
F104
saa(lp3431
V132152
p3432
a(dp3433
g6
F104.5
sg7
F0
sg8
F104
sg9
F1
sg10
F104
saa(lp3434
V132157
p3435
a(dp3436
g6
F104.5
sg7
F0
sg8
F104
sg9
F1
sg10
F104
saa(lp3437
V132202
p3438
a(dp3439
g6
F104.5
sg7
F0
sg8
F104
sg9
F4
sg10
F104
saa(lp3440
V132212
p3441
a(dp3442
g6
F104.5
sg7
F0
sg8
F104
sg9
F2
sg10
F104
saa(lp3443
V132217
p3444
a(dp3445
g6
F104.5
sg7
F0
sg8
F104
sg9
F1
sg10
F104
saa(lp3446
V132222
p3447
a(dp3448
g6
F104.5
sg7
F0.5
sg8
F104
sg9
F2
sg10
F104.5
saa(lp3449
V132227
p3450
a(dp3451
g6
F104.5
sg7
F0
sg8
F104
sg9
F6
sg10
F104
saa(lp3452
V132232
p3453
a(dp3454
g6
F104.5
sg7
F0
sg8
F104
sg9
F4
sg10
F104
saa(lp3455
V132237
p3456
a(dp3457
g6
F104.5
sg7
F0
sg8
F104
sg9
F1
sg10
F104
saa(lp3458
V132258
p3459
a(dp3460
g6
F104.5
sg7
F0
sg8
F104
sg9
F5
sg10
F104
saa(lp3461
V132303
p3462
a(dp3463
g6
F104.5
sg7
F0.5
sg8
F104
sg9
F1
sg10
F104.5
saa(lp3464
V132308
p3465
a(dp3466
g6
F104.5
sg7
F0
sg8
F104
sg9
F2
sg10
F104
saa(lp3467
V132318
p3468
a(dp3469
g6
F104.5
sg7
F0
sg8
F104
sg9
F1
sg10
F104
saa(lp3470
V132323
p3471
a(dp3472
g6
F104.5
sg7
F0
sg8
F104
sg9
F1
sg10
F104
saa(lp3473
V132328
p3474
a(dp3475
g6
F104.5
sg7
F0
sg8
F104
sg9
F5
sg10
F104
saa(lp3476
V132333
p3477
a(dp3478
g6
F104.5
sg7
F0
sg8
F104
sg9
F5
sg10
F104
saa(lp3479
V132348
p3480
a(dp3481
g6
F104.5
sg7
F0.5
sg8
F104
sg9
F1
sg10
F104.5
saa(lp3482
V132353
p3483
a(dp3484
g6
F104.5
sg7
F0
sg8
F104
sg9
F1
sg10
F104
saa(lp3485
V132358
p3486
a(dp3487
g6
F104.5
sg7
F0
sg8
F104
sg9
F1
sg10
F104
saa(lp3488
V132403
p3489
a(dp3490
g6
F104.5
sg7
F0
sg8
F104
sg9
F7
sg10
F104
saa(lp3491
V132408
p3492
a(dp3493
g6
F104.5
sg7
F0
sg8
F104
sg9
F2
sg10
F104
saa(lp3494
V132413
p3495
a(dp3496
g6
F104.5
sg7
F0
sg8
F104
sg9
F3
sg10
F104
saa(lp3497
V132418
p3498
a(dp3499
g6
F104.5
sg7
F0.5
sg8
F104
sg9
F8
sg10
F104.5
saa(lp3500
V132428
p3501
a(dp3502
g6
F104.5
sg7
F0.5
sg8
F104
sg9
F1
sg10
F104.5
saa(lp3503
V132433
p3504
a(dp3505
g6
F104.5
sg7
F0.5
sg8
F104
sg9
F3
sg10
F104.5
saa(lp3506
V132448
p3507
a(dp3508
g6
F104.5
sg7
F0.5
sg8
F104
sg9
F1
sg10
F104.5
saa(lp3509
V132458
p3510
a(dp3511
g6
F104.5
sg7
F0
sg8
F104
sg9
F1
sg10
F104
saa(lp3512
V133000
p3513
a(dp3514
g6
F104.5
sg7
F0
sg8
F104
sg9
F333
sg10
F104
saa(lp3515
V143000
p3516
a(dp3517
g6
F104.5
sg7
F0
sg8
F104
sg9
F13
sg10
F104
saatRp3518
.